

Microchip MPLAB XC8 Assembler V2.35 build 20211206165544 
                                                                                               Wed Feb 23 10:45:54 2022

Microchip MPLAB XC8 C Compiler v2.35 (Free license) build 20211206165544 Og1 
     1                           	processor	16F877A
     2                           	pagewidth 120
     3                           	opt	flic
     4                           	psect	idataBANK0,global,class=CODE,delta=2,noexec
     5                           	psect	stringtext,global,reloc=256,class=STRCODE,delta=2,noexec
     6                           	psect	cinit,global,class=CODE,merge=1,delta=2
     7                           	psect	bssBANK0,global,class=BANK0,space=1,delta=1,noexec
     8                           	psect	dataBANK0,global,class=BANK0,space=1,delta=1,noexec
     9                           	psect	bssBANK1,global,class=BANK1,space=1,delta=1,noexec
    10                           	psect	clrtext,global,class=CODE,delta=2
    11                           	psect	cstackCOMMON,global,class=COMMON,space=1,delta=1,noexec
    12                           	psect	cstackBANK0,global,class=BANK0,space=1,delta=1,noexec
    13                           	psect	maintext,global,class=CODE,split=1,delta=2
    14                           	psect	text1,local,class=CODE,merge=1,delta=2,group=1
    15                           	psect	text2,local,class=CODE,merge=1,delta=2,group=1
    16                           	psect	text3,local,class=CODE,merge=1,delta=2,group=1
    17                           	psect	text4,local,class=CODE,merge=1,delta=2,group=1
    18                           	psect	text5,local,class=CODE,merge=1,delta=2,group=1
    19                           	psect	text6,local,class=CODE,merge=1,delta=2,group=3
    20                           	psect	text7,local,class=CODE,merge=1,delta=2,group=1
    21                           	psect	text8,local,class=CODE,merge=1,delta=2,group=1
    22                           	psect	text9,local,class=CODE,merge=1,delta=2,group=1
    23                           	psect	text10,local,class=CODE,merge=1,delta=2
    24                           	psect	text11,local,class=CODE,merge=1,delta=2,group=1
    25                           	psect	text12,local,class=CODE,merge=1,delta=2,group=2
    26                           	psect	text13,local,class=CODE,merge=1,delta=2,group=2
    27                           	psect	text14,local,class=CODE,merge=1,delta=2,group=2
    28                           	psect	text15,local,class=CODE,merge=1,delta=2,group=1
    29                           	psect	text16,local,class=CODE,merge=1,delta=2,group=1
    30                           	psect	text17,local,class=CODE,merge=1,delta=2,group=1
    31                           	psect	text18,local,class=CODE,merge=1,delta=2,group=1
    32                           	psect	text19,local,class=CODE,merge=1,delta=2,group=1
    33                           	psect	text20,local,class=CODE,merge=1,delta=2,group=1
    34                           	psect	text21,local,class=CODE,merge=1,delta=2,group=1
    35                           	psect	text22,local,class=CODE,merge=1,delta=2,group=1
    36                           	psect	text23,local,class=CODE,merge=1,delta=2,group=1
    37                           	psect	text24,local,class=CODE,merge=1,delta=2,group=1
    38                           	psect	text25,local,class=CODE,merge=1,delta=2,group=1
    39                           	psect	text26,local,class=CODE,merge=1,delta=2,group=1
    40                           	psect	text27,local,class=CODE,merge=1,delta=2,group=1
    41                           	psect	text28,local,class=CODE,merge=1,delta=2,group=1
    42                           	psect	text29,local,class=CODE,merge=1,delta=2,group=2
    43                           	psect	text30,local,class=CODE,merge=1,delta=2,group=1
    44                           	psect	text31,local,class=CODE,merge=1,delta=2,group=1
    45                           	psect	text32,local,class=CODE,merge=1,delta=2,group=1
    46                           	psect	text33,local,class=CODE,merge=1,delta=2,group=1
    47                           	psect	text34,local,class=CODE,merge=1,delta=2,group=1
    48                           	psect	text35,local,class=CODE,merge=1,delta=2,group=1
    49                           	psect	text36,local,class=CODE,merge=1,delta=2,group=1
    50                           	psect	text37,local,class=CODE,merge=1,delta=2,group=1
    51                           	psect	text38,local,class=CODE,merge=1,delta=2,group=1
    52                           	psect	text39,local,class=CODE,merge=1,delta=2,group=1
    53                           	psect	text40,local,class=CODE,merge=1,delta=2,group=1
    54                           	psect	text41,local,class=CODE,merge=1,delta=2,group=1
    55                           	psect	text42,local,class=CODE,merge=1,delta=2,group=1
    56                           	psect	text43,local,class=CODE,merge=1,delta=2,group=1
    57                           	psect	text44,local,class=CODE,merge=1,delta=2,group=1
    58                           	psect	text45,local,class=CODE,merge=1,delta=2,group=1
    59                           	psect	text46,local,class=CODE,merge=1,delta=2,group=1
    60                           	psect	text47,local,class=CODE,merge=1,delta=2,group=1
    61                           	psect	text48,local,class=CODE,merge=1,delta=2,group=1
    62                           	psect	text49,local,class=CODE,merge=1,delta=2,group=1
    63                           	psect	text50,local,class=CODE,merge=1,delta=2,group=1
    64                           	psect	text51,local,class=CODE,merge=1,delta=2,group=1
    65                           	psect	text52,local,class=CODE,merge=1,delta=2,group=1
    66                           	psect	config,global,abs,ovrld,class=CONFIG,space=4,delta=2,noexec
    67                           	dabs	1,0x7E,2
    68  0000                     
    69                           ; Version 2.35
    70                           ; Generated 06/12/2021 GMT
    71                           ; 
    72                           ; Copyright © 2021, Microchip Technology Inc. and its subsidiaries ("Microchip")
    73                           ; All rights reserved.
    74                           ; 
    75                           ; This software is developed by Microchip Technology Inc. and its subsidiaries ("Microch
      +                          ip").
    76                           ; 
    77                           ; Redistribution and use in source and binary forms, with or without modification, are
    78                           ; permitted provided that the following conditions are met:
    79                           ; 
    80                           ;     1. Redistributions of source code must retain the above copyright notice, this lis
      +                          t of
    81                           ;        conditions and the following disclaimer.
    82                           ; 
    83                           ;     2. Redistributions in binary form must reproduce the above copyright notice, this 
      +                          list
    84                           ;        of conditions and the following disclaimer in the documentation and/or other
    85                           ;        materials provided with the distribution. Publication is not required when
    86                           ;        this file is used in an embedded application.
    87                           ; 
    88                           ;     3. Microchip's name may not be used to endorse or promote products derived from th
      +                          is
    89                           ;        software without specific prior written permission.
    90                           ; 
    91                           ; THIS SOFTWARE IS PROVIDED BY MICROCHIP "AS IS" AND ANY EXPRESS OR IMPLIED WARRANTIES,
    92                           ; INCLUDING, BUT NOT LIMITED TO, THE IMPLIED WARRANTIES OF MERCHANTABILITY AND FITNESS F
      +                          OR
    93                           ; PURPOSE ARE DISCLAIMED.  IN NO EVENT SHALL MICROCHIP BE LIABLE FOR ANY DIRECT, INDIREC
      +                          T,
    94                           ; INCIDENTAL, SPECIAL, EXEMPLARY, OR CONSEQUENTIAL DAMAGES (INCLUDING BUT NOT LIMITED TO
    95                           ; PROCUREMENT OF SUBSTITUTE GOODS OR SERVICES; LOSS OF USE, DATA OR PROFITS; OR BUSINESS
    96                           ; INTERRUPTION) HOWSOEVER CAUSED AND ON ANY THEORY OF LIABILITY, WHETHER IN CONTRACT, ST
      +                          RICT
    97                           ; LIABILITY, OR TORT (INCLUDING NEGLIGENCE OR OTHERWISE) ARISING IN ANY WAY OUT OF THE U
      +                          SE OF
    98                           ; THIS SOFTWARE, EVEN IF ADVISED OF THE POSSIBILITY OF SUCH DAMAGE.
    99                           ; 
   100                           ; 
   101                           ; Code-generator required, PIC16F877A Definitions
   102                           ; 
   103                           ; SFR Addresses
   104  0000                     	;# 
   105  0001                     	;# 
   106  0002                     	;# 
   107  0003                     	;# 
   108  0004                     	;# 
   109  0005                     	;# 
   110  0006                     	;# 
   111  0007                     	;# 
   112  0008                     	;# 
   113  0009                     	;# 
   114  000A                     	;# 
   115  000B                     	;# 
   116  000C                     	;# 
   117  000D                     	;# 
   118  000E                     	;# 
   119  000E                     	;# 
   120  000F                     	;# 
   121  0010                     	;# 
   122  0011                     	;# 
   123  0012                     	;# 
   124  0013                     	;# 
   125  0014                     	;# 
   126  0015                     	;# 
   127  0015                     	;# 
   128  0016                     	;# 
   129  0017                     	;# 
   130  0018                     	;# 
   131  0019                     	;# 
   132  001A                     	;# 
   133  001B                     	;# 
   134  001B                     	;# 
   135  001C                     	;# 
   136  001D                     	;# 
   137  001E                     	;# 
   138  001F                     	;# 
   139  0081                     	;# 
   140  0085                     	;# 
   141  0086                     	;# 
   142  0087                     	;# 
   143  0088                     	;# 
   144  0089                     	;# 
   145  008C                     	;# 
   146  008D                     	;# 
   147  008E                     	;# 
   148  0091                     	;# 
   149  0092                     	;# 
   150  0093                     	;# 
   151  0094                     	;# 
   152  0098                     	;# 
   153  0099                     	;# 
   154  009C                     	;# 
   155  009D                     	;# 
   156  009E                     	;# 
   157  009F                     	;# 
   158  010C                     	;# 
   159  010D                     	;# 
   160  010E                     	;# 
   161  010F                     	;# 
   162  018C                     	;# 
   163  018D                     	;# 
   164  0000                     	;# 
   165  0001                     	;# 
   166  0002                     	;# 
   167  0003                     	;# 
   168  0004                     	;# 
   169  0005                     	;# 
   170  0006                     	;# 
   171  0007                     	;# 
   172  0008                     	;# 
   173  0009                     	;# 
   174  000A                     	;# 
   175  000B                     	;# 
   176  000C                     	;# 
   177  000D                     	;# 
   178  000E                     	;# 
   179  000E                     	;# 
   180  000F                     	;# 
   181  0010                     	;# 
   182  0011                     	;# 
   183  0012                     	;# 
   184  0013                     	;# 
   185  0014                     	;# 
   186  0015                     	;# 
   187  0015                     	;# 
   188  0016                     	;# 
   189  0017                     	;# 
   190  0018                     	;# 
   191  0019                     	;# 
   192  001A                     	;# 
   193  001B                     	;# 
   194  001B                     	;# 
   195  001C                     	;# 
   196  001D                     	;# 
   197  001E                     	;# 
   198  001F                     	;# 
   199  0081                     	;# 
   200  0085                     	;# 
   201  0086                     	;# 
   202  0087                     	;# 
   203  0088                     	;# 
   204  0089                     	;# 
   205  008C                     	;# 
   206  008D                     	;# 
   207  008E                     	;# 
   208  0091                     	;# 
   209  0092                     	;# 
   210  0093                     	;# 
   211  0094                     	;# 
   212  0098                     	;# 
   213  0099                     	;# 
   214  009C                     	;# 
   215  009D                     	;# 
   216  009E                     	;# 
   217  009F                     	;# 
   218  010C                     	;# 
   219  010D                     	;# 
   220  010E                     	;# 
   221  010F                     	;# 
   222  018C                     	;# 
   223  018D                     	;# 
   224  0000                     	;# 
   225  0001                     	;# 
   226  0002                     	;# 
   227  0003                     	;# 
   228  0004                     	;# 
   229  0005                     	;# 
   230  0006                     	;# 
   231  0007                     	;# 
   232  0008                     	;# 
   233  0009                     	;# 
   234  000A                     	;# 
   235  000B                     	;# 
   236  000C                     	;# 
   237  000D                     	;# 
   238  000E                     	;# 
   239  000E                     	;# 
   240  000F                     	;# 
   241  0010                     	;# 
   242  0011                     	;# 
   243  0012                     	;# 
   244  0013                     	;# 
   245  0014                     	;# 
   246  0015                     	;# 
   247  0015                     	;# 
   248  0016                     	;# 
   249  0017                     	;# 
   250  0018                     	;# 
   251  0019                     	;# 
   252  001A                     	;# 
   253  001B                     	;# 
   254  001B                     	;# 
   255  001C                     	;# 
   256  001D                     	;# 
   257  001E                     	;# 
   258  001F                     	;# 
   259  0081                     	;# 
   260  0085                     	;# 
   261  0086                     	;# 
   262  0087                     	;# 
   263  0088                     	;# 
   264  0089                     	;# 
   265  008C                     	;# 
   266  008D                     	;# 
   267  008E                     	;# 
   268  0091                     	;# 
   269  0092                     	;# 
   270  0093                     	;# 
   271  0094                     	;# 
   272  0098                     	;# 
   273  0099                     	;# 
   274  009C                     	;# 
   275  009D                     	;# 
   276  009E                     	;# 
   277  009F                     	;# 
   278  010C                     	;# 
   279  010D                     	;# 
   280  010E                     	;# 
   281  010F                     	;# 
   282  018C                     	;# 
   283  018D                     	;# 
   284  0000                     	;# 
   285  0001                     	;# 
   286  0002                     	;# 
   287  0003                     	;# 
   288  0004                     	;# 
   289  0005                     	;# 
   290  0006                     	;# 
   291  0007                     	;# 
   292  0008                     	;# 
   293  0009                     	;# 
   294  000A                     	;# 
   295  000B                     	;# 
   296  000C                     	;# 
   297  000D                     	;# 
   298  000E                     	;# 
   299  000E                     	;# 
   300  000F                     	;# 
   301  0010                     	;# 
   302  0011                     	;# 
   303  0012                     	;# 
   304  0013                     	;# 
   305  0014                     	;# 
   306  0015                     	;# 
   307  0015                     	;# 
   308  0016                     	;# 
   309  0017                     	;# 
   310  0018                     	;# 
   311  0019                     	;# 
   312  001A                     	;# 
   313  001B                     	;# 
   314  001B                     	;# 
   315  001C                     	;# 
   316  001D                     	;# 
   317  001E                     	;# 
   318  001F                     	;# 
   319  0081                     	;# 
   320  0085                     	;# 
   321  0086                     	;# 
   322  0087                     	;# 
   323  0088                     	;# 
   324  0089                     	;# 
   325  008C                     	;# 
   326  008D                     	;# 
   327  008E                     	;# 
   328  0091                     	;# 
   329  0092                     	;# 
   330  0093                     	;# 
   331  0094                     	;# 
   332  0098                     	;# 
   333  0099                     	;# 
   334  009C                     	;# 
   335  009D                     	;# 
   336  009E                     	;# 
   337  009F                     	;# 
   338  010C                     	;# 
   339  010D                     	;# 
   340  010E                     	;# 
   341  010F                     	;# 
   342  018C                     	;# 
   343  018D                     	;# 
   344  0000                     	;# 
   345  0001                     	;# 
   346  0002                     	;# 
   347  0003                     	;# 
   348  0004                     	;# 
   349  0005                     	;# 
   350  0006                     	;# 
   351  0007                     	;# 
   352  0008                     	;# 
   353  0009                     	;# 
   354  000A                     	;# 
   355  000B                     	;# 
   356  000C                     	;# 
   357  000D                     	;# 
   358  000E                     	;# 
   359  000E                     	;# 
   360  000F                     	;# 
   361  0010                     	;# 
   362  0011                     	;# 
   363  0012                     	;# 
   364  0013                     	;# 
   365  0014                     	;# 
   366  0015                     	;# 
   367  0015                     	;# 
   368  0016                     	;# 
   369  0017                     	;# 
   370  0018                     	;# 
   371  0019                     	;# 
   372  001A                     	;# 
   373  001B                     	;# 
   374  001B                     	;# 
   375  001C                     	;# 
   376  001D                     	;# 
   377  001E                     	;# 
   378  001F                     	;# 
   379  0081                     	;# 
   380  0085                     	;# 
   381  0086                     	;# 
   382  0087                     	;# 
   383  0088                     	;# 
   384  0089                     	;# 
   385  008C                     	;# 
   386  008D                     	;# 
   387  008E                     	;# 
   388  0091                     	;# 
   389  0092                     	;# 
   390  0093                     	;# 
   391  0094                     	;# 
   392  0098                     	;# 
   393  0099                     	;# 
   394  009C                     	;# 
   395  009D                     	;# 
   396  009E                     	;# 
   397  009F                     	;# 
   398  010C                     	;# 
   399  010D                     	;# 
   400  010E                     	;# 
   401  010F                     	;# 
   402  018C                     	;# 
   403  018D                     	;# 
   404  0000                     	;# 
   405  0001                     	;# 
   406  0002                     	;# 
   407  0003                     	;# 
   408  0004                     	;# 
   409  0005                     	;# 
   410  0006                     	;# 
   411  0007                     	;# 
   412  0008                     	;# 
   413  0009                     	;# 
   414  000A                     	;# 
   415  000B                     	;# 
   416  000C                     	;# 
   417  000D                     	;# 
   418  000E                     	;# 
   419  000E                     	;# 
   420  000F                     	;# 
   421  0010                     	;# 
   422  0011                     	;# 
   423  0012                     	;# 
   424  0013                     	;# 
   425  0014                     	;# 
   426  0015                     	;# 
   427  0015                     	;# 
   428  0016                     	;# 
   429  0017                     	;# 
   430  0018                     	;# 
   431  0019                     	;# 
   432  001A                     	;# 
   433  001B                     	;# 
   434  001B                     	;# 
   435  001C                     	;# 
   436  001D                     	;# 
   437  001E                     	;# 
   438  001F                     	;# 
   439  0081                     	;# 
   440  0085                     	;# 
   441  0086                     	;# 
   442  0087                     	;# 
   443  0088                     	;# 
   444  0089                     	;# 
   445  008C                     	;# 
   446  008D                     	;# 
   447  008E                     	;# 
   448  0091                     	;# 
   449  0092                     	;# 
   450  0093                     	;# 
   451  0094                     	;# 
   452  0098                     	;# 
   453  0099                     	;# 
   454  009C                     	;# 
   455  009D                     	;# 
   456  009E                     	;# 
   457  009F                     	;# 
   458  010C                     	;# 
   459  010D                     	;# 
   460  010E                     	;# 
   461  010F                     	;# 
   462  018C                     	;# 
   463  018D                     	;# 
   464  0000                     	;# 
   465  0001                     	;# 
   466  0002                     	;# 
   467  0003                     	;# 
   468  0004                     	;# 
   469  0005                     	;# 
   470  0006                     	;# 
   471  0007                     	;# 
   472  0008                     	;# 
   473  0009                     	;# 
   474  000A                     	;# 
   475  000B                     	;# 
   476  000C                     	;# 
   477  000D                     	;# 
   478  000E                     	;# 
   479  000E                     	;# 
   480  000F                     	;# 
   481  0010                     	;# 
   482  0011                     	;# 
   483  0012                     	;# 
   484  0013                     	;# 
   485  0014                     	;# 
   486  0015                     	;# 
   487  0015                     	;# 
   488  0016                     	;# 
   489  0017                     	;# 
   490  0018                     	;# 
   491  0019                     	;# 
   492  001A                     	;# 
   493  001B                     	;# 
   494  001B                     	;# 
   495  001C                     	;# 
   496  001D                     	;# 
   497  001E                     	;# 
   498  001F                     	;# 
   499  0081                     	;# 
   500  0085                     	;# 
   501  0086                     	;# 
   502  0087                     	;# 
   503  0088                     	;# 
   504  0089                     	;# 
   505  008C                     	;# 
   506  008D                     	;# 
   507  008E                     	;# 
   508  0091                     	;# 
   509  0092                     	;# 
   510  0093                     	;# 
   511  0094                     	;# 
   512  0098                     	;# 
   513  0099                     	;# 
   514  009C                     	;# 
   515  009D                     	;# 
   516  009E                     	;# 
   517  009F                     	;# 
   518  010C                     	;# 
   519  010D                     	;# 
   520  010E                     	;# 
   521  010F                     	;# 
   522  018C                     	;# 
   523  018D                     	;# 
   524  0000                     	;# 
   525  0001                     	;# 
   526  0002                     	;# 
   527  0003                     	;# 
   528  0004                     	;# 
   529  0005                     	;# 
   530  0006                     	;# 
   531  0007                     	;# 
   532  0008                     	;# 
   533  0009                     	;# 
   534  000A                     	;# 
   535  000B                     	;# 
   536  000C                     	;# 
   537  000D                     	;# 
   538  000E                     	;# 
   539  000E                     	;# 
   540  000F                     	;# 
   541  0010                     	;# 
   542  0011                     	;# 
   543  0012                     	;# 
   544  0013                     	;# 
   545  0014                     	;# 
   546  0015                     	;# 
   547  0015                     	;# 
   548  0016                     	;# 
   549  0017                     	;# 
   550  0018                     	;# 
   551  0019                     	;# 
   552  001A                     	;# 
   553  001B                     	;# 
   554  001B                     	;# 
   555  001C                     	;# 
   556  001D                     	;# 
   557  001E                     	;# 
   558  001F                     	;# 
   559  0081                     	;# 
   560  0085                     	;# 
   561  0086                     	;# 
   562  0087                     	;# 
   563  0088                     	;# 
   564  0089                     	;# 
   565  008C                     	;# 
   566  008D                     	;# 
   567  008E                     	;# 
   568  0091                     	;# 
   569  0092                     	;# 
   570  0093                     	;# 
   571  0094                     	;# 
   572  0098                     	;# 
   573  0099                     	;# 
   574  009C                     	;# 
   575  009D                     	;# 
   576  009E                     	;# 
   577  009F                     	;# 
   578  010C                     	;# 
   579  010D                     	;# 
   580  010E                     	;# 
   581  010F                     	;# 
   582  018C                     	;# 
   583  018D                     	;# 
   584                           
   585                           	psect	idataBANK0
   586  0CE1                     __pidataBANK0:
   587                           
   588                           ;initializer for _network_pipe
   589  0CE1  3400               	retlw	0
   590  0CE2  34FC               	retlw	252
   591  0CE3  34B0               	retlw	176
   592  0CE4  34E8               	retlw	232
   593  0CE5  34F5               	retlw	245
   594                           
   595                           	psect	stringtext
   596  0800                     __pstringtext:
   597  0800                     stringtab:
   598  0800                     __stringtab:
   599                           
   600                           ;	String table - string pointers are 2 bytes each
   601  0800  1BFF               	btfsc	btemp+1,7
   602  0801  280A               	ljmp	stringcode
   603  0802  1383               	bcf	3,7
   604  0803  187F               	btfsc	btemp+1,0
   605  0804  1783               	bsf	3,7
   606  0805  0800               	movf	0,w
   607  0806  0A84               	incf	4,f
   608  0807  1903               	skipnz
   609  0808  0AFF               	incf	btemp+1,f
   610  0809  0008               	return
   611  080A                     stringcode:
   612  080A  087F               	movf	btemp+1,w
   613  080B  397F               	andlw	127
   614  080C  008A               	movwf	10
   615  080D  0804               	movf	4,w
   616  080E  0A84               	incf	4,f
   617  080F  1903               	skipnz
   618  0810  0AFF               	incf	btemp+1,f
   619  0811  0082               	movwf	2
   620  0812                     __stringbase:
   621  0812                     __end_of__stringtab:
   622  0812                     _LOGLINE_CONVERSION_TABLE:
   623  0812  3430               	retlw	48
   624  0813  3431               	retlw	49
   625  0814  3432               	retlw	50
   626  0815  3433               	retlw	51
   627  0816  3434               	retlw	52
   628  0817  3435               	retlw	53
   629  0818  3436               	retlw	54
   630  0819  3437               	retlw	55
   631  081A  3438               	retlw	56
   632  081B  3439               	retlw	57
   633  081C  3441               	retlw	65
   634  081D  3442               	retlw	66
   635  081E  3443               	retlw	67
   636  081F  3444               	retlw	68
   637  0820  3445               	retlw	69
   638  0821  3446               	retlw	70
   639  0822                     __end_of_LOGLINE_CONVERSION_TABLE:
   640  0822                     _BROADCAST_PIPE:
   641  0822  34F9               	retlw	249
   642  0823  3436               	retlw	54
   643  0824  34CD               	retlw	205
   644  0825  34AC               	retlw	172
   645  0826  34E7               	retlw	231
   646  0827                     __end_of_BROADCAST_PIPE:
   647  0827                     _LOGLINE_FAIL:
   648  0827  3446               	retlw	70
   649  0828  3441               	retlw	65
   650  0829  3449               	retlw	73
   651  082A  344C               	retlw	76
   652  082B  3400               	retlw	0
   653  082C                     __end_of_LOGLINE_FAIL:
   654  082C                     _LOGLINE_OK:
   655  082C  344F               	retlw	79
   656  082D  344B               	retlw	75
   657  082E  3400               	retlw	0
   658  082F                     __end_of_LOGLINE_OK:
   659  082F                     _BASE_PIPE:
   660  082F  3459               	retlw	89
   661  0830  34EC               	retlw	236
   662  0831  34AD               	retlw	173
   663  0832  34FC               	retlw	252
   664  0833  3484               	retlw	132
   665  0834                     __end_of_BASE_PIPE:
   666  0019                     _TXREG	set	25
   667  0013                     _SSPBUF	set	19
   668  0014                     _SSPCON	set	20
   669  00C4                     _CREN	set	196
   670  00C7                     _SPEN	set	199
   671  0063                     _SSPIF	set	99
   672  00A5                     _SSPEN	set	165
   673  0042                     _RD2	set	66
   674  0043                     _RD3	set	67
   675  0041                     _RD1	set	65
   676  0099                     _SPBRG	set	153
   677  0094                     _SSPSTAT	set	148
   678  0086                     _TRISB	set	134
   679  04C1                     _TRMT	set	1217
   680  04C5                     _TXEN	set	1221
   681  043E                     _TRISC6	set	1086
   682  043F                     _TRISC7	set	1087
   683  04C4                     _SYNC	set	1220
   684  04C2                     _BRGH	set	1218
   685  043B                     _TRISC3	set	1083
   686  043C                     _TRISC4	set	1084
   687  043D                     _TRISC5	set	1085
   688  0443                     _TRISD3	set	1091
   689  0442                     _TRISD2	set	1090
   690  040F                     _nRBPU	set	1039
   691  0441                     _TRISD1	set	1089
   692  0834                     STR_24:
   693  0834  343D               	retlw	61	;'='
   694  0835  343D               	retlw	61	;'='
   695  0836  343D               	retlw	61	;'='
   696  0837  343D               	retlw	61	;'='
   697  0838  3445               	retlw	69	;'E'
   698  0839  344E               	retlw	78	;'N'
   699  083A  3444               	retlw	68	;'D'
   700  083B  3420               	retlw	32	;' '
   701  083C  344F               	retlw	79	;'O'
   702  083D  3446               	retlw	70	;'F'
   703  083E  3420               	retlw	32	;' '
   704  083F  3444               	retlw	68	;'D'
   705  0840  3445               	retlw	69	;'E'
   706  0841  3454               	retlw	84	;'T'
   707  0842  3441               	retlw	65	;'A'
   708  0843  3449               	retlw	73	;'I'
   709  0844  344C               	retlw	76	;'L'
   710  0845  3453               	retlw	83	;'S'
   711  0846  343D               	retlw	61	;'='
   712  0847  343D               	retlw	61	;'='
   713  0848  343D               	retlw	61	;'='
   714  0849  343D               	retlw	61	;'='
   715  084A  3400               	retlw	0
   716  084B                     STR_7:
   717  084B  343D               	retlw	61	;'='
   718  084C  343D               	retlw	61	;'='
   719  084D  343D               	retlw	61	;'='
   720  084E  3453               	retlw	83	;'S'
   721  084F  3454               	retlw	84	;'T'
   722  0850  3441               	retlw	65	;'A'
   723  0851  3452               	retlw	82	;'R'
   724  0852  3454               	retlw	84	;'T'
   725  0853  3420               	retlw	32	;' '
   726  0854  344F               	retlw	79	;'O'
   727  0855  3446               	retlw	70	;'F'
   728  0856  3420               	retlw	32	;' '
   729  0857  3444               	retlw	68	;'D'
   730  0858  3445               	retlw	69	;'E'
   731  0859  3454               	retlw	84	;'T'
   732  085A  3441               	retlw	65	;'A'
   733  085B  3449               	retlw	73	;'I'
   734  085C  344C               	retlw	76	;'L'
   735  085D  3453               	retlw	83	;'S'
   736  085E  343D               	retlw	61	;'='
   737  085F  343D               	retlw	61	;'='
   738  0860  343D               	retlw	61	;'='
   739  0861  3400               	retlw	0
   740  0862                     STR_3:
   741  0862  343D               	retlw	61	;'='
   742  0863  343D               	retlw	61	;'='
   743  0864  343D               	retlw	61	;'='
   744  0865  343D               	retlw	61	;'='
   745  0866  343D               	retlw	61	;'='
   746  0867  343D               	retlw	61	;'='
   747  0868  343D               	retlw	61	;'='
   748  0869  343D               	retlw	61	;'='
   749  086A  343D               	retlw	61	;'='
   750  086B  3452               	retlw	82	;'R'
   751  086C  3458               	retlw	88	;'X'
   752  086D  343D               	retlw	61	;'='
   753  086E  343D               	retlw	61	;'='
   754  086F  343D               	retlw	61	;'='
   755  0870  343D               	retlw	61	;'='
   756  0871  343D               	retlw	61	;'='
   757  0872  343D               	retlw	61	;'='
   758  0873  343D               	retlw	61	;'='
   759  0874  343D               	retlw	61	;'='
   760  0875  3400               	retlw	0
   761  0876                     STR_12:
   762  0876  3453               	retlw	83	;'S'
   763  0877  3445               	retlw	69	;'E'
   764  0878  3454               	retlw	84	;'T'
   765  0879  3455               	retlw	85	;'U'
   766  087A  3450               	retlw	80	;'P'
   767  087B  345F               	retlw	95	;'_'
   768  087C  3452               	retlw	82	;'R'
   769  087D  3445               	retlw	69	;'E'
   770  087E  3454               	retlw	84	;'T'
   771  087F  3452               	retlw	82	;'R'
   772  0880  3400               	retlw	0
   773  0881                     STR_16:
   774  0881  344F               	retlw	79	;'O'
   775  0882  3442               	retlw	66	;'B'
   776  0883  3453               	retlw	83	;'S'
   777  0884  3445               	retlw	69	;'E'
   778  0885  3452               	retlw	82	;'R'
   779  0886  3456               	retlw	86	;'V'
   780  0887  3445               	retlw	69	;'E'
   781  0888  345F               	retlw	95	;'_'
   782  0889  3454               	retlw	84	;'T'
   783  088A  3458               	retlw	88	;'X'
   784  088B  3400               	retlw	0
   785  088C                     STR_10:
   786  088C  3445               	retlw	69	;'E'
   787  088D  344E               	retlw	78	;'N'
   788  088E  345F               	retlw	95	;'_'
   789  088F  3452               	retlw	82	;'R'
   790  0890  3458               	retlw	88	;'X'
   791  0891  3441               	retlw	65	;'A'
   792  0892  3444               	retlw	68	;'D'
   793  0893  3444               	retlw	68	;'D'
   794  0894  3452               	retlw	82	;'R'
   795  0895  3400               	retlw	0
   796  0896                     STR_6:
   797  0896  3470               	retlw	112	;'p'
   798  0897  3461               	retlw	97	;'a'
   799  0898  3479               	retlw	121	;'y'
   800  0899  346C               	retlw	108	;'l'
   801  089A  346F               	retlw	111	;'o'
   802  089B  3461               	retlw	97	;'a'
   803  089C  3464               	retlw	100	;'d'
   804  089D  3420               	retlw	32	;' '
   805  089E  343D               	retlw	61	;'='
   806  089F  3400               	retlw	0
   807  08A0                     STR_14:
   808  08A0  3452               	retlw	82	;'R'
   809  08A1  3446               	retlw	70	;'F'
   810  08A2  345F               	retlw	95	;'_'
   811  08A3  3453               	retlw	83	;'S'
   812  08A4  3445               	retlw	69	;'E'
   813  08A5  3454               	retlw	84	;'T'
   814  08A6  3455               	retlw	85	;'U'
   815  08A7  3450               	retlw	80	;'P'
   816  08A8  3400               	retlw	0
   817  08A9                     STR_11:
   818  08A9  3453               	retlw	83	;'S'
   819  08AA  3445               	retlw	69	;'E'
   820  08AB  3454               	retlw	84	;'T'
   821  08AC  3455               	retlw	85	;'U'
   822  08AD  3450               	retlw	80	;'P'
   823  08AE  345F               	retlw	95	;'_'
   824  08AF  3441               	retlw	65	;'A'
   825  08B0  3457               	retlw	87	;'W'
   826  08B1  3400               	retlw	0
   827  08B2                     STR_4:
   828  08B2  3452               	retlw	82	;'R'
   829  08B3  3458               	retlw	88	;'X'
   830  08B4  345F               	retlw	95	;'_'
   831  08B5  3453               	retlw	83	;'S'
   832  08B6  3449               	retlw	73	;'I'
   833  08B7  345A               	retlw	90	;'Z'
   834  08B8  3445               	retlw	69	;'E'
   835  08B9  3400               	retlw	0
   836  08BA                     STR_5:
   837  08BA  3452               	retlw	82	;'R'
   838  08BB  3458               	retlw	88	;'X'
   839  08BC  345F               	retlw	95	;'_'
   840  08BD  3450               	retlw	80	;'P'
   841  08BE  344F               	retlw	79	;'O'
   842  08BF  3452               	retlw	82	;'R'
   843  08C0  3454               	retlw	84	;'T'
   844  08C1  3400               	retlw	0
   845  08C2                     STR_8:
   846  08C2  3443               	retlw	67	;'C'
   847  08C3  344F               	retlw	79	;'O'
   848  08C4  344E               	retlw	78	;'N'
   849  08C5  3446               	retlw	70	;'F'
   850  08C6  3449               	retlw	73	;'I'
   851  08C7  3447               	retlw	71	;'G'
   852  08C8  3400               	retlw	0
   853  08C9                     STR_15:
   854  08C9  3453               	retlw	83	;'S'
   855  08CA  3454               	retlw	84	;'T'
   856  08CB  3441               	retlw	65	;'A'
   857  08CC  3454               	retlw	84	;'T'
   858  08CD  3455               	retlw	85	;'U'
   859  08CE  3453               	retlw	83	;'S'
   860  08CF  3400               	retlw	0
   861  08D0                     STR_2:
   862  08D0  3464               	retlw	100	;'d'
   863  08D1  3461               	retlw	97	;'a'
   864  08D2  3474               	retlw	116	;'t'
   865  08D3  3461               	retlw	97	;'a'
   866  08D4  3420               	retlw	32	;' '
   867  08D5  343D               	retlw	61	;'='
   868  08D6  3400               	retlw	0
   869  08D7                     STR_17:
   870  08D7  3452               	retlw	82	;'R'
   871  08D8  3458               	retlw	88	;'X'
   872  08D9  345F               	retlw	95	;'_'
   873  08DA  3450               	retlw	80	;'P'
   874  08DB  3430               	retlw	48	;'0'
   875  08DC  3400               	retlw	0
   876  08DD                     STR_18:
   877  08DD  3452               	retlw	82	;'R'
   878  08DE  3458               	retlw	88	;'X'
   879  08DF  345F               	retlw	95	;'_'
   880  08E0  3450               	retlw	80	;'P'
   881  08E1  3431               	retlw	49	;'1'
   882  08E2  3400               	retlw	0
   883  08E3                     STR_19:
   884  08E3  3452               	retlw	82	;'R'
   885  08E4  3458               	retlw	88	;'X'
   886  08E5  345F               	retlw	95	;'_'
   887  08E6  3450               	retlw	80	;'P'
   888  08E7  3432               	retlw	50	;'2'
   889  08E8  3400               	retlw	0
   890  08E9                     STR_20:
   891  08E9  3452               	retlw	82	;'R'
   892  08EA  3458               	retlw	88	;'X'
   893  08EB  345F               	retlw	95	;'_'
   894  08EC  3450               	retlw	80	;'P'
   895  08ED  3433               	retlw	51	;'3'
   896  08EE  3400               	retlw	0
   897  08EF                     STR_21:
   898  08EF  3452               	retlw	82	;'R'
   899  08F0  3458               	retlw	88	;'X'
   900  08F1  345F               	retlw	95	;'_'
   901  08F2  3450               	retlw	80	;'P'
   902  08F3  3434               	retlw	52	;'4'
   903  08F4  3400               	retlw	0
   904  08F5                     STR_22:
   905  08F5  3452               	retlw	82	;'R'
   906  08F6  3458               	retlw	88	;'X'
   907  08F7  345F               	retlw	95	;'_'
   908  08F8  3450               	retlw	80	;'P'
   909  08F9  3435               	retlw	53	;'5'
   910  08FA  3400               	retlw	0
   911  08FB                     STR_9:
   912  08FB  3445               	retlw	69	;'E'
   913  08FC  344E               	retlw	78	;'N'
   914  08FD  345F               	retlw	95	;'_'
   915  08FE  3441               	retlw	65	;'A'
   916  08FF  3441               	retlw	65	;'A'
   917  0900  3400               	retlw	0
   918  0901                     STR_13:
   919  0901  3452               	retlw	82	;'R'
   920  0902  3446               	retlw	70	;'F'
   921  0903  345F               	retlw	95	;'_'
   922  0904  3443               	retlw	67	;'C'
   923  0905  3448               	retlw	72	;'H'
   924  0906  3400               	retlw	0
   925  0907                     STR_1:
   926  0907  3468               	retlw	104	;'h'
   927  0908  3469               	retlw	105	;'i'
   928  0909  3400               	retlw	0
   929  0889                     
   930                           	psect	cinit
   931  07CD                     start_initialization:	
   932                           ; #config settings
   933                           
   934  07CD                     __initialization:
   935                           
   936                           ; Initialize objects allocated to BANK0
   937  07CD  120A  158A  24E1  120A  118A  	fcall	__pidataBANK0	;fetch initializer
   938  07D2  00CA               	movwf	__pdataBANK0& (0+127)
   939  07D3  120A  158A  24E2  120A  118A  	fcall	__pidataBANK0+1	;fetch initializer
   940  07D8  00CB               	movwf	(__pdataBANK0+1)& (0+127)
   941  07D9  120A  158A  24E3  120A  118A  	fcall	__pidataBANK0+2	;fetch initializer
   942  07DE  00CC               	movwf	(__pdataBANK0+2)& (0+127)
   943  07DF  120A  158A  24E4  120A  118A  	fcall	__pidataBANK0+3	;fetch initializer
   944  07E4  00CD               	movwf	(__pdataBANK0+3)& (0+127)
   945  07E5  120A  158A  24E5  120A  118A  	fcall	__pidataBANK0+4	;fetch initializer
   946  07EA  00CE               	movwf	(__pdataBANK0+4)& (0+127)
   947                           
   948                           ; Clear objects allocated to BANK1
   949  07EB  1383               	bcf	3,7	;select IRP bank0
   950  07EC  30A0               	movlw	low __pbssBANK1
   951  07ED  0084               	movwf	4
   952  07EE  30E0               	movlw	low (__pbssBANK1+64)
   953  07EF  120A  158A  24F5  120A  118A  	fcall	clear_ram0
   954                           
   955                           ; Clear objects allocated to BANK0
   956  07F4  303D               	movlw	low __pbssBANK0
   957  07F5  0084               	movwf	4
   958  07F6  304A               	movlw	low (__pbssBANK0+13)
   959  07F7  120A  158A  24F5  120A  118A  	fcall	clear_ram0
   960  07FC                     end_of_initialization:	
   961                           ;End of C runtime variable initialization code
   962                           
   963  07FC                     __end_of__initialization:
   964  07FC  0183               	clrf	3
   965  07FD  120A  118A  2C38   	ljmp	_main	;jump to C main() function
   966                           
   967                           	psect	bssBANK0
   968  003D                     __pbssBANK0:
   969  003D                     _node:
   970  003D                     	ds	5
   971  0042                     _RF24_attr_config:
   972  0042                     	ds	1
   973  0043                     _RF24_attr_status:
   974  0043                     	ds	1
   975  0044                     _networkInfo:
   976  0044                     	ds	6
   977                           
   978                           	psect	dataBANK0
   979  004A                     __pdataBANK0:
   980  004A                     _network_pipe:
   981  004A                     	ds	5
   982                           
   983                           	psect	bssBANK1
   984  00A0                     __pbssBANK1:
   985  00A0                     _buffer_rx:
   986  00A0                     	ds	32
   987  00C0                     _buffer_tx:
   988  00C0                     	ds	32
   989                           
   990                           	psect	clrtext
   991  0CF5                     clear_ram0:	
   992                           ;	Called with FSR containing the base address, and
   993                           ;	W with the last address+1
   994                           
   995  0CF5  0064               	clrwdt	;clear the watchdog before getting into this loop
   996  0CF6                     clrloop0:
   997  0CF6  0180               	clrf	0	;clear RAM location pointed to by FSR
   998  0CF7  0A84               	incf	4,f	;increment pointer
   999  0CF8  0604               	xorwf	4,w	;XOR with final address
  1000  0CF9  1903               	btfsc	3,2	;have we reached the end yet?
  1001  0CFA  3400               	retlw	0	;all done for this memory range, return
  1002  0CFB  0604               	xorwf	4,w	;XOR again to restore value
  1003  0CFC  2CF6               	goto	clrloop0	;do the next byte
  1004                           
  1005                           	psect	cstackCOMMON
  1006  0070                     __pcstackCOMMON:
  1007  0070                     ?_SPI_initialize:
  1008  0070                     ??_SPI_initialize:	
  1009                           ; 1 bytes @ 0x0
  1010                           
  1011  0070                     ?_Network_begin:	
  1012                           ; 1 bytes @ 0x0
  1013                           
  1014  0070                     ?_internet_setChannel:	
  1015                           ; 1 bytes @ 0x0
  1016                           
  1017  0070                     ?_internet_setNetworkPipe:	
  1018                           ; 1 bytes @ 0x0
  1019                           
  1020  0070                     ?_internet_setAddress:	
  1021                           ; 1 bytes @ 0x0
  1022                           
  1023  0070                     ?_memcpy:	
  1024                           ; 1 bytes @ 0x0
  1025                           
  1026  0070                     ?_RF24_isChipConnected:	
  1027                           ; 1 bytes @ 0x0
  1028                           
  1029  0070                     ?_internet_process:	
  1030                           ; 1 bytes @ 0x0
  1031                           
  1032  0070                     ?_Serial_write:	
  1033                           ; 1 bytes @ 0x0
  1034                           
  1035  0070                     ??_Serial_write:	
  1036                           ; 1 bytes @ 0x0
  1037                           
  1038  0070                     ?__$_logline_int:	
  1039                           ; 1 bytes @ 0x0
  1040                           
  1041  0070                     ?_RF24_setChannel:	
  1042                           ; 1 bytes @ 0x0
  1043                           
  1044  0070                     ?_RF24_getDynamicPayloadSize:	
  1045                           ; 1 bytes @ 0x0
  1046                           
  1047  0070                     ?_RF24_available:	
  1048                           ; 1 bytes @ 0x0
  1049                           
  1050  0070                     ?_internet_calculateMask:	
  1051                           ; 1 bytes @ 0x0
  1052                           
  1053  0070                     ??_internet_calculateMask:	
  1054                           ; 1 bytes @ 0x0
  1055                           
  1056  0070                     ?_internet_hasChild:	
  1057                           ; 1 bytes @ 0x0
  1058                           
  1059  0070                     ??_internet_hasChild:	
  1060                           ; 1 bytes @ 0x0
  1061                           
  1062  0070                     ?_RF24_openWritingPipe:	
  1063                           ; 1 bytes @ 0x0
  1064                           
  1065  0070                     ?_RF24_stopListening:	
  1066                           ; 1 bytes @ 0x0
  1067                           
  1068  0070                     ?_RF24_startListening:	
  1069                           ; 1 bytes @ 0x0
  1070                           
  1071  0070                     ?_RF24_begin:	
  1072                           ; 1 bytes @ 0x0
  1073                           
  1074  0070                     ?_RF24_setAddressWidth:	
  1075                           ; 1 bytes @ 0x0
  1076                           
  1077  0070                     ?_RF24_enableDynamicPayloads:	
  1078                           ; 1 bytes @ 0x0
  1079                           
  1080  0070                     ?_RF24_setDataRate:	
  1081                           ; 1 bytes @ 0x0
  1082                           
  1083  0070                     ?_RF24_setCRCLength:	
  1084                           ; 1 bytes @ 0x0
  1085                           
  1086  0070                     ?_RF24_setAutoAck:	
  1087                           ; 1 bytes @ 0x0
  1088                           
  1089  0070                     ?_RF24_setPayloadSize:	
  1090                           ; 1 bytes @ 0x0
  1091                           
  1092  0070                     ?_SPI_exchangeByte:	
  1093                           ; 1 bytes @ 0x0
  1094                           
  1095  0070                     ??_SPI_exchangeByte:	
  1096                           ; 1 bytes @ 0x0
  1097                           
  1098  0070                     ?_RF24_setPALevel:	
  1099                           ; 1 bytes @ 0x0
  1100                           
  1101  0070                     ?_RF24_flush_rx:	
  1102                           ; 1 bytes @ 0x0
  1103                           
  1104  0070                     ?_RF24_flush_tx:	
  1105                           ; 1 bytes @ 0x0
  1106                           
  1107  0070                     ?_RF24_powerUp:	
  1108                           ; 1 bytes @ 0x0
  1109                           
  1110  0070                     ?_main:	
  1111                           ; 1 bytes @ 0x0
  1112                           
  1113  0070                     ?_RF24_read_register:	
  1114                           ; 1 bytes @ 0x0
  1115                           
  1116  0070                     ?_RF24_get_status:	
  1117                           ; 1 bytes @ 0x0
  1118                           
  1119  0070                     ?___lbdiv:	
  1120                           ; 1 bytes @ 0x0
  1121                           
  1122  0070                     ?___awdiv:	
  1123                           ; 1 bytes @ 0x0
  1124                           
  1125  0070                     ?___aldiv:	
  1126                           ; 2 bytes @ 0x0
  1127                           
  1128  0070                     internet_calculateMask@address:	
  1129                           ; 4 bytes @ 0x0
  1130                           
  1131  0070                     SPI_exchangeByte@byte:	
  1132                           ; 1 bytes @ 0x0
  1133                           
  1134  0070                     Serial_write@data:	
  1135                           ; 1 bytes @ 0x0
  1136                           
  1137  0070                     ___lbdiv@divisor:	
  1138                           ; 1 bytes @ 0x0
  1139                           
  1140  0070                     ___awdiv@divisor:	
  1141                           ; 1 bytes @ 0x0
  1142                           
  1143  0070                     memcpy@s1:	
  1144                           ; 2 bytes @ 0x0
  1145                           
  1146  0070                     ___aldiv@divisor:	
  1147                           ; 2 bytes @ 0x0
  1148                           
  1149                           
  1150                           ; 4 bytes @ 0x0
  1151  0070                     	ds	1
  1152  0071                     ?__$_logline_str:
  1153  0071                     ?_RF24_read_n_register:	
  1154                           ; 1 bytes @ 0x1
  1155                           
  1156  0071                     ??_RF24_read_register:	
  1157                           ; 1 bytes @ 0x1
  1158                           
  1159  0071                     ?_RF24_write_n_register:	
  1160                           ; 1 bytes @ 0x1
  1161                           
  1162  0071                     ??_RF24_get_status:	
  1163                           ; 1 bytes @ 0x1
  1164                           
  1165  0071                     ??___lbdiv:	
  1166                           ; 1 bytes @ 0x1
  1167                           
  1168  0071                     internet_calculateMask@mask:	
  1169                           ; 1 bytes @ 0x1
  1170                           
  1171  0071                     internet_hasChild@address:	
  1172                           ; 1 bytes @ 0x1
  1173                           
  1174  0071                     RF24_read_n_register@buf:	
  1175                           ; 1 bytes @ 0x1
  1176                           
  1177  0071                     RF24_write_n_register@buffer:	
  1178                           ; 1 bytes @ 0x1
  1179                           
  1180  0071                     __$_logline_str@string:	
  1181                           ; 2 bytes @ 0x1
  1182                           
  1183                           
  1184                           ; 2 bytes @ 0x1
  1185  0071                     	ds	1
  1186  0072                     ??_RF24_available:
  1187  0072                     RF24_read_n_register@len:	
  1188                           ; 1 bytes @ 0x2
  1189                           
  1190  0072                     RF24_read_register@mnemonic_addr:	
  1191                           ; 1 bytes @ 0x2
  1192                           
  1193  0072                     ___lbdiv@dividend:	
  1194                           ; 1 bytes @ 0x2
  1195                           
  1196  0072                     ___awdiv@dividend:	
  1197                           ; 1 bytes @ 0x2
  1198                           
  1199  0072                     memcpy@n:	
  1200                           ; 2 bytes @ 0x2
  1201                           
  1202                           
  1203                           ; 2 bytes @ 0x2
  1204  0072                     	ds	1
  1205  0073                     ??__$_logline_str:
  1206  0073                     ??_RF24_read_n_register:	
  1207                           ; 1 bytes @ 0x3
  1208                           
  1209  0073                     RF24_read_register@result:	
  1210                           ; 1 bytes @ 0x3
  1211                           
  1212  0073                     RF24_write_n_register@length:	
  1213                           ; 1 bytes @ 0x3
  1214                           
  1215  0073                     ___lbdiv@counter:	
  1216                           ; 1 bytes @ 0x3
  1217                           
  1218                           
  1219                           ; 1 bytes @ 0x3
  1220  0073                     	ds	1
  1221  0074                     ??_memcpy:
  1222  0074                     ??_RF24_isChipConnected:	
  1223                           ; 1 bytes @ 0x4
  1224                           
  1225  0074                     ?_RF24_getPALevel:	
  1226                           ; 1 bytes @ 0x4
  1227                           
  1228  0074                     ??_RF24_write_n_register:	
  1229                           ; 1 bytes @ 0x4
  1230                           
  1231  0074                     ?_RF24_write_register:	
  1232                           ; 1 bytes @ 0x4
  1233                           
  1234  0074                     ??___awdiv:	
  1235                           ; 1 bytes @ 0x4
  1236                           
  1237  0074                     RF24_read_n_register@mnemonic_addr:	
  1238                           ; 1 bytes @ 0x4
  1239                           
  1240  0074                     RF24_write_register@value:	
  1241                           ; 1 bytes @ 0x4
  1242                           
  1243  0074                     RF24_available@pipe:	
  1244                           ; 1 bytes @ 0x4
  1245                           
  1246  0074                     __$_logline_str@limit:	
  1247                           ; 1 bytes @ 0x4
  1248                           
  1249  0074                     ___lbdiv@quotient:	
  1250                           ; 1 bytes @ 0x4
  1251                           
  1252  0074                     ___aldiv@dividend:	
  1253                           ; 1 bytes @ 0x4
  1254                           
  1255                           
  1256                           ; 4 bytes @ 0x4
  1257  0074                     	ds	1
  1258  0075                     ??_RF24_getPALevel:
  1259  0075                     ??_RF24_write_register:	
  1260                           ; 1 bytes @ 0x5
  1261                           
  1262  0075                     ?___awmod:	
  1263                           ; 1 bytes @ 0x5
  1264                           
  1265  0075                     RF24_write_n_register@mnemonic_addr:	
  1266                           ; 2 bytes @ 0x5
  1267                           
  1268  0075                     RF24_isChipConnected@width:	
  1269                           ; 1 bytes @ 0x5
  1270                           
  1271  0075                     ___awdiv@counter:	
  1272                           ; 1 bytes @ 0x5
  1273                           
  1274  0075                     memcpy@tmp:	
  1275                           ; 1 bytes @ 0x5
  1276                           
  1277  0075                     ___awmod@divisor:	
  1278                           ; 1 bytes @ 0x5
  1279                           
  1280                           
  1281                           ; 2 bytes @ 0x5
  1282  0075                     	ds	1
  1283  0076                     ??_RF24_openWritingPipe:
  1284  0076                     RF24_write_register@mnemonic_addr:	
  1285                           ; 1 bytes @ 0x6
  1286                           
  1287  0076                     ___awdiv@sign:	
  1288                           ; 1 bytes @ 0x6
  1289                           
  1290  0076                     memcpy@s:	
  1291                           ; 1 bytes @ 0x6
  1292                           
  1293                           
  1294                           ; 2 bytes @ 0x6
  1295  0076                     	ds	1
  1296  0077                     ??_RF24_setChannel:
  1297  0077                     ?_RF24_read:	
  1298                           ; 1 bytes @ 0x7
  1299                           
  1300  0077                     ?_RF24_openReadingPipe:	
  1301                           ; 1 bytes @ 0x7
  1302                           
  1303  0077                     ??_RF24_stopListening:	
  1304                           ; 1 bytes @ 0x7
  1305                           
  1306  0077                     ??_RF24_startListening:	
  1307                           ; 1 bytes @ 0x7
  1308                           
  1309  0077                     ??_RF24_setAddressWidth:	
  1310                           ; 1 bytes @ 0x7
  1311                           
  1312  0077                     ??_RF24_enableDynamicPayloads:	
  1313                           ; 1 bytes @ 0x7
  1314                           
  1315  0077                     ??_RF24_setDataRate:	
  1316                           ; 1 bytes @ 0x7
  1317                           
  1318  0077                     ??_RF24_setCRCLength:	
  1319                           ; 1 bytes @ 0x7
  1320                           
  1321  0077                     ??_RF24_setAutoAck:	
  1322                           ; 1 bytes @ 0x7
  1323                           
  1324  0077                     ??_RF24_setPayloadSize:	
  1325                           ; 1 bytes @ 0x7
  1326                           
  1327  0077                     ?_RF24_setRetries:	
  1328                           ; 1 bytes @ 0x7
  1329                           
  1330  0077                     ??_RF24_setPALevel:	
  1331                           ; 1 bytes @ 0x7
  1332                           
  1333  0077                     ??_RF24_flush_rx:	
  1334                           ; 1 bytes @ 0x7
  1335                           
  1336  0077                     ??_RF24_flush_tx:	
  1337                           ; 1 bytes @ 0x7
  1338                           
  1339  0077                     ??_RF24_powerUp:	
  1340                           ; 1 bytes @ 0x7
  1341                           
  1342  0077                     RF24_read@len:	
  1343                           ; 1 bytes @ 0x7
  1344                           
  1345  0077                     RF24_openWritingPipe@address:	
  1346                           ; 1 bytes @ 0x7
  1347                           
  1348  0077                     RF24_setRetries@count:	
  1349                           ; 1 bytes @ 0x7
  1350                           
  1351  0077                     RF24_openReadingPipe@address:	
  1352                           ; 1 bytes @ 0x7
  1353                           
  1354  0077                     ___awdiv@quotient:	
  1355                           ; 2 bytes @ 0x7
  1356                           
  1357  0077                     ___awmod@dividend:	
  1358                           ; 2 bytes @ 0x7
  1359                           
  1360                           
  1361                           ; 2 bytes @ 0x7
  1362  0077                     	ds	1
  1363  0078                     ??_RF24_getDynamicPayloadSize:
  1364  0078                     ??_RF24_read:	
  1365                           ; 1 bytes @ 0x8
  1366                           
  1367  0078                     ?_RF24_write:	
  1368                           ; 1 bytes @ 0x8
  1369                           
  1370  0078                     ??_RF24_setRetries:	
  1371                           ; 1 bytes @ 0x8
  1372                           
  1373  0078                     ??___aldiv:	
  1374                           ; 1 bytes @ 0x8
  1375                           
  1376  0078                     RF24_setPayloadSize@size:	
  1377                           ; 1 bytes @ 0x8
  1378                           
  1379  0078                     RF24_write@len:	
  1380                           ; 1 bytes @ 0x8
  1381                           
  1382  0078                     RF24_setAutoAck@enable:	
  1383                           ; 1 bytes @ 0x8
  1384                           
  1385  0078                     RF24_setDataRate@speed:	
  1386                           ; 1 bytes @ 0x8
  1387                           
  1388  0078                     RF24_setCRCLength@length:	
  1389                           ; 1 bytes @ 0x8
  1390                           
  1391  0078                     RF24_setChannel@channel:	
  1392                           ; 1 bytes @ 0x8
  1393                           
  1394  0078                     RF24_setAddressWidth@w:	
  1395                           ; 1 bytes @ 0x8
  1396                           
  1397  0078                     memcpy@d:	
  1398                           ; 1 bytes @ 0x8
  1399                           
  1400                           
  1401                           ; 1 bytes @ 0x8
  1402  0078                     	ds	1
  1403  0079                     ??_internet_setChannel:
  1404  0079                     ??_RF24_openReadingPipe:	
  1405                           ; 1 bytes @ 0x9
  1406                           
  1407  0079                     ??_RF24_write:	
  1408                           ; 1 bytes @ 0x9
  1409                           
  1410  0079                     ??___awmod:	
  1411                           ; 1 bytes @ 0x9
  1412                           
  1413  0079                     internet_setChannel@channel:	
  1414                           ; 1 bytes @ 0x9
  1415                           
  1416  0079                     RF24_setPALevel@setup:	
  1417                           ; 1 bytes @ 0x9
  1418                           
  1419  0079                     RF24_setDataRate@setup:	
  1420                           ; 1 bytes @ 0x9
  1421                           
  1422  0079                     memcpy@d1:	
  1423                           ; 1 bytes @ 0x9
  1424                           
  1425  0079                     Serial_begin@x:	
  1426                           ; 1 bytes @ 0x9
  1427                           
  1428                           
  1429                           ; 2 bytes @ 0x9
  1430  0079                     	ds	1
  1431  007A                     _RF24_setPALevel$598:
  1432  007A                     RF24_write@buf:	
  1433                           ; 1 bytes @ 0xA
  1434                           
  1435  007A                     RF24_getDynamicPayloadSize@result:	
  1436                           ; 1 bytes @ 0xA
  1437                           
  1438  007A                     RF24_read@buf:	
  1439                           ; 1 bytes @ 0xA
  1440                           
  1441  007A                     ___awmod@counter:	
  1442                           ; 1 bytes @ 0xA
  1443                           
  1444                           
  1445                           ; 1 bytes @ 0xA
  1446  007A                     	ds	1
  1447  007B                     RF24_setPALevel@level:
  1448  007B                     RF24_openReadingPipe@child:	
  1449                           ; 1 bytes @ 0xB
  1450                           
  1451  007B                     RF24_setRetries@delay:	
  1452                           ; 1 bytes @ 0xB
  1453                           
  1454  007B                     ___awmod@sign:	
  1455                           ; 1 bytes @ 0xB
  1456                           
  1457                           
  1458                           ; 1 bytes @ 0xB
  1459  007B                     	ds	1
  1460  007C                     ??_Network_begin:
  1461  007C                     ??_internet_setNetworkPipe:	
  1462                           ; 1 bytes @ 0xC
  1463                           
  1464  007C                     ??_internet_relay:	
  1465                           ; 1 bytes @ 0xC
  1466                           
  1467  007C                     transport_udp_process@payload:	
  1468                           ; 1 bytes @ 0xC
  1469                           
  1470                           
  1471                           ; 1 bytes @ 0xC
  1472  007C                     	ds	1
  1473  007D                     ??_internet_tx:
  1474  007D                     transport_udp_process@data:	
  1475                           ; 1 bytes @ 0xD
  1476                           
  1477  007D                     internet_setNetworkPipe@pipe:	
  1478                           ; 1 bytes @ 0xD
  1479                           
  1480                           
  1481                           ; 1 bytes @ 0xD
  1482  007D                     	ds	1
  1483                           
  1484                           	psect	cstackBANK0
  1485  0020                     __pcstackBANK0:
  1486  0020                     ??_internet_setAddress:
  1487  0020                     ??__$_logline_int:	
  1488                           ; 1 bytes @ 0x0
  1489                           
  1490  0020                     ?_internet_relay:	
  1491                           ; 1 bytes @ 0x0
  1492                           
  1493  0020                     ??_RF24_begin:	
  1494                           ; 1 bytes @ 0x0
  1495                           
  1496  0020                     internet_relay@size:	
  1497                           ; 1 bytes @ 0x0
  1498                           
  1499  0020                     ___aldiv@counter:	
  1500                           ; 1 bytes @ 0x0
  1501                           
  1502                           
  1503                           ; 1 bytes @ 0x0
  1504  0020                     	ds	1
  1505  0021                     internet_relay@dstMask:
  1506  0021                     ___aldiv@sign:	
  1507                           ; 1 bytes @ 0x1
  1508                           
  1509                           
  1510                           ; 1 bytes @ 0x1
  1511  0021                     	ds	1
  1512  0022                     internet_relay@packetHeader:
  1513  0022                     internet_setAddress@address:	
  1514                           ; 1 bytes @ 0x2
  1515                           
  1516  0022                     ___aldiv@quotient:	
  1517                           ; 1 bytes @ 0x2
  1518                           
  1519                           
  1520                           ; 4 bytes @ 0x2
  1521  0022                     	ds	1
  1522  0023                     internet_relay@payload:
  1523  0023                     __$_logline_int$765:	
  1524                           ; 1 bytes @ 0x3
  1525                           
  1526                           
  1527                           ; 2 bytes @ 0x3
  1528  0023                     	ds	1
  1529  0024                     ?_internet_tx:
  1530  0024                     internet_tx@size:	
  1531                           ; 1 bytes @ 0x4
  1532                           
  1533                           
  1534                           ; 1 bytes @ 0x4
  1535  0024                     	ds	1
  1536  0025                     internet_tx@packetHeader:
  1537  0025                     __$_logline_int$766:	
  1538                           ; 1 bytes @ 0x5
  1539                           
  1540                           
  1541                           ; 2 bytes @ 0x5
  1542  0025                     	ds	1
  1543  0026                     ?_Serial_begin:
  1544  0026                     internet_tx@payload:	
  1545                           ; 1 bytes @ 0x6
  1546                           
  1547  0026                     Serial_begin@baudrate:	
  1548                           ; 1 bytes @ 0x6
  1549                           
  1550                           
  1551                           ; 4 bytes @ 0x6
  1552  0026                     	ds	1
  1553  0027                     ?_transport_udp_tx:
  1554  0027                     transport_udp_tx@size:	
  1555                           ; 1 bytes @ 0x7
  1556                           
  1557  0027                     __$_logline_int@v:	
  1558                           ; 1 bytes @ 0x7
  1559                           
  1560                           
  1561                           ; 1 bytes @ 0x7
  1562  0027                     	ds	1
  1563  0028                     transport_udp_tx@destination:
  1564  0028                     __$_logline_int@t:	
  1565                           ; 1 bytes @ 0x8
  1566                           
  1567                           
  1568                           ; 1 bytes @ 0x8
  1569  0028                     	ds	1
  1570  0029                     ?_transport_udp_process:
  1571  0029                     transport_udp_process@size:	
  1572                           ; 1 bytes @ 0x9
  1573                           
  1574  0029                     transport_udp_tx@sourcePort:	
  1575                           ; 1 bytes @ 0x9
  1576                           
  1577                           
  1578                           ; 1 bytes @ 0x9
  1579  0029                     	ds	1
  1580  002A                     ??_Serial_begin:
  1581  002A                     transport_udp_process@port:	
  1582                           ; 1 bytes @ 0xA
  1583                           
  1584  002A                     transport_udp_tx@destinationPort:	
  1585                           ; 1 bytes @ 0xA
  1586                           
  1587                           
  1588                           ; 1 bytes @ 0xA
  1589  002A                     	ds	1
  1590  002B                     ??_transport_udp_tx:
  1591  002B                     ??_transport_udp_process:	
  1592                           ; 1 bytes @ 0xB
  1593                           
  1594                           
  1595                           ; 1 bytes @ 0xB
  1596  002B                     	ds	1
  1597  002C                     transport_udp_tx@payload:
  1598                           
  1599                           ; 1 bytes @ 0xC
  1600  002C                     	ds	1
  1601  002D                     transport_udp_tx@packetHeader:
  1602                           
  1603                           ; 1 bytes @ 0xD
  1604  002D                     	ds	1
  1605  002E                     ?_transport_udp_rx:
  1606  002E                     transport_udp_rx@size:	
  1607                           ; 1 bytes @ 0xE
  1608                           
  1609                           
  1610                           ; 1 bytes @ 0xE
  1611  002E                     	ds	1
  1612  002F                     ??_transport_udp_rx:
  1613                           
  1614                           ; 1 bytes @ 0xF
  1615  002F                     	ds	2
  1616  0031                     transport_udp_rx@packetHeader:
  1617                           
  1618                           ; 1 bytes @ 0x11
  1619  0031                     	ds	1
  1620  0032                     transport_udp_rx@payload:
  1621                           
  1622                           ; 1 bytes @ 0x12
  1623  0032                     	ds	1
  1624  0033                     ?_internet_rx:
  1625  0033                     internet_rx@size:	
  1626                           ; 1 bytes @ 0x13
  1627                           
  1628                           
  1629                           ; 1 bytes @ 0x13
  1630  0033                     	ds	1
  1631  0034                     ??_internet_rx:
  1632                           
  1633                           ; 1 bytes @ 0x14
  1634  0034                     	ds	2
  1635  0036                     internet_rx@packetHeader:
  1636                           
  1637                           ; 1 bytes @ 0x16
  1638  0036                     	ds	1
  1639  0037                     internet_rx@payload:
  1640                           
  1641                           ; 1 bytes @ 0x17
  1642  0037                     	ds	1
  1643  0038                     ??_internet_process:
  1644                           
  1645                           ; 1 bytes @ 0x18
  1646  0038                     	ds	1
  1647  0039                     internet_process@size:
  1648                           
  1649                           ; 1 bytes @ 0x19
  1650  0039                     	ds	1
  1651  003A                     ??_main:
  1652                           
  1653                           ; 1 bytes @ 0x1A
  1654  003A                     	ds	3
  1655                           
  1656                           	psect	maintext
  1657  0438                     __pmaintext:	
  1658 ;;
  1659 ;;Main: autosize = 0, tempsize = 3, incstack = 0, save=0
  1660 ;;
  1661 ;; *************** function _main *****************
  1662 ;; Defined at:
  1663 ;;		line 24 in file "C:/Users/abdal/Desktop/Embedded-shs/Embedded-shs/app/src/main.c"
  1664 ;; Parameters:    Size  Location     Type
  1665 ;;		None
  1666 ;; Auto vars:     Size  Location     Type
  1667 ;;		None
  1668 ;; Return value:  Size  Location     Type
  1669 ;;                  1    wreg      void 
  1670 ;; Registers used:
  1671 ;;		wreg, fsr0l, fsr0h, status,2, status,0, btemp+1, pclath, cstack
  1672 ;; Tracked objects:
  1673 ;;		On entry : B00/0
  1674 ;;		On exit  : 0/0
  1675 ;;		Unchanged: 0/0
  1676 ;; Data sizes:     COMMON   BANK0   BANK1   BANK3   BANK2
  1677 ;;      Params:         0       0       0       0       0
  1678 ;;      Locals:         0       0       0       0       0
  1679 ;;      Temps:          0       3       0       0       0
  1680 ;;      Totals:         0       3       0       0       0
  1681 ;;Total ram usage:        3 bytes
  1682 ;; Hardware stack levels required when called: 7
  1683 ;; This function calls:
  1684 ;;		_Network_begin
  1685 ;;		_RF24_isChipConnected
  1686 ;;		_SPI_initialize
  1687 ;;		_Serial_begin
  1688 ;;		_internet_process
  1689 ;;		_internet_setAddress
  1690 ;;		_internet_setChannel
  1691 ;;		_internet_setNetworkPipe
  1692 ;;		_memcpy
  1693 ;;		_transport_udp_tx
  1694 ;; This function is called by:
  1695 ;;		Startup code after reset
  1696 ;; This function uses a non-reentrant model
  1697 ;;
  1698                           
  1699  0438                     _main:	
  1700                           ;psect for function _main
  1701                           
  1702  0438                     l3172:	
  1703                           ;incstack = 0
  1704                           ; Regs used in _main: [wreg-fsr0h+status,2+status,0+btemp+1+pclath+cstack]
  1705                           
  1706                           
  1707                           ;C:/Users/abdal/Desktop/Embedded-shs/Embedded-shs/app/src/main.c: 26:         internet_p
      +                          rocess();
  1708  0438  30FF               	movlw	255
  1709  0439  1683               	bsf	3,5	;RP0=1, select bank1
  1710  043A  1303               	bcf	3,6	;RP1=0, select bank1
  1711  043B  0086               	movwf	6	;volatile
  1712  043C                     l3174:
  1713                           
  1714                           ;C:/Users/abdal/Desktop/Embedded-shs/Embedded-shs/app/src/main.c: 27:     }
  1715  043C  1088               	bcf	8,1	;volatile
  1716  043D                     l3176:
  1717                           
  1718                           ;C:/Users/abdal/Desktop/Embedded-shs/Embedded-shs/app/src/main.c: 28: }
  1719  043D  1381               	bcf	1,7	;volatile
  1720  043E                     l3178:
  1721                           
  1722                           ;C:/Users/abdal/Desktop/Embedded-shs/Embedded-shs/app/src/main.c: 30: void transport_udp
      +                          _process(uint8_t *payload, uint8_t size, uint8_t port)
  1723  043E  3000               	movlw	0
  1724  043F  1283               	bcf	3,5	;RP0=0, select bank0
  1725  0440  1303               	bcf	3,6	;RP1=0, select bank0
  1726  0441  00A9               	movwf	Serial_begin@baudrate+3
  1727  0442  3000               	movlw	0
  1728  0443  00A8               	movwf	Serial_begin@baudrate+2
  1729  0444  3025               	movlw	37
  1730  0445  00A7               	movwf	Serial_begin@baudrate+1
  1731  0446  3080               	movlw	128
  1732  0447  00A6               	movwf	Serial_begin@baudrate
  1733  0448  120A  118A  2605  120A  118A  	fcall	_Serial_begin
  1734  044D                     l3180:
  1735                           
  1736                           ;C:/Users/abdal/Desktop/Embedded-shs/Embedded-shs/app/src/main.c: 31: {
  1737  044D  120A  158A  2565  120A  118A  	fcall	_SPI_initialize
  1738  0452                     l3182:
  1739                           
  1740                           ;C:/Users/abdal/Desktop/Embedded-shs/Embedded-shs/app/src/main.c: 32:     uint8_t *data 
      +                          = buffer_rx + sizeof(struct UDPPacket);
  1741  0452  120A  118A  21C0  120A  118A  	fcall	_Network_begin
  1742  0457                     l3184:
  1743                           
  1744                           ;C:/Users/abdal/Desktop/Embedded-shs/Embedded-shs/app/src/main.c: 33:     if (*data == '
      +                          h')
  1745  0457  3073               	movlw	115
  1746  0458  120A  158A  24ED  120A  118A  	fcall	_internet_setChannel
  1747  045D                     l3186:
  1748                           
  1749                           ;C:/Users/abdal/Desktop/Embedded-shs/Embedded-shs/app/src/main.c: 34:     {
  1750  045D  304A               	movlw	(low (_network_pipe| 0))& (0+255)
  1751  045E  120A  158A  268D  120A  118A  	fcall	_internet_setNetworkPipe
  1752  0463                     l3188:
  1753                           
  1754                           ;C:/Users/abdal/Desktop/Embedded-shs/Embedded-shs/app/src/main.c: 35:         RD1 = ~RD1
      +                          ;
  1755  0463  3002               	movlw	2
  1756  0464  120A  118A  210A  120A  118A  	fcall	_internet_setAddress
  1757  0469                     l3190:
  1758                           
  1759                           ;C:/Users/abdal/Desktop/Embedded-shs/Embedded-shs/app/src/main.c: 36:         _delay((un
      +                          signed long)((500)*(16000000/4000.0)));
  1760  0469  3007               	movlw	low (STR_1| (0+32768))
  1761  046A  00F0               	movwf	memcpy@s1
  1762  046B  3089               	movlw	high (STR_1| (0+32768))
  1763  046C  00F1               	movwf	memcpy@s1+1
  1764  046D  3003               	movlw	3
  1765  046E  00F2               	movwf	memcpy@n
  1766  046F  3000               	movlw	0
  1767  0470  00F3               	movwf	memcpy@n+1
  1768  0471  30C5               	movlw	(low ((_buffer_tx| 0+5)))& (0+255)
  1769  0472  120A  118A  20D2  120A  118A  	fcall	_memcpy
  1770  0477  2C8B               	goto	l3194
  1771  0478                     l3192:
  1772                           
  1773                           ;C:/Users/abdal/Desktop/Embedded-shs/Embedded-shs/app/src/main.c: 40: ;C:/Users/abdal/De
      +                          sktop/Embedded-shs/Embedded-shs/app/src/main.c: 41:     _$_logline_str((char *)"========
      +                          =RX========"); Serial_write((uint8_t)'\n');
  1774  0478  3002               	movlw	2
  1775  0479  1283               	bcf	3,5	;RP0=0, select bank0
  1776  047A  1303               	bcf	3,6	;RP1=0, select bank0
  1777  047B  0688               	xorwf	8,f
  1778                           
  1779                           ;C:/Users/abdal/Desktop/Embedded-shs/Embedded-shs/app/src/main.c: 42:     _$_logline_str
      +                          ((char *)"RX_SIZE"); Serial_write((uint8_t)'='); _$_logline_int((uint8_t)size); Serial_w
      +                          rite((uint8_t)'\n');
  1780  047C  3015               	movlw	21
  1781  047D  1283               	bcf	3,5	;RP0=0, select bank0
  1782  047E  1303               	bcf	3,6	;RP1=0, select bank0
  1783  047F  00BC               	movwf	??_main+2
  1784  0480  304B               	movlw	75
  1785  0481  00BB               	movwf	??_main+1
  1786  0482  30BD               	movlw	189
  1787  0483  00BA               	movwf	??_main
  1788  0484                     u2237:
  1789  0484  0BBA               	decfsz	??_main,f
  1790  0485  2C84               	goto	u2237
  1791  0486  0BBB               	decfsz	??_main+1,f
  1792  0487  2C84               	goto	u2237
  1793  0488  0BBC               	decfsz	??_main+2,f
  1794  0489  2C84               	goto	u2237
  1795  048A  2C8B               	nop2
  1796  048B                     l3194:
  1797                           
  1798                           ;C:/Users/abdal/Desktop/Embedded-shs/Embedded-shs/app/src/main.c: 39:     _$_logline_str
      +                          ((char *)data); Serial_write((uint8_t)'\n');
  1799  048B  120A  158A  25B6  120A  118A  	fcall	_RF24_isChipConnected
  1800  0490  3A00               	xorlw	0
  1801  0491  1903               	skipnz
  1802  0492  2C94               	goto	u2221
  1803  0493  2C95               	goto	u2220
  1804  0494                     u2221:
  1805  0494  2C78               	goto	l3192
  1806  0495                     u2220:
  1807  0495                     l3196:
  1808                           
  1809                           ;C:/Users/abdal/Desktop/Embedded-shs/Embedded-shs/app/src/main.c: 44: }
  1810  0495  3008               	movlw	8
  1811  0496  1283               	bcf	3,5	;RP0=0, select bank0
  1812  0497  1303               	bcf	3,6	;RP1=0, select bank0
  1813  0498  00BA               	movwf	??_main
  1814  0499  083A               	movf	??_main,w
  1815  049A  00A7               	movwf	transport_udp_tx@size
  1816  049B  01A8               	clrf	transport_udp_tx@destination
  1817  049C  0AA8               	incf	transport_udp_tx@destination,f
  1818  049D  3003               	movlw	3
  1819  049E  00BB               	movwf	??_main+1
  1820  049F  083B               	movf	??_main+1,w
  1821  04A0  00A9               	movwf	transport_udp_tx@sourcePort
  1822  04A1  3006               	movlw	6
  1823  04A2  00BC               	movwf	??_main+2
  1824  04A3  083C               	movf	??_main+2,w
  1825  04A4  00AA               	movwf	transport_udp_tx@destinationPort
  1826  04A5  30C0               	movlw	(low (_buffer_tx| 0))& (0+255)
  1827  04A6  120A  118A  206F  120A  118A  	fcall	_transport_udp_tx
  1828  04AB                     l3198:
  1829  04AB  3015               	movlw	21
  1830  04AC  1283               	bcf	3,5	;RP0=0, select bank0
  1831  04AD  1303               	bcf	3,6	;RP1=0, select bank0
  1832  04AE  00BC               	movwf	??_main+2
  1833  04AF  304B               	movlw	75
  1834  04B0  00BB               	movwf	??_main+1
  1835  04B1  30BD               	movlw	189
  1836  04B2  00BA               	movwf	??_main
  1837  04B3                     u2247:
  1838  04B3  0BBA               	decfsz	??_main,f
  1839  04B4  2CB3               	goto	u2247
  1840  04B5  0BBB               	decfsz	??_main+1,f
  1841  04B6  2CB3               	goto	u2247
  1842  04B7  0BBC               	decfsz	??_main+2,f
  1843  04B8  2CB3               	goto	u2247
  1844  04B9  2CBA               	nop2
  1845  04BA                     l3200:
  1846  04BA  120A  118A  2012  120A  118A  	fcall	_internet_process
  1847  04BF  2C8B               	goto	l3194
  1848  04C0  120A  118A  2800   	ljmp	start
  1849  04C3                     __end_of_main:
  1850                           
  1851                           	psect	text1
  1852  006F                     __ptext1:	
  1853 ;; *************** function _transport_udp_tx *****************
  1854 ;; Defined at:
  1855 ;;		line 3 in file "C:/Users/abdal/Desktop/Embedded-shs/Embedded-shs/libs/transport.c"
  1856 ;; Parameters:    Size  Location     Type
  1857 ;;  payload         1    wreg     PTR unsigned char 
  1858 ;;		 -> buffer_tx(32), 
  1859 ;;  size            1    7[BANK0 ] unsigned char 
  1860 ;;  destination     1    8[BANK0 ] unsigned char 
  1861 ;;  sourcePort      1    9[BANK0 ] unsigned char 
  1862 ;;  destinationP    1   10[BANK0 ] unsigned char 
  1863 ;; Auto vars:     Size  Location     Type
  1864 ;;  payload         1   12[BANK0 ] PTR unsigned char 
  1865 ;;		 -> buffer_tx(32), 
  1866 ;;  packetHeader    1   13[BANK0 ] PTR struct UDPPacket
  1867 ;;		 -> buffer_tx(32), 
  1868 ;; Return value:  Size  Location     Type
  1869 ;;                  1    wreg      void 
  1870 ;; Registers used:
  1871 ;;		wreg, fsr0l, fsr0h, status,2, status,0, btemp+1, pclath, cstack
  1872 ;; Tracked objects:
  1873 ;;		On entry : 0/0
  1874 ;;		On exit  : 0/0
  1875 ;;		Unchanged: 0/0
  1876 ;; Data sizes:     COMMON   BANK0   BANK1   BANK3   BANK2
  1877 ;;      Params:         0       4       0       0       0
  1878 ;;      Locals:         0       2       0       0       0
  1879 ;;      Temps:          0       1       0       0       0
  1880 ;;      Totals:         0       7       0       0       0
  1881 ;;Total ram usage:        7 bytes
  1882 ;; Hardware stack levels used: 1
  1883 ;; Hardware stack levels required when called: 6
  1884 ;; This function calls:
  1885 ;;		_internet_tx
  1886 ;; This function is called by:
  1887 ;;		_main
  1888 ;; This function uses a non-reentrant model
  1889 ;;
  1890                           
  1891  006F                     _transport_udp_tx:	
  1892                           ;psect for function _transport_udp_tx
  1893                           
  1894                           
  1895                           ;incstack = 0
  1896                           ; Regs used in _transport_udp_tx: [wreg-fsr0h+status,2+status,0+btemp+1+pclath+cstack]
  1897                           ;transport_udp_tx@payload stored from wreg
  1898  006F  1283               	bcf	3,5	;RP0=0, select bank0
  1899  0070  1303               	bcf	3,6	;RP1=0, select bank0
  1900  0071  00AC               	movwf	transport_udp_tx@payload
  1901  0072                     l3150:
  1902                           
  1903                           ;C:/Users/abdal/Desktop/Embedded-shs/Embedded-shs/libs/transport.c: 3: void transport_ud
      +                          p_tx(uint8_t *payload, uint8_t size, uint8_t destination, uint8_t sourcePort, uint8_t de
      +                          stinationPort);C:/Users/abdal/Desktop/Embedded-shs/Embedded-shs/libs/transport.c: 4: {;C
      +                          :/Users/abdal/Desktop/Embedded-shs/Embedded-shs/libs/transport.c: 5:     struct UDPPacke
      +                          t *packetHeader = (struct UDPPacket *)payload;
  1904  0072  082C               	movf	transport_udp_tx@payload,w
  1905  0073  00AB               	movwf	??_transport_udp_tx
  1906  0074  082B               	movf	??_transport_udp_tx,w
  1907  0075  00AD               	movwf	transport_udp_tx@packetHeader
  1908  0076                     l3152:
  1909                           
  1910                           ;C:/Users/abdal/Desktop/Embedded-shs/Embedded-shs/libs/transport.c: 6:     packetHeader-
      +                          >protocol = 1;
  1911  0076  0A2D               	incf	transport_udp_tx@packetHeader,w
  1912  0077  0084               	movwf	4
  1913  0078  1383               	bcf	3,7	;select IRP bank0
  1914  0079  0180               	clrf	0
  1915  007A  0A80               	incf	0,f
  1916  007B                     l3154:
  1917                           
  1918                           ;C:/Users/abdal/Desktop/Embedded-shs/Embedded-shs/libs/transport.c: 7:     packetHeader-
      +                          >destination = destination;
  1919  007B  0828               	movf	transport_udp_tx@destination,w
  1920  007C  00AB               	movwf	??_transport_udp_tx
  1921  007D  082D               	movf	transport_udp_tx@packetHeader,w
  1922  007E  3E03               	addlw	3
  1923  007F  0084               	movwf	4
  1924  0080  082B               	movf	??_transport_udp_tx,w
  1925  0081  0080               	movwf	0
  1926  0082                     l3156:
  1927                           
  1928                           ;C:/Users/abdal/Desktop/Embedded-shs/Embedded-shs/libs/transport.c: 8:     packetHeader-
      +                          >sourcePort = sourcePort;
  1929  0082  082D               	movf	transport_udp_tx@packetHeader,w
  1930  0083  3E04               	addlw	4
  1931  0084  0084               	movwf	4
  1932  0085  0800               	movf	0,w
  1933  0086  0629               	xorwf	transport_udp_tx@sourcePort,w
  1934  0087  39F0               	andlw	-16
  1935  0088  0629               	xorwf	transport_udp_tx@sourcePort,w
  1936  0089  0080               	movwf	0
  1937  008A                     l3158:
  1938                           
  1939                           ;C:/Users/abdal/Desktop/Embedded-shs/Embedded-shs/libs/transport.c: 9:     packetHeader-
      +                          >destinationPort = destinationPort;
  1940  008A  082A               	movf	transport_udp_tx@destinationPort,w
  1941  008B  00AB               	movwf	??_transport_udp_tx
  1942  008C  082D               	movf	transport_udp_tx@packetHeader,w
  1943  008D  3E04               	addlw	4
  1944  008E  0084               	movwf	4
  1945  008F  0EAB               	swapf	??_transport_udp_tx,f
  1946  0090  0800               	movf	0,w
  1947  0091  062B               	xorwf	??_transport_udp_tx,w
  1948  0092  390F               	andlw	-241
  1949  0093  062B               	xorwf	??_transport_udp_tx,w
  1950  0094  0080               	movwf	0
  1951  0095                     l3160:
  1952                           
  1953                           ;C:/Users/abdal/Desktop/Embedded-shs/Embedded-shs/libs/transport.c: 10:     internet_tx(
      +                          payload, size);
  1954  0095  0827               	movf	transport_udp_tx@size,w
  1955  0096  00AB               	movwf	??_transport_udp_tx
  1956  0097  082B               	movf	??_transport_udp_tx,w
  1957  0098  00A4               	movwf	internet_tx@size
  1958  0099  082C               	movf	transport_udp_tx@payload,w
  1959  009A  120A  158A  26AD  120A  118A  	fcall	_internet_tx
  1960  009F                     l541:
  1961  009F  0008               	return
  1962  00A0                     __end_of_transport_udp_tx:
  1963                           
  1964                           	psect	text2
  1965  0EAD                     __ptext2:	
  1966 ;; *************** function _internet_tx *****************
  1967 ;; Defined at:
  1968 ;;		line 29 in file "C:/Users/abdal/Desktop/Embedded-shs/Embedded-shs/libs/internet.c"
  1969 ;; Parameters:    Size  Location     Type
  1970 ;;  payload         1    wreg     PTR unsigned char 
  1971 ;;		 -> buffer_tx(32), 
  1972 ;;  size            1    4[BANK0 ] unsigned char 
  1973 ;; Auto vars:     Size  Location     Type
  1974 ;;  payload         1    6[BANK0 ] PTR unsigned char 
  1975 ;;		 -> buffer_tx(32), 
  1976 ;;  packetHeader    1    5[BANK0 ] PTR struct Packet
  1977 ;;		 -> buffer_tx(32), 
  1978 ;; Return value:  Size  Location     Type
  1979 ;;                  1    wreg      void 
  1980 ;; Registers used:
  1981 ;;		wreg, fsr0l, fsr0h, status,2, status,0, btemp+1, pclath, cstack
  1982 ;; Tracked objects:
  1983 ;;		On entry : 0/0
  1984 ;;		On exit  : 0/0
  1985 ;;		Unchanged: 0/0
  1986 ;; Data sizes:     COMMON   BANK0   BANK1   BANK3   BANK2
  1987 ;;      Params:         0       1       0       0       0
  1988 ;;      Locals:         0       2       0       0       0
  1989 ;;      Temps:          1       0       0       0       0
  1990 ;;      Totals:         1       3       0       0       0
  1991 ;;Total ram usage:        4 bytes
  1992 ;; Hardware stack levels used: 1
  1993 ;; Hardware stack levels required when called: 5
  1994 ;; This function calls:
  1995 ;;		_internet_relay
  1996 ;; This function is called by:
  1997 ;;		_transport_udp_tx
  1998 ;; This function uses a non-reentrant model
  1999 ;;
  2000                           
  2001  0EAD                     _internet_tx:	
  2002                           ;psect for function _internet_tx
  2003                           
  2004                           
  2005                           ;incstack = 0
  2006                           ; Regs used in _internet_tx: [wreg-fsr0h+status,2+status,0+btemp+1+pclath+cstack]
  2007                           ;internet_tx@payload stored from wreg
  2008  0EAD  1283               	bcf	3,5	;RP0=0, select bank0
  2009  0EAE  1303               	bcf	3,6	;RP1=0, select bank0
  2010  0EAF  00A6               	movwf	internet_tx@payload
  2011  0EB0                     l3040:
  2012                           
  2013                           ;C:/Users/abdal/Desktop/Embedded-shs/Embedded-shs/libs/internet.c: 29: void internet_tx(
      +                          uint8_t *payload, uint8_t size);C:/Users/abdal/Desktop/Embedded-shs/Embedded-shs/libs/in
      +                          ternet.c: 30: {;C:/Users/abdal/Desktop/Embedded-shs/Embedded-shs/libs/internet.c: 32:   
      +                            struct Packet *packetHeader = (struct Packet *)payload;
  2014  0EB0  0826               	movf	internet_tx@payload,w
  2015  0EB1  00FD               	movwf	??_internet_tx
  2016  0EB2  087D               	movf	??_internet_tx,w
  2017  0EB3  00A5               	movwf	internet_tx@packetHeader
  2018  0EB4                     l3042:
  2019                           
  2020                           ;C:/Users/abdal/Desktop/Embedded-shs/Embedded-shs/libs/internet.c: 33:     packetHeader-
      +                          >ttl = 32;
  2021  0EB4  3020               	movlw	32
  2022  0EB5  00FD               	movwf	??_internet_tx
  2023  0EB6  0825               	movf	internet_tx@packetHeader,w
  2024  0EB7  0084               	movwf	4
  2025  0EB8  087D               	movf	??_internet_tx,w
  2026  0EB9  1383               	bcf	3,7	;select IRP bank0
  2027  0EBA  0080               	movwf	0
  2028  0EBB                     l3044:
  2029                           
  2030                           ;C:/Users/abdal/Desktop/Embedded-shs/Embedded-shs/libs/internet.c: 34:     packetHeader-
      +                          >source = node.address;
  2031  0EBB  083D               	movf	_node,w
  2032  0EBC  00FD               	movwf	??_internet_tx
  2033  0EBD  0825               	movf	internet_tx@packetHeader,w
  2034  0EBE  3E02               	addlw	2
  2035  0EBF  0084               	movwf	4
  2036  0EC0  087D               	movf	??_internet_tx,w
  2037  0EC1  0080               	movwf	0
  2038  0EC2                     l3046:
  2039                           
  2040                           ;C:/Users/abdal/Desktop/Embedded-shs/Embedded-shs/libs/internet.c: 35:     internet_rela
      +                          y(payload, size);
  2041  0EC2  0824               	movf	internet_tx@size,w
  2042  0EC3  00FD               	movwf	??_internet_tx
  2043  0EC4  087D               	movf	??_internet_tx,w
  2044  0EC5  00A0               	movwf	internet_relay@size
  2045  0EC6  0826               	movf	internet_tx@payload,w
  2046  0EC7  120A  118A  26DF  120A  158A  	fcall	_internet_relay
  2047  0ECC                     l236:
  2048  0ECC  0008               	return
  2049  0ECD                     __end_of_internet_tx:
  2050                           
  2051                           	psect	text3
  2052  0CED                     __ptext3:	
  2053 ;; *************** function _internet_setChannel *****************
  2054 ;; Defined at:
  2055 ;;		line 9 in file "C:/Users/abdal/Desktop/Embedded-shs/Embedded-shs/libs/internet.c"
  2056 ;; Parameters:    Size  Location     Type
  2057 ;;  channel         1    wreg     unsigned char 
  2058 ;; Auto vars:     Size  Location     Type
  2059 ;;  channel         1    9[COMMON] unsigned char 
  2060 ;; Return value:  Size  Location     Type
  2061 ;;                  1    wreg      void 
  2062 ;; Registers used:
  2063 ;;		wreg, status,2, status,0, pclath, cstack
  2064 ;; Tracked objects:
  2065 ;;		On entry : 0/0
  2066 ;;		On exit  : 0/0
  2067 ;;		Unchanged: 0/0
  2068 ;; Data sizes:     COMMON   BANK0   BANK1   BANK3   BANK2
  2069 ;;      Params:         0       0       0       0       0
  2070 ;;      Locals:         1       0       0       0       0
  2071 ;;      Temps:          0       0       0       0       0
  2072 ;;      Totals:         1       0       0       0       0
  2073 ;;Total ram usage:        1 bytes
  2074 ;; Hardware stack levels used: 1
  2075 ;; Hardware stack levels required when called: 3
  2076 ;; This function calls:
  2077 ;;		_RF24_setChannel
  2078 ;; This function is called by:
  2079 ;;		_main
  2080 ;; This function uses a non-reentrant model
  2081 ;;
  2082                           
  2083  0CED                     _internet_setChannel:	
  2084                           ;psect for function _internet_setChannel
  2085                           
  2086                           
  2087                           ;incstack = 0
  2088                           ; Regs used in _internet_setChannel: [wreg+status,2+status,0+pclath+cstack]
  2089                           ;internet_setChannel@channel stored from wreg
  2090  0CED  00F9               	movwf	internet_setChannel@channel
  2091  0CEE                     l3122:
  2092                           
  2093                           ;C:/Users/abdal/Desktop/Embedded-shs/Embedded-shs/libs/internet.c: 9: void internet_setC
      +                          hannel(uint8_t channel);C:/Users/abdal/Desktop/Embedded-shs/Embedded-shs/libs/internet.c
      +                          : 10: {;C:/Users/abdal/Desktop/Embedded-shs/Embedded-shs/libs/internet.c: 11:     RF24_s
      +                          etChannel(channel);
  2094  0CEE  0879               	movf	internet_setChannel@channel,w
  2095  0CEF  120A  158A  251F  120A  158A  	fcall	_RF24_setChannel
  2096  0CF4                     l224:
  2097  0CF4  0008               	return
  2098  0CF5                     __end_of_internet_setChannel:
  2099                           
  2100                           	psect	text4
  2101  010A                     __ptext4:	
  2102 ;; *************** function _internet_setAddress *****************
  2103 ;; Defined at:
  2104 ;;		line 123 in file "C:/Users/abdal/Desktop/Embedded-shs/Embedded-shs/libs/internet.c"
  2105 ;; Parameters:    Size  Location     Type
  2106 ;;  address         1    wreg     unsigned char 
  2107 ;; Auto vars:     Size  Location     Type
  2108 ;;  address         1    2[BANK0 ] unsigned char 
  2109 ;; Return value:  Size  Location     Type
  2110 ;;                  1    wreg      void 
  2111 ;; Registers used:
  2112 ;;		wreg, fsr0l, fsr0h, status,2, status,0, btemp+1, pclath, cstack
  2113 ;; Tracked objects:
  2114 ;;		On entry : 0/0
  2115 ;;		On exit  : 0/0
  2116 ;;		Unchanged: 0/0
  2117 ;; Data sizes:     COMMON   BANK0   BANK1   BANK3   BANK2
  2118 ;;      Params:         0       0       0       0       0
  2119 ;;      Locals:         0       1       0       0       0
  2120 ;;      Temps:          0       2       0       0       0
  2121 ;;      Totals:         0       3       0       0       0
  2122 ;;Total ram usage:        3 bytes
  2123 ;; Hardware stack levels used: 1
  2124 ;; Hardware stack levels required when called: 4
  2125 ;; This function calls:
  2126 ;;		_internet_calculateMask
  2127 ;;		_internet_setNetworkPipe
  2128 ;; This function is called by:
  2129 ;;		_main
  2130 ;; This function uses a non-reentrant model
  2131 ;;
  2132                           
  2133  010A                     _internet_setAddress:	
  2134                           ;psect for function _internet_setAddress
  2135                           
  2136                           
  2137                           ;incstack = 0
  2138                           ; Regs used in _internet_setAddress: [wreg-fsr0h+status,2+status,0+btemp+1+pclath+cstack
      +                          ]
  2139                           ;internet_setAddress@address stored from wreg
  2140  010A  1283               	bcf	3,5	;RP0=0, select bank0
  2141  010B  1303               	bcf	3,6	;RP1=0, select bank0
  2142  010C  00A2               	movwf	internet_setAddress@address
  2143  010D                     l3124:
  2144                           
  2145                           ;C:/Users/abdal/Desktop/Embedded-shs/Embedded-shs/libs/internet.c: 123: void internet_se
      +                          tAddress(uint8_t address);C:/Users/abdal/Desktop/Embedded-shs/Embedded-shs/libs/internet
      +                          .c: 124: {;C:/Users/abdal/Desktop/Embedded-shs/Embedded-shs/libs/internet.c: 125:     no
      +                          de.address = address;
  2146  010D  0822               	movf	internet_setAddress@address,w
  2147  010E  00A0               	movwf	??_internet_setAddress
  2148  010F  0820               	movf	??_internet_setAddress,w
  2149  0110  00BD               	movwf	_node
  2150  0111                     l3126:
  2151                           
  2152                           ;C:/Users/abdal/Desktop/Embedded-shs/Embedded-shs/libs/internet.c: 126:     node.mask = 
      +                          internet_calculateMask(address);
  2153  0111  0822               	movf	internet_setAddress@address,w
  2154  0112  120A  118A  2003  120A  118A  	fcall	_internet_calculateMask
  2155  0117  1283               	bcf	3,5	;RP0=0, select bank0
  2156  0118  1303               	bcf	3,6	;RP1=0, select bank0
  2157  0119  00A0               	movwf	??_internet_setAddress
  2158  011A  0820               	movf	??_internet_setAddress,w
  2159  011B  00BE               	movwf	_node+1
  2160  011C                     l3128:
  2161                           
  2162                           ;C:/Users/abdal/Desktop/Embedded-shs/Embedded-shs/libs/internet.c: 127:     node.routing
      +                          Mask = node.mask + 1;
  2163  011C  083E               	movf	_node+1,w
  2164  011D  3E01               	addlw	1
  2165  011E  00A0               	movwf	??_internet_setAddress
  2166  011F  0820               	movf	??_internet_setAddress,w
  2167  0120  00BF               	movwf	_node+2
  2168  0121                     l3130:
  2169                           
  2170                           ;C:/Users/abdal/Desktop/Embedded-shs/Embedded-shs/libs/internet.c: 128:     node.child0 
      +                          = (node.address & node.mask) | (node.routingMask << 1);
  2171  0121  083F               	movf	_node+2,w
  2172  0122  00A0               	movwf	??_internet_setAddress
  2173  0123  3001               	movlw	1
  2174  0124                     u2175:
  2175  0124  1003               	clrc
  2176  0125  0DA0               	rlf	??_internet_setAddress,f
  2177  0126  3EFF               	addlw	-1
  2178  0127  1D03               	skipz
  2179  0128  2924               	goto	u2175
  2180  0129  083E               	movf	_node+1,w
  2181  012A  053D               	andwf	_node,w
  2182  012B  0420               	iorwf	??_internet_setAddress,w
  2183  012C  00A1               	movwf	??_internet_setAddress+1
  2184  012D  0821               	movf	??_internet_setAddress+1,w
  2185  012E  00C0               	movwf	_node+3
  2186  012F                     l3132:
  2187                           
  2188                           ;C:/Users/abdal/Desktop/Embedded-shs/Embedded-shs/libs/internet.c: 129:     node.child1 
      +                          = (node.address & node.mask) | (node.routingMask << 1) | node.routingMask;
  2189  012F  083F               	movf	_node+2,w
  2190  0130  00A0               	movwf	??_internet_setAddress
  2191  0131  3001               	movlw	1
  2192  0132                     u2185:
  2193  0132  1003               	clrc
  2194  0133  0DA0               	rlf	??_internet_setAddress,f
  2195  0134  3EFF               	addlw	-1
  2196  0135  1D03               	skipz
  2197  0136  2932               	goto	u2185
  2198  0137  083E               	movf	_node+1,w
  2199  0138  053D               	andwf	_node,w
  2200  0139  0420               	iorwf	??_internet_setAddress,w
  2201  013A  043F               	iorwf	_node+2,w
  2202  013B  00A1               	movwf	??_internet_setAddress+1
  2203  013C  0821               	movf	??_internet_setAddress+1,w
  2204  013D  00C1               	movwf	_node+4
  2205  013E                     l3134:
  2206                           
  2207                           ;C:/Users/abdal/Desktop/Embedded-shs/Embedded-shs/libs/internet.c: 130:     internet_set
      +                          NetworkPipe(networkInfo.networkPipe);
  2208  013E  3044               	movlw	(low (_networkInfo| 0))& (0+255)
  2209  013F  120A  158A  268D  120A  118A  	fcall	_internet_setNetworkPipe
  2210  0144                     l263:
  2211  0144  0008               	return
  2212  0145                     __end_of_internet_setAddress:
  2213                           
  2214                           	psect	text5
  2215  0E8D                     __ptext5:	
  2216 ;; *************** function _internet_setNetworkPipe *****************
  2217 ;; Defined at:
  2218 ;;		line 23 in file "C:/Users/abdal/Desktop/Embedded-shs/Embedded-shs/libs/internet.c"
  2219 ;; Parameters:    Size  Location     Type
  2220 ;;  pipe            1    wreg     PTR unsigned char 
  2221 ;;		 -> networkInfo(6), network_pipe(5), 
  2222 ;; Auto vars:     Size  Location     Type
  2223 ;;  pipe            1   13[COMMON] PTR unsigned char 
  2224 ;;		 -> networkInfo(6), network_pipe(5), 
  2225 ;; Return value:  Size  Location     Type
  2226 ;;                  1    wreg      void 
  2227 ;; Registers used:
  2228 ;;		wreg, fsr0l, fsr0h, status,2, status,0, btemp+1, pclath, cstack
  2229 ;; Tracked objects:
  2230 ;;		On entry : 0/0
  2231 ;;		On exit  : 0/0
  2232 ;;		Unchanged: 0/0
  2233 ;; Data sizes:     COMMON   BANK0   BANK1   BANK3   BANK2
  2234 ;;      Params:         0       0       0       0       0
  2235 ;;      Locals:         1       0       0       0       0
  2236 ;;      Temps:          1       0       0       0       0
  2237 ;;      Totals:         2       0       0       0       0
  2238 ;;Total ram usage:        2 bytes
  2239 ;; Hardware stack levels used: 1
  2240 ;; Hardware stack levels required when called: 3
  2241 ;; This function calls:
  2242 ;;		_RF24_openReadingPipe
  2243 ;;		_memcpy
  2244 ;; This function is called by:
  2245 ;;		_main
  2246 ;;		_internet_setAddress
  2247 ;; This function uses a non-reentrant model
  2248 ;;
  2249                           
  2250  0E8D                     _internet_setNetworkPipe:	
  2251                           ;psect for function _internet_setNetworkPipe
  2252                           
  2253                           
  2254                           ;incstack = 0
  2255                           ; Regs used in _internet_setNetworkPipe: [wreg-fsr0h+status,2+status,0+btemp+1+pclath+cs
      +                          tack]
  2256                           ;internet_setNetworkPipe@pipe stored from wreg
  2257  0E8D  00FD               	movwf	internet_setNetworkPipe@pipe
  2258  0E8E                     l2984:
  2259                           
  2260                           ;C:/Users/abdal/Desktop/Embedded-shs/Embedded-shs/libs/internet.c: 23: void internet_set
      +                          NetworkPipe(uint8_t *pipe);C:/Users/abdal/Desktop/Embedded-shs/Embedded-shs/libs/interne
      +                          t.c: 24: {;C:/Users/abdal/Desktop/Embedded-shs/Embedded-shs/libs/internet.c: 25:     mem
      +                          cpy(networkInfo.networkPipe, pipe, 5);
  2261  0E8E  087D               	movf	internet_setNetworkPipe@pipe,w
  2262  0E8F  00F0               	movwf	memcpy@s1
  2263  0E90  3000               	movlw	0
  2264  0E91  00F1               	movwf	memcpy@s1+1
  2265  0E92  3005               	movlw	5
  2266  0E93  00F2               	movwf	memcpy@n
  2267  0E94  3000               	movlw	0
  2268  0E95  00F3               	movwf	memcpy@n+1
  2269  0E96  3044               	movlw	(low (_networkInfo| 0))& (0+255)
  2270  0E97  120A  118A  20D2  120A  158A  	fcall	_memcpy
  2271  0E9C                     l2986:
  2272                           
  2273                           ;C:/Users/abdal/Desktop/Embedded-shs/Embedded-shs/libs/internet.c: 26:     networkInfo.n
      +                          etworkPipe[0] = node.address;
  2274  0E9C  1283               	bcf	3,5	;RP0=0, select bank0
  2275  0E9D  1303               	bcf	3,6	;RP1=0, select bank0
  2276  0E9E  083D               	movf	_node,w
  2277  0E9F  00FC               	movwf	??_internet_setNetworkPipe
  2278  0EA0  087C               	movf	??_internet_setNetworkPipe,w
  2279  0EA1  00C4               	movwf	_networkInfo
  2280  0EA2                     l2988:
  2281                           
  2282                           ;C:/Users/abdal/Desktop/Embedded-shs/Embedded-shs/libs/internet.c: 27:     RF24_openRead
      +                          ingPipe(1, networkInfo.networkPipe);
  2283  0EA2  3044               	movlw	(low (_networkInfo| 0))& (0+255)
  2284  0EA3  00F7               	movwf	RF24_openReadingPipe@address
  2285  0EA4  3000               	movlw	0
  2286  0EA5  00F8               	movwf	RF24_openReadingPipe@address+1
  2287  0EA6  3001               	movlw	1
  2288  0EA7  120A  118A  2201  120A  158A  	fcall	_RF24_openReadingPipe
  2289  0EAC                     l233:
  2290  0EAC  0008               	return
  2291  0EAD                     __end_of_internet_setNetworkPipe:
  2292                           
  2293                           	psect	text6
  2294  00D2                     __ptext6:	
  2295 ;; *************** function _memcpy *****************
  2296 ;; Defined at:
  2297 ;;		line 27 in file "C:\Program Files\Microchip\xc8\v2.35\pic\sources\c90\common\memcpy.c"
  2298 ;; Parameters:    Size  Location     Type
  2299 ;;  d1              1    wreg     PTR void 
  2300 ;;		 -> networkInfo(6), buffer_tx(32), 
  2301 ;;  s1              2    0[COMMON] PTR const void 
  2302 ;;		 -> networkInfo(6), STR_1(3), network_pipe(5), 
  2303 ;;  n               2    2[COMMON] unsigned int 
  2304 ;; Auto vars:     Size  Location     Type
  2305 ;;  d1              1    9[COMMON] PTR void 
  2306 ;;		 -> networkInfo(6), buffer_tx(32), 
  2307 ;;  s               2    6[COMMON] PTR const unsigned char 
  2308 ;;		 -> networkInfo(6), STR_1(3), network_pipe(5), 
  2309 ;;  d               1    8[COMMON] PTR unsigned char 
  2310 ;;		 -> networkInfo(6), buffer_tx(32), 
  2311 ;;  tmp             1    5[COMMON] unsigned char 
  2312 ;; Return value:  Size  Location     Type
  2313 ;;                  1    wreg      PTR void 
  2314 ;; Registers used:
  2315 ;;		wreg, fsr0l, fsr0h, status,2, status,0, btemp+1, pclath
  2316 ;; Tracked objects:
  2317 ;;		On entry : 0/0
  2318 ;;		On exit  : 0/0
  2319 ;;		Unchanged: 0/0
  2320 ;; Data sizes:     COMMON   BANK0   BANK1   BANK3   BANK2
  2321 ;;      Params:         4       0       0       0       0
  2322 ;;      Locals:         5       0       0       0       0
  2323 ;;      Temps:          1       0       0       0       0
  2324 ;;      Totals:        10       0       0       0       0
  2325 ;;Total ram usage:       10 bytes
  2326 ;; Hardware stack levels used: 2
  2327 ;; This function calls:
  2328 ;;		Nothing
  2329 ;; This function is called by:
  2330 ;;		_main
  2331 ;;		_internet_setNetworkPipe
  2332 ;; This function uses a non-reentrant model
  2333 ;;
  2334                           
  2335  00D2                     _memcpy:	
  2336                           ;psect for function _memcpy
  2337                           
  2338                           
  2339                           ;incstack = 0
  2340                           ; Regs used in _memcpy: [wreg-fsr0h+status,2+status,0+btemp+1+pclath]
  2341                           ;memcpy@d1 stored from wreg
  2342  00D2  00F9               	movwf	memcpy@d1
  2343  00D3                     l2858:
  2344  00D3  0870               	movf	memcpy@s1,w
  2345  00D4  00F6               	movwf	memcpy@s
  2346  00D5  0871               	movf	memcpy@s1+1,w
  2347  00D6  00F7               	movwf	memcpy@s+1
  2348  00D7                     l2860:
  2349  00D7  0879               	movf	memcpy@d1,w
  2350  00D8  00F4               	movwf	??_memcpy
  2351  00D9  0874               	movf	??_memcpy,w
  2352  00DA  00F8               	movwf	memcpy@d
  2353  00DB  28FB               	goto	l2870
  2354  00DC                     l2862:
  2355  00DC  0877               	movf	memcpy@s+1,w
  2356  00DD  1283               	bcf	3,5	;RP0=0, select bank0
  2357  00DE  1303               	bcf	3,6	;RP1=0, select bank0
  2358  00DF  00FF               	movwf	btemp+1
  2359  00E0  0876               	movf	memcpy@s,w
  2360  00E1  0084               	movwf	4
  2361  00E2  120A  158A  2000  120A  118A  	fcall	stringtab
  2362  00E7  00F4               	movwf	??_memcpy
  2363  00E8  0874               	movf	??_memcpy,w
  2364  00E9  00F5               	movwf	memcpy@tmp
  2365  00EA                     l2864:
  2366  00EA  3001               	movlw	1
  2367  00EB  07F6               	addwf	memcpy@s,f
  2368  00EC  1803               	skipnc
  2369  00ED  0AF7               	incf	memcpy@s+1,f
  2370  00EE  3000               	movlw	0
  2371  00EF  07F7               	addwf	memcpy@s+1,f
  2372  00F0                     l2866:
  2373  00F0  0875               	movf	memcpy@tmp,w
  2374  00F1  00F4               	movwf	??_memcpy
  2375  00F2  0878               	movf	memcpy@d,w
  2376  00F3  0084               	movwf	4
  2377  00F4  0874               	movf	??_memcpy,w
  2378  00F5  1383               	bcf	3,7	;select IRP bank0
  2379  00F6  0080               	movwf	0
  2380  00F7                     l2868:
  2381  00F7  3001               	movlw	1
  2382  00F8  00F4               	movwf	??_memcpy
  2383  00F9  0874               	movf	??_memcpy,w
  2384  00FA  07F8               	addwf	memcpy@d,f
  2385  00FB                     l2870:
  2386  00FB  3001               	movlw	1
  2387  00FC  02F2               	subwf	memcpy@n,f
  2388  00FD  3000               	movlw	0
  2389  00FE  1C03               	skipc
  2390  00FF  03F3               	decf	memcpy@n+1,f
  2391  0100  02F3               	subwf	memcpy@n+1,f
  2392  0101  0A72               	incf	memcpy@n,w
  2393  0102  1D03               	skipz
  2394  0103  2908               	goto	u2011
  2395  0104  0A73               	incf	memcpy@n+1,w
  2396  0105  1D03               	btfss	3,2
  2397  0106  2908               	goto	u2011
  2398  0107  2909               	goto	u2010
  2399  0108                     u2011:
  2400  0108  28DC               	goto	l2862
  2401  0109                     u2010:
  2402  0109                     l1098:
  2403  0109  0008               	return
  2404  010A                     __end_of_memcpy:
  2405                           
  2406                           	psect	text7
  2407  0012                     __ptext7:	
  2408 ;; *************** function _internet_process *****************
  2409 ;; Defined at:
  2410 ;;		line 13 in file "C:/Users/abdal/Desktop/Embedded-shs/Embedded-shs/libs/internet.c"
  2411 ;; Parameters:    Size  Location     Type
  2412 ;;		None
  2413 ;; Auto vars:     Size  Location     Type
  2414 ;;  size            1   25[BANK0 ] unsigned char 
  2415 ;; Return value:  Size  Location     Type
  2416 ;;                  1    wreg      void 
  2417 ;; Registers used:
  2418 ;;		wreg, fsr0l, fsr0h, status,2, status,0, btemp+1, pclath, cstack
  2419 ;; Tracked objects:
  2420 ;;		On entry : 0/0
  2421 ;;		On exit  : 0/0
  2422 ;;		Unchanged: 0/0
  2423 ;; Data sizes:     COMMON   BANK0   BANK1   BANK3   BANK2
  2424 ;;      Params:         0       0       0       0       0
  2425 ;;      Locals:         0       1       0       0       0
  2426 ;;      Temps:          0       1       0       0       0
  2427 ;;      Totals:         0       2       0       0       0
  2428 ;;Total ram usage:        2 bytes
  2429 ;; Hardware stack levels used: 1
  2430 ;; Hardware stack levels required when called: 6
  2431 ;; This function calls:
  2432 ;;		_RF24_available
  2433 ;;		_RF24_getDynamicPayloadSize
  2434 ;;		_RF24_read
  2435 ;;		_internet_rx
  2436 ;; This function is called by:
  2437 ;;		_main
  2438 ;; This function uses a non-reentrant model
  2439 ;;
  2440                           
  2441  0012                     _internet_process:	
  2442                           ;psect for function _internet_process
  2443                           
  2444  0012                     l3162:	
  2445                           ;incstack = 0
  2446                           ; Regs used in _internet_process: [wreg-fsr0h+status,2+status,0+btemp+1+pclath+cstack]
  2447                           
  2448                           
  2449                           ;C:/Users/abdal/Desktop/Embedded-shs/Embedded-shs/libs/internet.c: 15:     while (RF24_a
      +                          vailable())
  2450  0012  2833               	goto	l3170
  2451  0013                     l3164:
  2452                           
  2453                           ;C:/Users/abdal/Desktop/Embedded-shs/Embedded-shs/libs/internet.c: 16:     {;C:/Users/ab
      +                          dal/Desktop/Embedded-shs/Embedded-shs/libs/internet.c: 17:         uint8_t size = RF24_g
      +                          etDynamicPayloadSize();
  2454  0013  120A  158A  26EE  120A  118A  	fcall	_RF24_getDynamicPayloadSize
  2455  0018  1283               	bcf	3,5	;RP0=0, select bank0
  2456  0019  1303               	bcf	3,6	;RP1=0, select bank0
  2457  001A  00B8               	movwf	??_internet_process
  2458  001B  0838               	movf	??_internet_process,w
  2459  001C  00B9               	movwf	internet_process@size
  2460  001D                     l3166:
  2461                           
  2462                           ;C:/Users/abdal/Desktop/Embedded-shs/Embedded-shs/libs/internet.c: 19:         RF24_read
      +                          (buffer_rx, size);
  2463  001D  0839               	movf	internet_process@size,w
  2464  001E  00B8               	movwf	??_internet_process
  2465  001F  0838               	movf	??_internet_process,w
  2466  0020  00F7               	movwf	RF24_read@len
  2467  0021  30A0               	movlw	(low (_buffer_rx| 0))& (0+255)
  2468  0022  120A  158A  261D  120A  118A  	fcall	_RF24_read
  2469  0027                     l3168:
  2470                           
  2471                           ;C:/Users/abdal/Desktop/Embedded-shs/Embedded-shs/libs/internet.c: 20:         internet_
      +                          rx(buffer_rx, size);
  2472  0027  1283               	bcf	3,5	;RP0=0, select bank0
  2473  0028  1303               	bcf	3,6	;RP1=0, select bank0
  2474  0029  0839               	movf	internet_process@size,w
  2475  002A  00B8               	movwf	??_internet_process
  2476  002B  0838               	movf	??_internet_process,w
  2477  002C  00B3               	movwf	internet_rx@size
  2478  002D  30A0               	movlw	(low (_buffer_rx| 0))& (0+255)
  2479  002E  120A  118A  2145  120A  118A  	fcall	_internet_rx
  2480  0033                     l3170:
  2481                           
  2482                           ;C:/Users/abdal/Desktop/Embedded-shs/Embedded-shs/libs/internet.c: 15:     while (RF24_a
      +                          vailable())
  2483  0033  120A  158A  2587  120A  118A  	fcall	_RF24_available
  2484  0038  3A00               	xorlw	0
  2485  0039  1D03               	skipz
  2486  003A  283C               	goto	u2211
  2487  003B  283D               	goto	u2210
  2488  003C                     u2211:
  2489  003C  2813               	goto	l3164
  2490  003D                     u2210:
  2491  003D                     l230:
  2492  003D  0008               	return
  2493  003E                     __end_of_internet_process:
  2494                           
  2495                           	psect	text8
  2496  0145                     __ptext8:	
  2497 ;; *************** function _internet_rx *****************
  2498 ;; Defined at:
  2499 ;;		line 37 in file "C:/Users/abdal/Desktop/Embedded-shs/Embedded-shs/libs/internet.c"
  2500 ;; Parameters:    Size  Location     Type
  2501 ;;  payload         1    wreg     PTR unsigned char 
  2502 ;;		 -> buffer_rx(32), 
  2503 ;;  size            1   19[BANK0 ] unsigned char 
  2504 ;; Auto vars:     Size  Location     Type
  2505 ;;  payload         1   23[BANK0 ] PTR unsigned char 
  2506 ;;		 -> buffer_rx(32), 
  2507 ;;  packetHeader    1   22[BANK0 ] PTR struct Packet
  2508 ;;		 -> buffer_rx(32), 
  2509 ;; Return value:  Size  Location     Type
  2510 ;;                  1    wreg      void 
  2511 ;; Registers used:
  2512 ;;		wreg, fsr0l, fsr0h, status,2, status,0, btemp+1, pclath, cstack
  2513 ;; Tracked objects:
  2514 ;;		On entry : 0/0
  2515 ;;		On exit  : 0/0
  2516 ;;		Unchanged: 0/0
  2517 ;; Data sizes:     COMMON   BANK0   BANK1   BANK3   BANK2
  2518 ;;      Params:         0       1       0       0       0
  2519 ;;      Locals:         0       2       0       0       0
  2520 ;;      Temps:          0       2       0       0       0
  2521 ;;      Totals:         0       5       0       0       0
  2522 ;;Total ram usage:        5 bytes
  2523 ;; Hardware stack levels used: 1
  2524 ;; Hardware stack levels required when called: 5
  2525 ;; This function calls:
  2526 ;;		_internet_relay
  2527 ;;		_transport_udp_rx
  2528 ;; This function is called by:
  2529 ;;		_internet_process
  2530 ;; This function uses a non-reentrant model
  2531 ;;
  2532                           
  2533  0145                     _internet_rx:	
  2534                           ;psect for function _internet_rx
  2535                           
  2536                           
  2537                           ;incstack = 0
  2538                           ; Regs used in _internet_rx: [wreg-fsr0h+status,2+status,0+btemp+1+pclath+cstack]
  2539                           ;internet_rx@payload stored from wreg
  2540  0145  1283               	bcf	3,5	;RP0=0, select bank0
  2541  0146  1303               	bcf	3,6	;RP1=0, select bank0
  2542  0147  00B7               	movwf	internet_rx@payload
  2543  0148                     l3010:
  2544                           
  2545                           ;C:/Users/abdal/Desktop/Embedded-shs/Embedded-shs/libs/internet.c: 37: void internet_rx(
      +                          uint8_t *payload, uint8_t size);C:/Users/abdal/Desktop/Embedded-shs/Embedded-shs/libs/in
      +                          ternet.c: 38: {;C:/Users/abdal/Desktop/Embedded-shs/Embedded-shs/libs/internet.c: 39:   
      +                            struct Packet *packetHeader = (struct Packet *)payload;
  2546  0148  0837               	movf	internet_rx@payload,w
  2547  0149  00B4               	movwf	??_internet_rx
  2548  014A  0834               	movf	??_internet_rx,w
  2549  014B  00B6               	movwf	internet_rx@packetHeader
  2550  014C                     l3012:
  2551                           
  2552                           ;C:/Users/abdal/Desktop/Embedded-shs/Embedded-shs/libs/internet.c: 40:     if (packetHea
      +                          der->destination != node.address)
  2553  014C  0836               	movf	internet_rx@packetHeader,w
  2554  014D  3E03               	addlw	3
  2555  014E  0084               	movwf	4
  2556  014F  1383               	bcf	3,7	;select IRP bank0
  2557  0150  0800               	movf	0,w
  2558  0151  063D               	xorwf	_node,w
  2559  0152  1903               	skipnz
  2560  0153  2955               	goto	u2121
  2561  0154  2956               	goto	u2120
  2562  0155                     u2121:
  2563  0155  296C               	goto	l3022
  2564  0156                     u2120:
  2565  0156                     l3014:
  2566                           
  2567                           ;C:/Users/abdal/Desktop/Embedded-shs/Embedded-shs/libs/internet.c: 41:     {;C:/Users/ab
      +                          dal/Desktop/Embedded-shs/Embedded-shs/libs/internet.c: 42:         internet_relay(payloa
      +                          d, size);
  2568  0156  0833               	movf	internet_rx@size,w
  2569  0157  00B4               	movwf	??_internet_rx
  2570  0158  0834               	movf	??_internet_rx,w
  2571  0159  00A0               	movwf	internet_relay@size
  2572  015A  0837               	movf	internet_rx@payload,w
  2573  015B  120A  118A  26DF  120A  118A  	fcall	_internet_relay
  2574  0160  2981               	goto	l240
  2575  0161                     l3018:
  2576                           
  2577                           ;C:/Users/abdal/Desktop/Embedded-shs/Embedded-shs/libs/internet.c: 54:         transport
      +                          _udp_rx(payload, size);
  2578  0161  0833               	movf	internet_rx@size,w
  2579  0162  00B4               	movwf	??_internet_rx
  2580  0163  0834               	movf	??_internet_rx,w
  2581  0164  00AE               	movwf	transport_udp_rx@size
  2582  0165  0837               	movf	internet_rx@payload,w
  2583  0166  120A  158A  2637  120A  118A  	fcall	_transport_udp_rx
  2584                           
  2585                           ;C:/Users/abdal/Desktop/Embedded-shs/Embedded-shs/libs/internet.c: 55:         break;
  2586  016B  2981               	goto	l240
  2587  016C                     l3022:
  2588  016C  0A36               	incf	internet_rx@packetHeader,w
  2589  016D  0084               	movwf	4
  2590  016E  0800               	movf	0,w
  2591  016F  00B4               	movwf	??_internet_rx
  2592  0170  01B5               	clrf	??_internet_rx+1
  2593                           
  2594                           ; Switch on 2 bytes has been partitioned into a top level switch of size 1, and 1 sub-sw
      +                          itches
  2595                           ; Switch size 1, requested type "simple"
  2596                           ; Number of cases is 1, Range of values is 0 to 0
  2597                           ; switch strategies available:
  2598                           ; Name         Instructions Cycles
  2599                           ; simple_byte            4     3 (average)
  2600                           ; direct_byte           11     8 (fixed)
  2601                           ; jumptable            260     6 (fixed)
  2602                           ;	Chosen strategy is simple_byte
  2603  0171  0835               	movf	??_internet_rx+1,w
  2604  0172  3A00               	xorlw	0	; case 0
  2605  0173  1903               	skipnz
  2606  0174  2976               	goto	l3222
  2607  0175  2981               	goto	l240
  2608  0176                     l3222:
  2609                           
  2610                           ; Switch size 1, requested type "simple"
  2611                           ; Number of cases is 3, Range of values is 0 to 2
  2612                           ; switch strategies available:
  2613                           ; Name         Instructions Cycles
  2614                           ; simple_byte           10     6 (average)
  2615                           ; direct_byte           17     8 (fixed)
  2616                           ; jumptable            260     6 (fixed)
  2617                           ;	Chosen strategy is simple_byte
  2618  0176  0834               	movf	??_internet_rx,w
  2619  0177  3A00               	xorlw	0	; case 0
  2620  0178  1903               	skipnz
  2621  0179  2981               	goto	l240
  2622  017A  3A01               	xorlw	1	; case 1
  2623  017B  1903               	skipnz
  2624  017C  2961               	goto	l3018
  2625  017D  3A03               	xorlw	3	; case 2
  2626  017E  1903               	skipnz
  2627  017F  2981               	goto	l240
  2628  0180  2981               	goto	l240
  2629  0181                     l240:
  2630  0181  0008               	return
  2631  0182                     __end_of_internet_rx:
  2632                           
  2633                           	psect	text9
  2634  0E37                     __ptext9:	
  2635 ;; *************** function _transport_udp_rx *****************
  2636 ;; Defined at:
  2637 ;;		line 12 in file "C:/Users/abdal/Desktop/Embedded-shs/Embedded-shs/libs/transport.c"
  2638 ;; Parameters:    Size  Location     Type
  2639 ;;  payload         1    wreg     PTR unsigned char 
  2640 ;;		 -> buffer_rx(32), 
  2641 ;;  size            1   14[BANK0 ] unsigned char 
  2642 ;; Auto vars:     Size  Location     Type
  2643 ;;  payload         1   18[BANK0 ] PTR unsigned char 
  2644 ;;		 -> buffer_rx(32), 
  2645 ;;  packetHeader    1   17[BANK0 ] PTR struct UDPPacket
  2646 ;;		 -> buffer_rx(32), 
  2647 ;; Return value:  Size  Location     Type
  2648 ;;                  1    wreg      void 
  2649 ;; Registers used:
  2650 ;;		wreg, fsr0l, fsr0h, status,2, status,0, btemp+1, pclath, cstack
  2651 ;; Tracked objects:
  2652 ;;		On entry : 0/0
  2653 ;;		On exit  : 0/0
  2654 ;;		Unchanged: 0/0
  2655 ;; Data sizes:     COMMON   BANK0   BANK1   BANK3   BANK2
  2656 ;;      Params:         0       1       0       0       0
  2657 ;;      Locals:         0       2       0       0       0
  2658 ;;      Temps:          0       2       0       0       0
  2659 ;;      Totals:         0       5       0       0       0
  2660 ;;Total ram usage:        5 bytes
  2661 ;; Hardware stack levels used: 1
  2662 ;; Hardware stack levels required when called: 3
  2663 ;; This function calls:
  2664 ;;		_transport_udp_process
  2665 ;; This function is called by:
  2666 ;;		_internet_rx
  2667 ;; This function uses a non-reentrant model
  2668 ;;
  2669                           
  2670  0E37                     _transport_udp_rx:	
  2671                           ;psect for function _transport_udp_rx
  2672                           
  2673                           
  2674                           ;incstack = 0
  2675                           ; Regs used in _transport_udp_rx: [wreg-fsr0h+status,2+status,0+btemp+1+pclath+cstack]
  2676                           ;transport_udp_rx@payload stored from wreg
  2677  0E37  1283               	bcf	3,5	;RP0=0, select bank0
  2678  0E38  1303               	bcf	3,6	;RP1=0, select bank0
  2679  0E39  00B2               	movwf	transport_udp_rx@payload
  2680  0E3A                     l2932:
  2681                           
  2682                           ;C:/Users/abdal/Desktop/Embedded-shs/Embedded-shs/libs/transport.c: 12: void transport_u
      +                          dp_rx(uint8_t *payload, uint8_t size);C:/Users/abdal/Desktop/Embedded-shs/Embedded-shs/l
      +                          ibs/transport.c: 13: {;C:/Users/abdal/Desktop/Embedded-shs/Embedded-shs/libs/transport.c
      +                          : 14:     struct UDPPacket *packetHeader = (struct UDPPacket *)payload;
  2683  0E3A  0832               	movf	transport_udp_rx@payload,w
  2684  0E3B  00AF               	movwf	??_transport_udp_rx
  2685  0E3C  082F               	movf	??_transport_udp_rx,w
  2686  0E3D  00B1               	movwf	transport_udp_rx@packetHeader
  2687  0E3E                     l2934:
  2688                           
  2689                           ;C:/Users/abdal/Desktop/Embedded-shs/Embedded-shs/libs/transport.c: 15:     transport_ud
      +                          p_process(payload, size, packetHeader->destinationPort);
  2690  0E3E  082E               	movf	transport_udp_rx@size,w
  2691  0E3F  00AF               	movwf	??_transport_udp_rx
  2692  0E40  082F               	movf	??_transport_udp_rx,w
  2693  0E41  00A9               	movwf	transport_udp_process@size
  2694  0E42  0831               	movf	transport_udp_rx@packetHeader,w
  2695  0E43  3E04               	addlw	4
  2696  0E44  0084               	movwf	4
  2697  0E45  1383               	bcf	3,7	;select IRP bank0
  2698  0E46  0E00               	swapf	0,w
  2699  0E47  390F               	andlw	15
  2700  0E48  00B0               	movwf	??_transport_udp_rx+1
  2701  0E49  0830               	movf	??_transport_udp_rx+1,w
  2702  0E4A  00AA               	movwf	transport_udp_process@port
  2703  0E4B  0832               	movf	transport_udp_rx@payload,w
  2704  0E4C  120A  118A  23B7  120A  158A  	fcall	_transport_udp_process
  2705  0E51                     l544:
  2706  0E51  0008               	return
  2707  0E52                     __end_of_transport_udp_rx:
  2708                           
  2709                           	psect	text10
  2710  03B7                     __ptext10:	
  2711 ;; *************** function _transport_udp_process *****************
  2712 ;; Defined at:
  2713 ;;		line 50 in file "C:/Users/abdal/Desktop/Embedded-shs/Embedded-shs/app/src/main.c"
  2714 ;; Parameters:    Size  Location     Type
  2715 ;;  payload         1    wreg     PTR unsigned char 
  2716 ;;		 -> buffer_rx(32), 
  2717 ;;  size            1    9[BANK0 ] unsigned char 
  2718 ;;  port            1   10[BANK0 ] unsigned char 
  2719 ;; Auto vars:     Size  Location     Type
  2720 ;;  payload         1   12[COMMON] PTR unsigned char 
  2721 ;;		 -> buffer_rx(32), 
  2722 ;;  data            1   13[COMMON] PTR unsigned char 
  2723 ;;		 -> buffer_rx(32), 
  2724 ;; Return value:  Size  Location     Type
  2725 ;;                  1    wreg      void 
  2726 ;; Registers used:
  2727 ;;		wreg, fsr0l, fsr0h, status,2, status,0, btemp+1, pclath, cstack
  2728 ;; Tracked objects:
  2729 ;;		On entry : 0/0
  2730 ;;		On exit  : 0/0
  2731 ;;		Unchanged: 0/0
  2732 ;; Data sizes:     COMMON   BANK0   BANK1   BANK3   BANK2
  2733 ;;      Params:         0       2       0       0       0
  2734 ;;      Locals:         2       0       0       0       0
  2735 ;;      Temps:          0       3       0       0       0
  2736 ;;      Totals:         2       5       0       0       0
  2737 ;;Total ram usage:        7 bytes
  2738 ;; Hardware stack levels used: 1
  2739 ;; Hardware stack levels required when called: 2
  2740 ;; This function calls:
  2741 ;;		_Serial_write
  2742 ;;		__$_logline_int
  2743 ;;		__$_logline_str
  2744 ;; This function is called by:
  2745 ;;		_transport_udp_rx
  2746 ;; This function uses a non-reentrant model
  2747 ;;
  2748                           
  2749  03B7                     _transport_udp_process:	
  2750                           ;psect for function _transport_udp_process
  2751                           
  2752  03B7                     l2770:	
  2753                           ;incstack = 0
  2754                           ; Regs used in _transport_udp_process: [wreg-fsr0h+status,2+status,0+btemp+1+pclath+csta
      +                          ck]
  2755                           
  2756  03B7  30A5               	movlw	(low ((_buffer_rx| 0+5)))& (0+255)
  2757  03B8  1283               	bcf	3,5	;RP0=0, select bank0
  2758  03B9  1303               	bcf	3,6	;RP1=0, select bank0
  2759  03BA  00AB               	movwf	??_transport_udp_process
  2760  03BB  082B               	movf	??_transport_udp_process,w
  2761  03BC  00FD               	movwf	transport_udp_process@data
  2762  03BD                     l2772:
  2763  03BD  087D               	movf	transport_udp_process@data,w
  2764  03BE  0084               	movwf	4
  2765  03BF  3068               	movlw	104
  2766  03C0  1383               	bcf	3,7	;select IRP bank0
  2767  03C1  0600               	xorwf	0,w
  2768  03C2  1D03               	btfss	3,2
  2769  03C3  2BC5               	goto	u1921
  2770  03C4  2BC6               	goto	u1920
  2771  03C5                     u1921:
  2772  03C5  2BD6               	goto	l2776
  2773  03C6                     u1920:
  2774  03C6                     l2774:
  2775  03C6  3002               	movlw	2
  2776  03C7  0688               	xorwf	8,f
  2777  03C8  300B               	movlw	11
  2778  03C9  1283               	bcf	3,5	;RP0=0, select bank0
  2779  03CA  1303               	bcf	3,6	;RP1=0, select bank0
  2780  03CB  00AD               	movwf	??_transport_udp_process+2
  2781  03CC  3026               	movlw	38
  2782  03CD  00AC               	movwf	??_transport_udp_process+1
  2783  03CE  305D               	movlw	93
  2784  03CF  00AB               	movwf	??_transport_udp_process
  2785  03D0                     u2257:
  2786  03D0  0BAB               	decfsz	??_transport_udp_process,f
  2787  03D1  2BD0               	goto	u2257
  2788  03D2  0BAC               	decfsz	??_transport_udp_process+1,f
  2789  03D3  2BD0               	goto	u2257
  2790  03D4  0BAD               	decfsz	??_transport_udp_process+2,f
  2791  03D5  2BD0               	goto	u2257
  2792  03D6                     l2776:
  2793  03D6  30D0               	movlw	low (STR_2| (0+32768))
  2794  03D7  00F1               	movwf	__$_logline_str@string
  2795  03D8  3088               	movlw	high (STR_2| (0+32768))
  2796  03D9  00F2               	movwf	__$_logline_str@string+1
  2797  03DA  120A  118A  203E  120A  118A  	fcall	__$_logline_str
  2798  03DF                     l2778:
  2799  03DF  087D               	movf	transport_udp_process@data,w
  2800  03E0  00F1               	movwf	__$_logline_str@string
  2801  03E1  3000               	movlw	0
  2802  03E2  00F2               	movwf	__$_logline_str@string+1
  2803  03E3  120A  118A  203E  120A  118A  	fcall	__$_logline_str
  2804  03E8                     l2780:
  2805  03E8  300A               	movlw	10
  2806  03E9  120A  158A  252B  120A  118A  	fcall	_Serial_write
  2807  03EE                     l2782:
  2808  03EE  3062               	movlw	low (STR_3| (0+32768))
  2809  03EF  00F1               	movwf	__$_logline_str@string
  2810  03F0  3088               	movlw	high (STR_3| (0+32768))
  2811  03F1  00F2               	movwf	__$_logline_str@string+1
  2812  03F2  120A  118A  203E  120A  118A  	fcall	__$_logline_str
  2813  03F7                     l2784:
  2814  03F7  300A               	movlw	10
  2815  03F8  120A  158A  252B  120A  118A  	fcall	_Serial_write
  2816  03FD                     l2786:
  2817  03FD  30B2               	movlw	low (STR_4| (0+32768))
  2818  03FE  00F1               	movwf	__$_logline_str@string
  2819  03FF  3088               	movlw	high (STR_4| (0+32768))
  2820  0400  00F2               	movwf	__$_logline_str@string+1
  2821  0401  120A  118A  203E  120A  118A  	fcall	__$_logline_str
  2822  0406                     l2788:
  2823  0406  303D               	movlw	61
  2824  0407  120A  158A  252B  120A  118A  	fcall	_Serial_write
  2825  040C                     l2790:
  2826  040C  1283               	bcf	3,5	;RP0=0, select bank0
  2827  040D  1303               	bcf	3,6	;RP1=0, select bank0
  2828  040E  0829               	movf	transport_udp_process@size,w
  2829  040F  120A  118A  22EB  120A  118A  	fcall	__$_logline_int
  2830  0414                     l2792:
  2831  0414  300A               	movlw	10
  2832  0415  120A  158A  252B  120A  118A  	fcall	_Serial_write
  2833  041A                     l2794:
  2834  041A  30BA               	movlw	low (STR_5| (0+32768))
  2835  041B  00F1               	movwf	__$_logline_str@string
  2836  041C  3088               	movlw	high (STR_5| (0+32768))
  2837  041D  00F2               	movwf	__$_logline_str@string+1
  2838  041E  120A  118A  203E  120A  118A  	fcall	__$_logline_str
  2839  0423                     l2796:
  2840  0423  303D               	movlw	61
  2841  0424  120A  158A  252B  120A  118A  	fcall	_Serial_write
  2842  0429                     l2798:
  2843  0429  1283               	bcf	3,5	;RP0=0, select bank0
  2844  042A  1303               	bcf	3,6	;RP1=0, select bank0
  2845  042B  082A               	movf	transport_udp_process@port,w
  2846  042C  120A  118A  22EB  120A  118A  	fcall	__$_logline_int
  2847  0431                     l2800:
  2848  0431  300A               	movlw	10
  2849  0432  120A  158A  252B  120A  118A  	fcall	_Serial_write
  2850  0437                     l69:
  2851  0437  0008               	return
  2852  0438                     __end_of_transport_udp_process:
  2853                           
  2854                           	psect	text11
  2855  02EB                     __ptext11:	
  2856 ;; *************** function __$_logline_int *****************
  2857 ;; Defined at:
  2858 ;;		line 15 in file "C:/Users/abdal/Desktop/Embedded-shs/Embedded-shs/libs/logline.c"
  2859 ;; Parameters:    Size  Location     Type
  2860 ;;  v               1    wreg     unsigned char 
  2861 ;; Auto vars:     Size  Location     Type
  2862 ;;  v               1    7[BANK0 ] unsigned char 
  2863 ;;  t               1    8[BANK0 ] unsigned char 
  2864 ;; Return value:  Size  Location     Type
  2865 ;;                  1    wreg      void 
  2866 ;; Registers used:
  2867 ;;		wreg, status,2, status,0, pclath, cstack
  2868 ;; Tracked objects:
  2869 ;;		On entry : 0/0
  2870 ;;		On exit  : 0/0
  2871 ;;		Unchanged: 0/0
  2872 ;; Data sizes:     COMMON   BANK0   BANK1   BANK3   BANK2
  2873 ;;      Params:         0       0       0       0       0
  2874 ;;      Locals:         0       6       0       0       0
  2875 ;;      Temps:          0       3       0       0       0
  2876 ;;      Totals:         0       9       0       0       0
  2877 ;;Total ram usage:        9 bytes
  2878 ;; Hardware stack levels used: 1
  2879 ;; Hardware stack levels required when called: 1
  2880 ;; This function calls:
  2881 ;;		_Serial_write
  2882 ;;		___awdiv
  2883 ;;		___awmod
  2884 ;;		___lbdiv
  2885 ;; This function is called by:
  2886 ;;		_transport_udp_process
  2887 ;; This function uses a non-reentrant model
  2888 ;;
  2889                           
  2890  02EB                     __$_logline_int:	
  2891                           ;psect for function __$_logline_int
  2892                           
  2893                           
  2894                           ;incstack = 0
  2895                           ; Regs used in __$_logline_int: [wreg+status,2+status,0+pclath+cstack]
  2896                           ;__$_logline_int@v stored from wreg
  2897  02EB  1283               	bcf	3,5	;RP0=0, select bank0
  2898  02EC  1303               	bcf	3,6	;RP1=0, select bank0
  2899  02ED  00A7               	movwf	__$_logline_int@v
  2900  02EE                     l2720:
  2901                           
  2902                           ;C:/Users/abdal/Desktop/Embedded-shs/Embedded-shs/libs/logline.c: 15: void _$_logline_in
      +                          t(uint8_t v);C:/Users/abdal/Desktop/Embedded-shs/Embedded-shs/libs/logline.c: 16: {;C:/U
      +                          sers/abdal/Desktop/Embedded-shs/Embedded-shs/libs/logline.c: 18:     uint8_t t = v > 99 
      +                          ? 100 : v > 9 ? 10
  2903  02EE  3064               	movlw	100
  2904  02EF  0227               	subwf	__$_logline_int@v,w
  2905  02F0  1803               	skipnc
  2906  02F1  2AF3               	goto	u1881
  2907  02F2  2AF4               	goto	u1880
  2908  02F3                     u1881:
  2909  02F3  2B08               	goto	l2728
  2910  02F4                     u1880:
  2911  02F4                     l2722:
  2912  02F4  300A               	movlw	10
  2913  02F5  0227               	subwf	__$_logline_int@v,w
  2914  02F6  1803               	skipnc
  2915  02F7  2AF9               	goto	u1891
  2916  02F8  2AFA               	goto	u1890
  2917  02F9                     u1891:
  2918  02F9  2AFF               	goto	l2726
  2919  02FA                     u1890:
  2920  02FA                     l2724:
  2921  02FA  3001               	movlw	1
  2922  02FB  00A5               	movwf	__$_logline_int$766
  2923  02FC  3000               	movlw	0
  2924  02FD  00A6               	movwf	__$_logline_int$766+1
  2925  02FE  2B03               	goto	l614
  2926  02FF                     l2726:
  2927  02FF  300A               	movlw	10
  2928  0300  00A5               	movwf	__$_logline_int$766
  2929  0301  3000               	movlw	0
  2930  0302  00A6               	movwf	__$_logline_int$766+1
  2931  0303                     l614:
  2932  0303  0826               	movf	__$_logline_int$766+1,w
  2933  0304  00A4               	movwf	__$_logline_int$765+1
  2934  0305  0825               	movf	__$_logline_int$766,w
  2935  0306  00A3               	movwf	__$_logline_int$765
  2936  0307  2B0C               	goto	l610
  2937  0308                     l2728:
  2938  0308  3064               	movlw	100
  2939  0309  00A3               	movwf	__$_logline_int$765
  2940  030A  3000               	movlw	0
  2941  030B  00A4               	movwf	__$_logline_int$765+1
  2942  030C                     l610:
  2943  030C  0823               	movf	__$_logline_int$765,w
  2944  030D  00A0               	movwf	??__$_logline_int
  2945  030E  0820               	movf	??__$_logline_int,w
  2946  030F  00A8               	movwf	__$_logline_int@t
  2947  0310                     l2730:
  2948                           
  2949                           ;C:/Users/abdal/Desktop/Embedded-shs/Embedded-shs/libs/logline.c: 21:     {;C:/Users/abd
      +                          al/Desktop/Embedded-shs/Embedded-shs/libs/logline.c: 22:         Serial_write('0' + (v /
      +                           t) % 10);
  2950  0310  300A               	movlw	10
  2951  0311  00F5               	movwf	___awmod@divisor
  2952  0312  3000               	movlw	0
  2953  0313  00F6               	movwf	___awmod@divisor+1
  2954  0314  0828               	movf	__$_logline_int@t,w
  2955  0315  00A0               	movwf	??__$_logline_int
  2956  0316  0820               	movf	??__$_logline_int,w
  2957  0317  00F0               	movwf	___lbdiv@divisor
  2958  0318  0827               	movf	__$_logline_int@v,w
  2959  0319  120A  158A  2781  120A  118A  	fcall	___lbdiv
  2960  031E  1283               	bcf	3,5	;RP0=0, select bank0
  2961  031F  1303               	bcf	3,6	;RP1=0, select bank0
  2962  0320  00A1               	movwf	??__$_logline_int+1
  2963  0321  01A2               	clrf	??__$_logline_int+2
  2964  0322  0821               	movf	??__$_logline_int+1,w
  2965  0323  00F7               	movwf	___awmod@dividend
  2966  0324  0822               	movf	??__$_logline_int+2,w
  2967  0325  00F8               	movwf	___awmod@dividend+1
  2968  0326  120A  118A  2292  120A  118A  	fcall	___awmod
  2969  032B  0875               	movf	?___awmod,w
  2970  032C  3E30               	addlw	48
  2971  032D  120A  158A  252B  120A  118A  	fcall	_Serial_write
  2972  0332                     l2732:
  2973                           
  2974                           ;C:/Users/abdal/Desktop/Embedded-shs/Embedded-shs/libs/logline.c: 23:         t /= 10;
  2975  0332  300A               	movlw	10
  2976  0333  00F0               	movwf	___awdiv@divisor
  2977  0334  3000               	movlw	0
  2978  0335  00F1               	movwf	___awdiv@divisor+1
  2979  0336  1283               	bcf	3,5	;RP0=0, select bank0
  2980  0337  1303               	bcf	3,6	;RP1=0, select bank0
  2981  0338  0828               	movf	__$_logline_int@t,w
  2982  0339  00A0               	movwf	??__$_logline_int
  2983  033A  01A1               	clrf	??__$_logline_int+1
  2984  033B  0820               	movf	??__$_logline_int,w
  2985  033C  00F2               	movwf	___awdiv@dividend
  2986  033D  0821               	movf	??__$_logline_int+1,w
  2987  033E  00F3               	movwf	___awdiv@dividend+1
  2988  033F  120A  118A  2350  120A  118A  	fcall	___awdiv
  2989  0344  0870               	movf	?___awdiv,w
  2990  0345  1283               	bcf	3,5	;RP0=0, select bank0
  2991  0346  1303               	bcf	3,6	;RP1=0, select bank0
  2992  0347  00A2               	movwf	??__$_logline_int+2
  2993  0348  0822               	movf	??__$_logline_int+2,w
  2994  0349  00A8               	movwf	__$_logline_int@t
  2995  034A                     l2734:
  2996                           
  2997                           ;C:/Users/abdal/Desktop/Embedded-shs/Embedded-shs/libs/logline.c: 24:     } while (t > 0
      +                          );
  2998  034A  0828               	movf	__$_logline_int@t,w
  2999  034B  1D03               	btfss	3,2
  3000  034C  2B4E               	goto	u1901
  3001  034D  2B4F               	goto	u1900
  3002  034E                     u1901:
  3003  034E  2B10               	goto	l2730
  3004  034F                     u1900:
  3005  034F                     l617:
  3006  034F  0008               	return
  3007  0350                     __end_of__$_logline_int:
  3008                           
  3009                           	psect	text12
  3010  0F81                     __ptext12:	
  3011 ;; *************** function ___lbdiv *****************
  3012 ;; Defined at:
  3013 ;;		line 4 in file "C:\Program Files\Microchip\xc8\v2.35\pic\sources\c90\common\lbdiv.c"
  3014 ;; Parameters:    Size  Location     Type
  3015 ;;  dividend        1    wreg     unsigned char 
  3016 ;;  divisor         1    0[COMMON] unsigned char 
  3017 ;; Auto vars:     Size  Location     Type
  3018 ;;  dividend        1    2[COMMON] unsigned char 
  3019 ;;  quotient        1    4[COMMON] unsigned char 
  3020 ;;  counter         1    3[COMMON] unsigned char 
  3021 ;; Return value:  Size  Location     Type
  3022 ;;                  1    wreg      unsigned char 
  3023 ;; Registers used:
  3024 ;;		wreg, status,2, status,0
  3025 ;; Tracked objects:
  3026 ;;		On entry : 0/0
  3027 ;;		On exit  : 0/0
  3028 ;;		Unchanged: 0/0
  3029 ;; Data sizes:     COMMON   BANK0   BANK1   BANK3   BANK2
  3030 ;;      Params:         1       0       0       0       0
  3031 ;;      Locals:         3       0       0       0       0
  3032 ;;      Temps:          1       0       0       0       0
  3033 ;;      Totals:         5       0       0       0       0
  3034 ;;Total ram usage:        5 bytes
  3035 ;; Hardware stack levels used: 1
  3036 ;; This function calls:
  3037 ;;		Nothing
  3038 ;; This function is called by:
  3039 ;;		__$_logline_int
  3040 ;; This function uses a non-reentrant model
  3041 ;;
  3042                           
  3043  0F81                     ___lbdiv:	
  3044                           ;psect for function ___lbdiv
  3045                           
  3046                           
  3047                           ;incstack = 0
  3048                           ; Regs used in ___lbdiv: [wreg+status,2+status,0]
  3049                           ;___lbdiv@dividend stored from wreg
  3050  0F81  00F2               	movwf	___lbdiv@dividend
  3051  0F82                     l2684:
  3052  0F82  01F4               	clrf	___lbdiv@quotient
  3053  0F83                     l2686:
  3054  0F83  0870               	movf	___lbdiv@divisor,w
  3055  0F84  1903               	btfsc	3,2
  3056  0F85  2F87               	goto	u1821
  3057  0F86  2F88               	goto	u1820
  3058  0F87                     u1821:
  3059  0F87  2FA8               	goto	l2706
  3060  0F88                     u1820:
  3061  0F88                     l2688:
  3062  0F88  01F3               	clrf	___lbdiv@counter
  3063  0F89  0AF3               	incf	___lbdiv@counter,f
  3064  0F8A  2F91               	goto	l2694
  3065  0F8B                     l2690:
  3066  0F8B  1003               	clrc
  3067  0F8C  0DF0               	rlf	___lbdiv@divisor,f
  3068  0F8D                     l2692:
  3069  0F8D  3001               	movlw	1
  3070  0F8E  00F1               	movwf	??___lbdiv
  3071  0F8F  0871               	movf	??___lbdiv,w
  3072  0F90  07F3               	addwf	___lbdiv@counter,f
  3073  0F91                     l2694:
  3074  0F91  1FF0               	btfss	___lbdiv@divisor,7
  3075  0F92  2F94               	goto	u1831
  3076  0F93  2F95               	goto	u1830
  3077  0F94                     u1831:
  3078  0F94  2F8B               	goto	l2690
  3079  0F95                     u1830:
  3080  0F95                     l2696:
  3081  0F95  1003               	clrc
  3082  0F96  0DF4               	rlf	___lbdiv@quotient,f
  3083  0F97  0870               	movf	___lbdiv@divisor,w
  3084  0F98  0272               	subwf	___lbdiv@dividend,w
  3085  0F99  1C03               	skipc
  3086  0F9A  2F9C               	goto	u1841
  3087  0F9B  2F9D               	goto	u1840
  3088  0F9C                     u1841:
  3089  0F9C  2FA0               	goto	l2702
  3090  0F9D                     u1840:
  3091  0F9D                     l2698:
  3092  0F9D  0870               	movf	___lbdiv@divisor,w
  3093  0F9E  02F2               	subwf	___lbdiv@dividend,f
  3094  0F9F                     l2700:
  3095  0F9F  1474               	bsf	___lbdiv@quotient,0
  3096  0FA0                     l2702:
  3097  0FA0  1003               	clrc
  3098  0FA1  0CF0               	rrf	___lbdiv@divisor,f
  3099  0FA2                     l2704:
  3100  0FA2  3001               	movlw	1
  3101  0FA3  02F3               	subwf	___lbdiv@counter,f
  3102  0FA4  1D03               	btfss	3,2
  3103  0FA5  2FA7               	goto	u1851
  3104  0FA6  2FA8               	goto	u1850
  3105  0FA7                     u1851:
  3106  0FA7  2F95               	goto	l2696
  3107  0FA8                     u1850:
  3108  0FA8                     l2706:
  3109  0FA8  0874               	movf	___lbdiv@quotient,w
  3110  0FA9                     l850:
  3111  0FA9  0008               	return
  3112  0FAA                     __end_of___lbdiv:
  3113                           
  3114                           	psect	text13
  3115  0292                     __ptext13:	
  3116 ;; *************** function ___awmod *****************
  3117 ;; Defined at:
  3118 ;;		line 5 in file "C:\Program Files\Microchip\xc8\v2.35\pic\sources\c90\common\awmod.c"
  3119 ;; Parameters:    Size  Location     Type
  3120 ;;  divisor         2    5[COMMON] int 
  3121 ;;  dividend        2    7[COMMON] int 
  3122 ;; Auto vars:     Size  Location     Type
  3123 ;;  sign            1   11[COMMON] unsigned char 
  3124 ;;  counter         1   10[COMMON] unsigned char 
  3125 ;; Return value:  Size  Location     Type
  3126 ;;                  2    5[COMMON] int 
  3127 ;; Registers used:
  3128 ;;		wreg, status,2, status,0
  3129 ;; Tracked objects:
  3130 ;;		On entry : 0/0
  3131 ;;		On exit  : 0/0
  3132 ;;		Unchanged: 0/0
  3133 ;; Data sizes:     COMMON   BANK0   BANK1   BANK3   BANK2
  3134 ;;      Params:         4       0       0       0       0
  3135 ;;      Locals:         2       0       0       0       0
  3136 ;;      Temps:          1       0       0       0       0
  3137 ;;      Totals:         7       0       0       0       0
  3138 ;;Total ram usage:        7 bytes
  3139 ;; Hardware stack levels used: 1
  3140 ;; This function calls:
  3141 ;;		Nothing
  3142 ;; This function is called by:
  3143 ;;		__$_logline_int
  3144 ;; This function uses a non-reentrant model
  3145 ;;
  3146                           
  3147  0292                     ___awmod:	
  3148                           ;psect for function ___awmod
  3149                           
  3150  0292                     l2646:	
  3151                           ;incstack = 0
  3152                           ; Regs used in ___awmod: [wreg+status,2+status,0]
  3153                           
  3154  0292  01FB               	clrf	___awmod@sign
  3155  0293                     l2648:
  3156  0293  1FF8               	btfss	___awmod@dividend+1,7
  3157  0294  2A96               	goto	u1731
  3158  0295  2A97               	goto	u1730
  3159  0296                     u1731:
  3160  0296  2A9E               	goto	l2654
  3161  0297                     u1730:
  3162  0297                     l2650:
  3163  0297  09F7               	comf	___awmod@dividend,f
  3164  0298  09F8               	comf	___awmod@dividend+1,f
  3165  0299  0AF7               	incf	___awmod@dividend,f
  3166  029A  1903               	skipnz
  3167  029B  0AF8               	incf	___awmod@dividend+1,f
  3168  029C                     l2652:
  3169  029C  01FB               	clrf	___awmod@sign
  3170  029D  0AFB               	incf	___awmod@sign,f
  3171  029E                     l2654:
  3172  029E  1FF6               	btfss	___awmod@divisor+1,7
  3173  029F  2AA1               	goto	u1741
  3174  02A0  2AA2               	goto	u1740
  3175  02A1                     u1741:
  3176  02A1  2AA7               	goto	l2658
  3177  02A2                     u1740:
  3178  02A2                     l2656:
  3179  02A2  09F5               	comf	___awmod@divisor,f
  3180  02A3  09F6               	comf	___awmod@divisor+1,f
  3181  02A4  0AF5               	incf	___awmod@divisor,f
  3182  02A5  1903               	skipnz
  3183  02A6  0AF6               	incf	___awmod@divisor+1,f
  3184  02A7                     l2658:
  3185  02A7  0875               	movf	___awmod@divisor,w
  3186  02A8  0476               	iorwf	___awmod@divisor+1,w
  3187  02A9  1903               	btfsc	3,2
  3188  02AA  2AAC               	goto	u1751
  3189  02AB  2AAD               	goto	u1750
  3190  02AC                     u1751:
  3191  02AC  2ADC               	goto	l2676
  3192  02AD                     u1750:
  3193  02AD                     l2660:
  3194  02AD  01FA               	clrf	___awmod@counter
  3195  02AE  0AFA               	incf	___awmod@counter,f
  3196  02AF  2ABB               	goto	l2666
  3197  02B0                     l2662:
  3198  02B0  3001               	movlw	1
  3199  02B1                     u1765:
  3200  02B1  1003               	clrc
  3201  02B2  0DF5               	rlf	___awmod@divisor,f
  3202  02B3  0DF6               	rlf	___awmod@divisor+1,f
  3203  02B4  3EFF               	addlw	-1
  3204  02B5  1D03               	skipz
  3205  02B6  2AB1               	goto	u1765
  3206  02B7                     l2664:
  3207  02B7  3001               	movlw	1
  3208  02B8  00F9               	movwf	??___awmod
  3209  02B9  0879               	movf	??___awmod,w
  3210  02BA  07FA               	addwf	___awmod@counter,f
  3211  02BB                     l2666:
  3212  02BB  1FF6               	btfss	___awmod@divisor+1,7
  3213  02BC  2ABE               	goto	u1771
  3214  02BD  2ABF               	goto	u1770
  3215  02BE                     u1771:
  3216  02BE  2AB0               	goto	l2662
  3217  02BF                     u1770:
  3218  02BF                     l2668:
  3219  02BF  0876               	movf	___awmod@divisor+1,w
  3220  02C0  0278               	subwf	___awmod@dividend+1,w
  3221  02C1  1D03               	skipz
  3222  02C2  2AC5               	goto	u1785
  3223  02C3  0875               	movf	___awmod@divisor,w
  3224  02C4  0277               	subwf	___awmod@dividend,w
  3225  02C5                     u1785:
  3226  02C5  1C03               	skipc
  3227  02C6  2AC8               	goto	u1781
  3228  02C7  2AC9               	goto	u1780
  3229  02C8                     u1781:
  3230  02C8  2ACF               	goto	l2672
  3231  02C9                     u1780:
  3232  02C9                     l2670:
  3233  02C9  0875               	movf	___awmod@divisor,w
  3234  02CA  02F7               	subwf	___awmod@dividend,f
  3235  02CB  0876               	movf	___awmod@divisor+1,w
  3236  02CC  1C03               	skipc
  3237  02CD  03F8               	decf	___awmod@dividend+1,f
  3238  02CE  02F8               	subwf	___awmod@dividend+1,f
  3239  02CF                     l2672:
  3240  02CF  3001               	movlw	1
  3241  02D0                     u1795:
  3242  02D0  1003               	clrc
  3243  02D1  0CF6               	rrf	___awmod@divisor+1,f
  3244  02D2  0CF5               	rrf	___awmod@divisor,f
  3245  02D3  3EFF               	addlw	-1
  3246  02D4  1D03               	skipz
  3247  02D5  2AD0               	goto	u1795
  3248  02D6                     l2674:
  3249  02D6  3001               	movlw	1
  3250  02D7  02FA               	subwf	___awmod@counter,f
  3251  02D8  1D03               	btfss	3,2
  3252  02D9  2ADB               	goto	u1801
  3253  02DA  2ADC               	goto	u1800
  3254  02DB                     u1801:
  3255  02DB  2ABF               	goto	l2668
  3256  02DC                     u1800:
  3257  02DC                     l2676:
  3258  02DC  087B               	movf	___awmod@sign,w
  3259  02DD  1903               	btfsc	3,2
  3260  02DE  2AE0               	goto	u1811
  3261  02DF  2AE1               	goto	u1810
  3262  02E0                     u1811:
  3263  02E0  2AE6               	goto	l2680
  3264  02E1                     u1810:
  3265  02E1                     l2678:
  3266  02E1  09F7               	comf	___awmod@dividend,f
  3267  02E2  09F8               	comf	___awmod@dividend+1,f
  3268  02E3  0AF7               	incf	___awmod@dividend,f
  3269  02E4  1903               	skipnz
  3270  02E5  0AF8               	incf	___awmod@dividend+1,f
  3271  02E6                     l2680:
  3272  02E6  0878               	movf	___awmod@dividend+1,w
  3273  02E7  00F6               	movwf	?___awmod+1
  3274  02E8  0877               	movf	___awmod@dividend,w
  3275  02E9  00F5               	movwf	?___awmod
  3276  02EA                     l810:
  3277  02EA  0008               	return
  3278  02EB                     __end_of___awmod:
  3279                           
  3280                           	psect	text14
  3281  0350                     __ptext14:	
  3282 ;; *************** function ___awdiv *****************
  3283 ;; Defined at:
  3284 ;;		line 5 in file "C:\Program Files\Microchip\xc8\v2.35\pic\sources\c90\common\awdiv.c"
  3285 ;; Parameters:    Size  Location     Type
  3286 ;;  divisor         2    0[COMMON] int 
  3287 ;;  dividend        2    2[COMMON] int 
  3288 ;; Auto vars:     Size  Location     Type
  3289 ;;  quotient        2    7[COMMON] int 
  3290 ;;  sign            1    6[COMMON] unsigned char 
  3291 ;;  counter         1    5[COMMON] unsigned char 
  3292 ;; Return value:  Size  Location     Type
  3293 ;;                  2    0[COMMON] int 
  3294 ;; Registers used:
  3295 ;;		wreg, status,2, status,0
  3296 ;; Tracked objects:
  3297 ;;		On entry : 0/0
  3298 ;;		On exit  : 0/0
  3299 ;;		Unchanged: 0/0
  3300 ;; Data sizes:     COMMON   BANK0   BANK1   BANK3   BANK2
  3301 ;;      Params:         4       0       0       0       0
  3302 ;;      Locals:         4       0       0       0       0
  3303 ;;      Temps:          1       0       0       0       0
  3304 ;;      Totals:         9       0       0       0       0
  3305 ;;Total ram usage:        9 bytes
  3306 ;; Hardware stack levels used: 1
  3307 ;; This function calls:
  3308 ;;		Nothing
  3309 ;; This function is called by:
  3310 ;;		__$_logline_int
  3311 ;; This function uses a non-reentrant model
  3312 ;;
  3313                           
  3314  0350                     ___awdiv:	
  3315                           ;psect for function ___awdiv
  3316                           
  3317  0350                     l2602:	
  3318                           ;incstack = 0
  3319                           ; Regs used in ___awdiv: [wreg+status,2+status,0]
  3320                           
  3321  0350  01F6               	clrf	___awdiv@sign
  3322  0351                     l2604:
  3323  0351  1FF1               	btfss	___awdiv@divisor+1,7
  3324  0352  2B54               	goto	u1631
  3325  0353  2B55               	goto	u1630
  3326  0354                     u1631:
  3327  0354  2B5C               	goto	l2610
  3328  0355                     u1630:
  3329  0355                     l2606:
  3330  0355  09F0               	comf	___awdiv@divisor,f
  3331  0356  09F1               	comf	___awdiv@divisor+1,f
  3332  0357  0AF0               	incf	___awdiv@divisor,f
  3333  0358  1903               	skipnz
  3334  0359  0AF1               	incf	___awdiv@divisor+1,f
  3335  035A                     l2608:
  3336  035A  01F6               	clrf	___awdiv@sign
  3337  035B  0AF6               	incf	___awdiv@sign,f
  3338  035C                     l2610:
  3339  035C  1FF3               	btfss	___awdiv@dividend+1,7
  3340  035D  2B5F               	goto	u1641
  3341  035E  2B60               	goto	u1640
  3342  035F                     u1641:
  3343  035F  2B69               	goto	l2616
  3344  0360                     u1640:
  3345  0360                     l2612:
  3346  0360  09F2               	comf	___awdiv@dividend,f
  3347  0361  09F3               	comf	___awdiv@dividend+1,f
  3348  0362  0AF2               	incf	___awdiv@dividend,f
  3349  0363  1903               	skipnz
  3350  0364  0AF3               	incf	___awdiv@dividend+1,f
  3351  0365                     l2614:
  3352  0365  3001               	movlw	1
  3353  0366  00F4               	movwf	??___awdiv
  3354  0367  0874               	movf	??___awdiv,w
  3355  0368  06F6               	xorwf	___awdiv@sign,f
  3356  0369                     l2616:
  3357  0369  01F7               	clrf	___awdiv@quotient
  3358  036A  01F8               	clrf	___awdiv@quotient+1
  3359  036B                     l2618:
  3360  036B  0870               	movf	___awdiv@divisor,w
  3361  036C  0471               	iorwf	___awdiv@divisor+1,w
  3362  036D  1903               	btfsc	3,2
  3363  036E  2B70               	goto	u1651
  3364  036F  2B71               	goto	u1650
  3365  0370                     u1651:
  3366  0370  2BA8               	goto	l2638
  3367  0371                     u1650:
  3368  0371                     l2620:
  3369  0371  01F5               	clrf	___awdiv@counter
  3370  0372  0AF5               	incf	___awdiv@counter,f
  3371  0373  2B7F               	goto	l2626
  3372  0374                     l2622:
  3373  0374  3001               	movlw	1
  3374  0375                     u1665:
  3375  0375  1003               	clrc
  3376  0376  0DF0               	rlf	___awdiv@divisor,f
  3377  0377  0DF1               	rlf	___awdiv@divisor+1,f
  3378  0378  3EFF               	addlw	-1
  3379  0379  1D03               	skipz
  3380  037A  2B75               	goto	u1665
  3381  037B                     l2624:
  3382  037B  3001               	movlw	1
  3383  037C  00F4               	movwf	??___awdiv
  3384  037D  0874               	movf	??___awdiv,w
  3385  037E  07F5               	addwf	___awdiv@counter,f
  3386  037F                     l2626:
  3387  037F  1FF1               	btfss	___awdiv@divisor+1,7
  3388  0380  2B82               	goto	u1671
  3389  0381  2B83               	goto	u1670
  3390  0382                     u1671:
  3391  0382  2B74               	goto	l2622
  3392  0383                     u1670:
  3393  0383                     l2628:
  3394  0383  3001               	movlw	1
  3395  0384                     u1685:
  3396  0384  1003               	clrc
  3397  0385  0DF7               	rlf	___awdiv@quotient,f
  3398  0386  0DF8               	rlf	___awdiv@quotient+1,f
  3399  0387  3EFF               	addlw	-1
  3400  0388  1D03               	skipz
  3401  0389  2B84               	goto	u1685
  3402  038A  0871               	movf	___awdiv@divisor+1,w
  3403  038B  0273               	subwf	___awdiv@dividend+1,w
  3404  038C  1D03               	skipz
  3405  038D  2B90               	goto	u1695
  3406  038E  0870               	movf	___awdiv@divisor,w
  3407  038F  0272               	subwf	___awdiv@dividend,w
  3408  0390                     u1695:
  3409  0390  1C03               	skipc
  3410  0391  2B93               	goto	u1691
  3411  0392  2B94               	goto	u1690
  3412  0393                     u1691:
  3413  0393  2B9B               	goto	l2634
  3414  0394                     u1690:
  3415  0394                     l2630:
  3416  0394  0870               	movf	___awdiv@divisor,w
  3417  0395  02F2               	subwf	___awdiv@dividend,f
  3418  0396  0871               	movf	___awdiv@divisor+1,w
  3419  0397  1C03               	skipc
  3420  0398  03F3               	decf	___awdiv@dividend+1,f
  3421  0399  02F3               	subwf	___awdiv@dividend+1,f
  3422  039A                     l2632:
  3423  039A  1477               	bsf	___awdiv@quotient,0
  3424  039B                     l2634:
  3425  039B  3001               	movlw	1
  3426  039C                     u1705:
  3427  039C  1003               	clrc
  3428  039D  0CF1               	rrf	___awdiv@divisor+1,f
  3429  039E  0CF0               	rrf	___awdiv@divisor,f
  3430  039F  3EFF               	addlw	-1
  3431  03A0  1D03               	skipz
  3432  03A1  2B9C               	goto	u1705
  3433  03A2                     l2636:
  3434  03A2  3001               	movlw	1
  3435  03A3  02F5               	subwf	___awdiv@counter,f
  3436  03A4  1D03               	btfss	3,2
  3437  03A5  2BA7               	goto	u1711
  3438  03A6  2BA8               	goto	u1710
  3439  03A7                     u1711:
  3440  03A7  2B83               	goto	l2628
  3441  03A8                     u1710:
  3442  03A8                     l2638:
  3443  03A8  0876               	movf	___awdiv@sign,w
  3444  03A9  1903               	btfsc	3,2
  3445  03AA  2BAC               	goto	u1721
  3446  03AB  2BAD               	goto	u1720
  3447  03AC                     u1721:
  3448  03AC  2BB2               	goto	l2642
  3449  03AD                     u1720:
  3450  03AD                     l2640:
  3451  03AD  09F7               	comf	___awdiv@quotient,f
  3452  03AE  09F8               	comf	___awdiv@quotient+1,f
  3453  03AF  0AF7               	incf	___awdiv@quotient,f
  3454  03B0  1903               	skipnz
  3455  03B1  0AF8               	incf	___awdiv@quotient+1,f
  3456  03B2                     l2642:
  3457  03B2  0878               	movf	___awdiv@quotient+1,w
  3458  03B3  00F1               	movwf	?___awdiv+1
  3459  03B4  0877               	movf	___awdiv@quotient,w
  3460  03B5  00F0               	movwf	?___awdiv
  3461  03B6                     l797:
  3462  03B6  0008               	return
  3463  03B7                     __end_of___awdiv:
  3464                           
  3465                           	psect	text15
  3466  06DF                     __ptext15:	
  3467 ;; *************** function _internet_relay *****************
  3468 ;; Defined at:
  3469 ;;		line 61 in file "C:/Users/abdal/Desktop/Embedded-shs/Embedded-shs/libs/internet.c"
  3470 ;; Parameters:    Size  Location     Type
  3471 ;;  payload         1    wreg     PTR unsigned char 
  3472 ;;		 -> buffer_rx(32), buffer_tx(32), 
  3473 ;;  size            1    0[BANK0 ] unsigned char 
  3474 ;; Auto vars:     Size  Location     Type
  3475 ;;  payload         1    3[BANK0 ] PTR unsigned char 
  3476 ;;		 -> buffer_rx(32), buffer_tx(32), 
  3477 ;;  packetHeader    1    2[BANK0 ] PTR struct Packet
  3478 ;;		 -> buffer_rx(32), buffer_tx(32), 
  3479 ;;  dstMask         1    1[BANK0 ] unsigned char 
  3480 ;;  status          1    0        unsigned char 
  3481 ;; Return value:  Size  Location     Type
  3482 ;;                  1    wreg      void 
  3483 ;; Registers used:
  3484 ;;		wreg, fsr0l, fsr0h, status,2, status,0, btemp+1, pclath, cstack
  3485 ;; Tracked objects:
  3486 ;;		On entry : 0/0
  3487 ;;		On exit  : 0/0
  3488 ;;		Unchanged: 0/0
  3489 ;; Data sizes:     COMMON   BANK0   BANK1   BANK3   BANK2
  3490 ;;      Params:         0       1       0       0       0
  3491 ;;      Locals:         0       3       0       0       0
  3492 ;;      Temps:          1       0       0       0       0
  3493 ;;      Totals:         1       4       0       0       0
  3494 ;;Total ram usage:        5 bytes
  3495 ;; Hardware stack levels used: 1
  3496 ;; Hardware stack levels required when called: 4
  3497 ;; This function calls:
  3498 ;;		_RF24_openReadingPipe
  3499 ;;		_RF24_openWritingPipe
  3500 ;;		_RF24_startListening
  3501 ;;		_RF24_stopListening
  3502 ;;		_RF24_write
  3503 ;;		_Serial_write
  3504 ;;		__$_logline_str
  3505 ;;		_internet_calculateMask
  3506 ;;		_internet_hasChild
  3507 ;; This function is called by:
  3508 ;;		_internet_tx
  3509 ;;		_internet_rx
  3510 ;; This function uses a non-reentrant model
  3511 ;;
  3512                           
  3513  06DF                     _internet_relay:	
  3514                           ;psect for function _internet_relay
  3515                           
  3516                           
  3517                           ;incstack = 0
  3518                           ; Regs used in _internet_relay: [wreg-fsr0h+status,2+status,0+btemp+1+pclath+cstack]
  3519                           ;internet_relay@payload stored from wreg
  3520  06DF  1283               	bcf	3,5	;RP0=0, select bank0
  3521  06E0  1303               	bcf	3,6	;RP1=0, select bank0
  3522  06E1  00A3               	movwf	internet_relay@payload
  3523  06E2                     l2874:
  3524                           
  3525                           ;C:/Users/abdal/Desktop/Embedded-shs/Embedded-shs/libs/internet.c: 61: void internet_rel
      +                          ay(uint8_t *payload, uint8_t size);C:/Users/abdal/Desktop/Embedded-shs/Embedded-shs/libs
      +                          /internet.c: 62: {;C:/Users/abdal/Desktop/Embedded-shs/Embedded-shs/libs/internet.c: 64:
      +                               struct Packet *packetHeader = (struct Packet *)payload;
  3526  06E2  0823               	movf	internet_relay@payload,w
  3527  06E3  00FC               	movwf	??_internet_relay
  3528  06E4  087C               	movf	??_internet_relay,w
  3529  06E5  00A2               	movwf	internet_relay@packetHeader
  3530  06E6                     l2876:
  3531                           
  3532                           ;C:/Users/abdal/Desktop/Embedded-shs/Embedded-shs/libs/internet.c: 65:     if (node.addr
      +                          ess == 0)
  3533  06E6  083D               	movf	_node,w
  3534  06E7  1D03               	btfss	3,2
  3535  06E8  2EEA               	goto	u2021
  3536  06E9  2EEB               	goto	u2020
  3537  06EA                     u2021:
  3538  06EA  2EEC               	goto	l2880
  3539  06EB                     u2020:
  3540  06EB  2FCC               	goto	l250
  3541  06EC                     l2880:
  3542                           
  3543                           ;C:/Users/abdal/Desktop/Embedded-shs/Embedded-shs/libs/internet.c: 72:     uint8_t dstMa
      +                          sk = internet_calculateMask(packetHeader->destination);
  3544  06EC  0822               	movf	internet_relay@packetHeader,w
  3545  06ED  3E03               	addlw	3
  3546  06EE  0084               	movwf	4
  3547  06EF  1383               	bcf	3,7	;select IRP bank0
  3548  06F0  0800               	movf	0,w
  3549  06F1  120A  118A  2003  120A  118A  	fcall	_internet_calculateMask
  3550  06F6  00FC               	movwf	??_internet_relay
  3551  06F7  087C               	movf	??_internet_relay,w
  3552  06F8  1283               	bcf	3,5	;RP0=0, select bank0
  3553  06F9  1303               	bcf	3,6	;RP1=0, select bank0
  3554  06FA  00A1               	movwf	internet_relay@dstMask
  3555  06FB                     l2882:
  3556                           
  3557                           ;C:/Users/abdal/Desktop/Embedded-shs/Embedded-shs/libs/internet.c: 73:     uint8_t statu
      +                          s;;C:/Users/abdal/Desktop/Embedded-shs/Embedded-shs/libs/internet.c: 74:     if (dstMask
      +                           > node.mask && internet_hasChild(packetHeader->destination))
  3558  06FB  0821               	movf	internet_relay@dstMask,w
  3559  06FC  023E               	subwf	_node+1,w
  3560  06FD  1803               	skipnc
  3561  06FE  2F00               	goto	u2031
  3562  06FF  2F01               	goto	u2030
  3563  0700                     u2031:
  3564  0700  2F7C               	goto	l2912
  3565  0701                     u2030:
  3566  0701                     l2884:
  3567  0701  0822               	movf	internet_relay@packetHeader,w
  3568  0702  3E03               	addlw	3
  3569  0703  0084               	movwf	4
  3570  0704  1383               	bcf	3,7	;select IRP bank0
  3571  0705  0800               	movf	0,w
  3572  0706  120A  158A  2555  120A  118A  	fcall	_internet_hasChild
  3573  070B  3A00               	xorlw	0
  3574  070C  1903               	skipnz
  3575  070D  2F0F               	goto	u2041
  3576  070E  2F10               	goto	u2040
  3577  070F                     u2041:
  3578  070F  2F7C               	goto	l2912
  3579  0710                     u2040:
  3580  0710                     l2886:
  3581                           
  3582                           ;C:/Users/abdal/Desktop/Embedded-shs/Embedded-shs/libs/internet.c: 75:     {;C:/Users/ab
      +                          dal/Desktop/Embedded-shs/Embedded-shs/libs/internet.c: 76:         if (packetHeader->des
      +                          tination & node.routingMask)
  3583  0710  1283               	bcf	3,5	;RP0=0, select bank0
  3584  0711  1303               	bcf	3,6	;RP1=0, select bank0
  3585  0712  0822               	movf	internet_relay@packetHeader,w
  3586  0713  3E03               	addlw	3
  3587  0714  0084               	movwf	4
  3588  0715  1383               	bcf	3,7	;select IRP bank0
  3589  0716  0800               	movf	0,w
  3590  0717  053F               	andwf	_node+2,w
  3591  0718  1903               	btfsc	3,2
  3592  0719  2F1B               	goto	u2051
  3593  071A  2F1C               	goto	u2050
  3594  071B                     u2051:
  3595  071B  2F4C               	goto	l2900
  3596  071C                     u2050:
  3597  071C                     l2888:
  3598                           
  3599                           ;C:/Users/abdal/Desktop/Embedded-shs/Embedded-shs/libs/internet.c: 77:         {;C:/User
      +                          s/abdal/Desktop/Embedded-shs/Embedded-shs/libs/internet.c: 79:             networkInfo.n
      +                          etworkPipe[0] = node.child1;
  3600  071C  0841               	movf	_node+4,w
  3601  071D  00FC               	movwf	??_internet_relay
  3602  071E  087C               	movf	??_internet_relay,w
  3603  071F  00C4               	movwf	_networkInfo
  3604  0720                     l2890:
  3605                           
  3606                           ;C:/Users/abdal/Desktop/Embedded-shs/Embedded-shs/libs/internet.c: 80:             RF24_
      +                          openReadingPipe(0, networkInfo.networkPipe);
  3607  0720  3044               	movlw	(low (_networkInfo| 0))& (0+255)
  3608  0721  00F7               	movwf	RF24_openReadingPipe@address
  3609  0722  3000               	movlw	0
  3610  0723  00F8               	movwf	RF24_openReadingPipe@address+1
  3611  0724  3000               	movlw	0
  3612  0725  120A  118A  2201  120A  118A  	fcall	_RF24_openReadingPipe
  3613  072A                     l2892:
  3614                           
  3615                           ;C:/Users/abdal/Desktop/Embedded-shs/Embedded-shs/libs/internet.c: 81:             RF24_
      +                          openWritingPipe(networkInfo.networkPipe);
  3616  072A  3044               	movlw	(low (_networkInfo| 0))& (0+255)
  3617  072B  120A  158A  2545  120A  118A  	fcall	_RF24_openWritingPipe
  3618  0730                     l2894:
  3619                           
  3620                           ;C:/Users/abdal/Desktop/Embedded-shs/Embedded-shs/libs/internet.c: 82:             RF24_
      +                          stopListening();
  3621  0730  120A  158A  2759  120A  118A  	fcall	_RF24_stopListening
  3622  0735                     l2896:
  3623                           
  3624                           ;C:/Users/abdal/Desktop/Embedded-shs/Embedded-shs/libs/internet.c: 83:             RF24_
      +                          write(payload, size);
  3625  0735  1283               	bcf	3,5	;RP0=0, select bank0
  3626  0736  1303               	bcf	3,6	;RP1=0, select bank0
  3627  0737  0820               	movf	internet_relay@size,w
  3628  0738  00FC               	movwf	??_internet_relay
  3629  0739  087C               	movf	??_internet_relay,w
  3630  073A  00F8               	movwf	RF24_write@len
  3631  073B  0823               	movf	internet_relay@payload,w
  3632  073C  120A  118A  2247  120A  118A  	fcall	_RF24_write
  3633  0741                     l2898:
  3634                           
  3635                           ;C:/Users/abdal/Desktop/Embedded-shs/Embedded-shs/libs/internet.c: 84:             RF24_
      +                          openReadingPipe(0, BASE_PIPE);
  3636  0741  302F               	movlw	low (_BASE_PIPE| (0+32768))
  3637  0742  00F7               	movwf	RF24_openReadingPipe@address
  3638  0743  3088               	movlw	high (_BASE_PIPE| (0+32768))
  3639  0744  00F8               	movwf	RF24_openReadingPipe@address+1
  3640  0745  3000               	movlw	0
  3641  0746  120A  118A  2201  120A  118A  	fcall	_RF24_openReadingPipe
  3642                           
  3643                           ;C:/Users/abdal/Desktop/Embedded-shs/Embedded-shs/libs/internet.c: 85:         }
  3644  074B  2FC7               	goto	l2930
  3645  074C                     l2900:
  3646                           
  3647                           ;C:/Users/abdal/Desktop/Embedded-shs/Embedded-shs/libs/internet.c: 87:         {;C:/User
      +                          s/abdal/Desktop/Embedded-shs/Embedded-shs/libs/internet.c: 89:             networkInfo.n
      +                          etworkPipe[0] = node.child0;
  3648  074C  0840               	movf	_node+3,w
  3649  074D  00FC               	movwf	??_internet_relay
  3650  074E  087C               	movf	??_internet_relay,w
  3651  074F  00C4               	movwf	_networkInfo
  3652  0750                     l2902:
  3653                           
  3654                           ;C:/Users/abdal/Desktop/Embedded-shs/Embedded-shs/libs/internet.c: 90:             RF24_
      +                          openReadingPipe(0, networkInfo.networkPipe);
  3655  0750  3044               	movlw	(low (_networkInfo| 0))& (0+255)
  3656  0751  00F7               	movwf	RF24_openReadingPipe@address
  3657  0752  3000               	movlw	0
  3658  0753  00F8               	movwf	RF24_openReadingPipe@address+1
  3659  0754  3000               	movlw	0
  3660  0755  120A  118A  2201  120A  118A  	fcall	_RF24_openReadingPipe
  3661  075A                     l2904:
  3662                           
  3663                           ;C:/Users/abdal/Desktop/Embedded-shs/Embedded-shs/libs/internet.c: 91:             RF24_
      +                          openWritingPipe(networkInfo.networkPipe);
  3664  075A  3044               	movlw	(low (_networkInfo| 0))& (0+255)
  3665  075B  120A  158A  2545  120A  118A  	fcall	_RF24_openWritingPipe
  3666  0760                     l2906:
  3667                           
  3668                           ;C:/Users/abdal/Desktop/Embedded-shs/Embedded-shs/libs/internet.c: 92:             RF24_
      +                          stopListening();
  3669  0760  120A  158A  2759  120A  118A  	fcall	_RF24_stopListening
  3670  0765                     l2908:
  3671                           
  3672                           ;C:/Users/abdal/Desktop/Embedded-shs/Embedded-shs/libs/internet.c: 93:             RF24_
      +                          write(payload, size);
  3673  0765  1283               	bcf	3,5	;RP0=0, select bank0
  3674  0766  1303               	bcf	3,6	;RP1=0, select bank0
  3675  0767  0820               	movf	internet_relay@size,w
  3676  0768  00FC               	movwf	??_internet_relay
  3677  0769  087C               	movf	??_internet_relay,w
  3678  076A  00F8               	movwf	RF24_write@len
  3679  076B  0823               	movf	internet_relay@payload,w
  3680  076C  120A  118A  2247  120A  118A  	fcall	_RF24_write
  3681  0771                     l2910:
  3682                           
  3683                           ;C:/Users/abdal/Desktop/Embedded-shs/Embedded-shs/libs/internet.c: 94:             RF24_
      +                          openReadingPipe(0, BASE_PIPE);
  3684  0771  302F               	movlw	low (_BASE_PIPE| (0+32768))
  3685  0772  00F7               	movwf	RF24_openReadingPipe@address
  3686  0773  3088               	movlw	high (_BASE_PIPE| (0+32768))
  3687  0774  00F8               	movwf	RF24_openReadingPipe@address+1
  3688  0775  3000               	movlw	0
  3689  0776  120A  118A  2201  120A  118A  	fcall	_RF24_openReadingPipe
  3690  077B  2FC7               	goto	l2930
  3691  077C                     l2912:
  3692                           
  3693                           ;C:/Users/abdal/Desktop/Embedded-shs/Embedded-shs/libs/internet.c: 98:     {;C:/Users/ab
      +                          dal/Desktop/Embedded-shs/Embedded-shs/libs/internet.c: 100:         networkInfo.networkP
      +                          ipe[0] = node.address;
  3694  077C  1283               	bcf	3,5	;RP0=0, select bank0
  3695  077D  1303               	bcf	3,6	;RP1=0, select bank0
  3696  077E  083D               	movf	_node,w
  3697  077F  00FC               	movwf	??_internet_relay
  3698  0780  087C               	movf	??_internet_relay,w
  3699  0781  00C4               	movwf	_networkInfo
  3700  0782                     l2914:
  3701                           
  3702                           ;C:/Users/abdal/Desktop/Embedded-shs/Embedded-shs/libs/internet.c: 101:         RF24_ope
      +                          nReadingPipe(0, networkInfo.networkPipe);
  3703  0782  3044               	movlw	(low (_networkInfo| 0))& (0+255)
  3704  0783  00F7               	movwf	RF24_openReadingPipe@address
  3705  0784  3000               	movlw	0
  3706  0785  00F8               	movwf	RF24_openReadingPipe@address+1
  3707  0786  3000               	movlw	0
  3708  0787  120A  118A  2201  120A  118A  	fcall	_RF24_openReadingPipe
  3709  078C                     l2916:
  3710                           
  3711                           ;C:/Users/abdal/Desktop/Embedded-shs/Embedded-shs/libs/internet.c: 102:         RF24_ope
      +                          nWritingPipe(networkInfo.networkPipe);
  3712  078C  3044               	movlw	(low (_networkInfo| 0))& (0+255)
  3713  078D  120A  158A  2545  120A  118A  	fcall	_RF24_openWritingPipe
  3714  0792                     l2918:
  3715                           
  3716                           ;C:/Users/abdal/Desktop/Embedded-shs/Embedded-shs/libs/internet.c: 103:         RF24_sto
      +                          pListening();
  3717  0792  120A  158A  2759  120A  118A  	fcall	_RF24_stopListening
  3718  0797                     l2920:
  3719                           
  3720                           ;C:/Users/abdal/Desktop/Embedded-shs/Embedded-shs/libs/internet.c: 104:         _$_logli
      +                          ne_str((char *)"payload =");
  3721  0797  3096               	movlw	low (STR_6| (0+32768))
  3722  0798  00F1               	movwf	__$_logline_str@string
  3723  0799  3088               	movlw	high (STR_6| (0+32768))
  3724  079A  00F2               	movwf	__$_logline_str@string+1
  3725  079B  120A  118A  203E  120A  118A  	fcall	__$_logline_str
  3726  07A0                     l2922:
  3727                           
  3728                           ;C:/Users/abdal/Desktop/Embedded-shs/Embedded-shs/libs/internet.c: 105:         _$_logli
      +                          ne_str((char *)payload); Serial_write((uint8_t)'\n');
  3729  07A0  1283               	bcf	3,5	;RP0=0, select bank0
  3730  07A1  1303               	bcf	3,6	;RP1=0, select bank0
  3731  07A2  0823               	movf	internet_relay@payload,w
  3732  07A3  00F1               	movwf	__$_logline_str@string
  3733  07A4  3000               	movlw	0
  3734  07A5  00F2               	movwf	__$_logline_str@string+1
  3735  07A6  120A  118A  203E  120A  118A  	fcall	__$_logline_str
  3736  07AB                     l2924:
  3737  07AB  300A               	movlw	10
  3738  07AC  120A  158A  252B  120A  118A  	fcall	_Serial_write
  3739  07B1                     l2926:
  3740                           
  3741                           ;C:/Users/abdal/Desktop/Embedded-shs/Embedded-shs/libs/internet.c: 106:         RF24_wri
      +                          te(payload, size);
  3742  07B1  1283               	bcf	3,5	;RP0=0, select bank0
  3743  07B2  1303               	bcf	3,6	;RP1=0, select bank0
  3744  07B3  0820               	movf	internet_relay@size,w
  3745  07B4  00FC               	movwf	??_internet_relay
  3746  07B5  087C               	movf	??_internet_relay,w
  3747  07B6  00F8               	movwf	RF24_write@len
  3748  07B7  0823               	movf	internet_relay@payload,w
  3749  07B8  120A  118A  2247  120A  118A  	fcall	_RF24_write
  3750  07BD                     l2928:
  3751                           
  3752                           ;C:/Users/abdal/Desktop/Embedded-shs/Embedded-shs/libs/internet.c: 108:         RF24_ope
      +                          nReadingPipe(0, BASE_PIPE);
  3753  07BD  302F               	movlw	low (_BASE_PIPE| (0+32768))
  3754  07BE  00F7               	movwf	RF24_openReadingPipe@address
  3755  07BF  3088               	movlw	high (_BASE_PIPE| (0+32768))
  3756  07C0  00F8               	movwf	RF24_openReadingPipe@address+1
  3757  07C1  3000               	movlw	0
  3758  07C2  120A  118A  2201  120A  118A  	fcall	_RF24_openReadingPipe
  3759  07C7                     l2930:
  3760                           
  3761                           ;C:/Users/abdal/Desktop/Embedded-shs/Embedded-shs/libs/internet.c: 110:     RF24_startLi
      +                          stening();
  3762  07C7  120A  158A  266F  120A  118A  	fcall	_RF24_startListening
  3763  07CC                     l250:
  3764  07CC  0008               	return
  3765  07CD                     __end_of_internet_relay:
  3766                           
  3767                           	psect	text16
  3768  0D55                     __ptext16:	
  3769 ;; *************** function _internet_hasChild *****************
  3770 ;; Defined at:
  3771 ;;		line 133 in file "C:/Users/abdal/Desktop/Embedded-shs/Embedded-shs/libs/internet.c"
  3772 ;; Parameters:    Size  Location     Type
  3773 ;;  address         1    wreg     unsigned char 
  3774 ;; Auto vars:     Size  Location     Type
  3775 ;;  address         1    1[COMMON] unsigned char 
  3776 ;; Return value:  Size  Location     Type
  3777 ;;                  1    wreg      unsigned char 
  3778 ;; Registers used:
  3779 ;;		wreg, status,2, status,0
  3780 ;; Tracked objects:
  3781 ;;		On entry : 0/0
  3782 ;;		On exit  : 0/0
  3783 ;;		Unchanged: 0/0
  3784 ;; Data sizes:     COMMON   BANK0   BANK1   BANK3   BANK2
  3785 ;;      Params:         0       0       0       0       0
  3786 ;;      Locals:         1       0       0       0       0
  3787 ;;      Temps:          1       0       0       0       0
  3788 ;;      Totals:         2       0       0       0       0
  3789 ;;Total ram usage:        2 bytes
  3790 ;; Hardware stack levels used: 1
  3791 ;; This function calls:
  3792 ;;		Nothing
  3793 ;; This function is called by:
  3794 ;;		_internet_relay
  3795 ;; This function uses a non-reentrant model
  3796 ;;
  3797                           
  3798  0D55                     _internet_hasChild:	
  3799                           ;psect for function _internet_hasChild
  3800                           
  3801                           
  3802                           ;incstack = 0
  3803                           ; Regs used in _internet_hasChild: [wreg+status,2+status,0]
  3804                           ;internet_hasChild@address stored from wreg
  3805  0D55  00F1               	movwf	internet_hasChild@address
  3806  0D56                     l2822:
  3807                           
  3808                           ;C:/Users/abdal/Desktop/Embedded-shs/Embedded-shs/libs/internet.c: 133: uint8_t internet
      +                          _hasChild(uint8_t address);C:/Users/abdal/Desktop/Embedded-shs/Embedded-shs/libs/interne
      +                          t.c: 134: {;C:/Users/abdal/Desktop/Embedded-shs/Embedded-shs/libs/internet.c: 135:     r
      +                          eturn (address & node.mask) == (node.address & node.mask);
  3809  0D56  1283               	bcf	3,5	;RP0=0, select bank0
  3810  0D57  1303               	bcf	3,6	;RP1=0, select bank0
  3811  0D58  083D               	movf	_node,w
  3812  0D59  053E               	andwf	_node+1,w
  3813  0D5A  00F0               	movwf	??_internet_hasChild
  3814  0D5B  083E               	movf	_node+1,w
  3815  0D5C  0571               	andwf	internet_hasChild@address,w
  3816  0D5D  0670               	xorwf	??_internet_hasChild,w
  3817  0D5E  1903               	skipnz
  3818  0D5F  2D61               	goto	u1961
  3819  0D60  2D63               	goto	u1960
  3820  0D61                     u1961:
  3821  0D61  3001               	movlw	1
  3822  0D62  2D64               	goto	u1970
  3823  0D63                     u1960:
  3824  0D63  3000               	movlw	0
  3825  0D64                     u1970:
  3826  0D64                     l266:
  3827  0D64  0008               	return
  3828  0D65                     __end_of_internet_hasChild:
  3829                           
  3830                           	psect	text17
  3831  0003                     __ptext17:	
  3832 ;; *************** function _internet_calculateMask *****************
  3833 ;; Defined at:
  3834 ;;		line 112 in file "C:/Users/abdal/Desktop/Embedded-shs/Embedded-shs/libs/internet.c"
  3835 ;; Parameters:    Size  Location     Type
  3836 ;;  address         1    wreg     unsigned char 
  3837 ;; Auto vars:     Size  Location     Type
  3838 ;;  address         1    0[COMMON] unsigned char 
  3839 ;;  mask            1    1[COMMON] unsigned char 
  3840 ;; Return value:  Size  Location     Type
  3841 ;;                  1    wreg      unsigned char 
  3842 ;; Registers used:
  3843 ;;		wreg, status,2, status,0
  3844 ;; Tracked objects:
  3845 ;;		On entry : 0/0
  3846 ;;		On exit  : 0/0
  3847 ;;		Unchanged: 0/0
  3848 ;; Data sizes:     COMMON   BANK0   BANK1   BANK3   BANK2
  3849 ;;      Params:         0       0       0       0       0
  3850 ;;      Locals:         2       0       0       0       0
  3851 ;;      Temps:          0       0       0       0       0
  3852 ;;      Totals:         2       0       0       0       0
  3853 ;;Total ram usage:        2 bytes
  3854 ;; Hardware stack levels used: 1
  3855 ;; This function calls:
  3856 ;;		Nothing
  3857 ;; This function is called by:
  3858 ;;		_internet_relay
  3859 ;;		_internet_setAddress
  3860 ;; This function uses a non-reentrant model
  3861 ;;
  3862                           
  3863  0003                     _internet_calculateMask:	
  3864                           ;psect for function _internet_calculateMask
  3865                           
  3866                           
  3867                           ;incstack = 0
  3868                           ; Regs used in _internet_calculateMask: [wreg+status,2+status,0]
  3869                           ;internet_calculateMask@address stored from wreg
  3870  0003  00F0               	movwf	internet_calculateMask@address
  3871  0004                     l2810:
  3872                           
  3873                           ;C:/Users/abdal/Desktop/Embedded-shs/Embedded-shs/libs/internet.c: 112: uint8_t internet
      +                          _calculateMask(uint8_t address);C:/Users/abdal/Desktop/Embedded-shs/Embedded-shs/libs/in
      +                          ternet.c: 113: {;C:/Users/abdal/Desktop/Embedded-shs/Embedded-shs/libs/internet.c: 114: 
      +                              uint8_t mask = 0;
  3874  0004  01F1               	clrf	internet_calculateMask@mask
  3875                           
  3876                           ;C:/Users/abdal/Desktop/Embedded-shs/Embedded-shs/libs/internet.c: 115:     while (addre
      +                          ss > 1)
  3877  0005  280A               	goto	l2816
  3878  0006                     l2812:
  3879                           
  3880                           ;C:/Users/abdal/Desktop/Embedded-shs/Embedded-shs/libs/internet.c: 116:     {;C:/Users/a
      +                          bdal/Desktop/Embedded-shs/Embedded-shs/libs/internet.c: 117:         mask = (mask << 1) 
      +                          | 1;
  3881  0006  1403               	setc
  3882  0007  0DF1               	rlf	internet_calculateMask@mask,f
  3883  0008                     l2814:
  3884                           
  3885                           ;C:/Users/abdal/Desktop/Embedded-shs/Embedded-shs/libs/internet.c: 118:         address 
      +                          >>= 1;
  3886  0008  1003               	clrc
  3887  0009  0CF0               	rrf	internet_calculateMask@address,f
  3888  000A                     l2816:
  3889                           
  3890                           ;C:/Users/abdal/Desktop/Embedded-shs/Embedded-shs/libs/internet.c: 115:     while (addre
      +                          ss > 1)
  3891  000A  3002               	movlw	2
  3892  000B  0270               	subwf	internet_calculateMask@address,w
  3893  000C  1803               	skipnc
  3894  000D  280F               	goto	u1951
  3895  000E  2810               	goto	u1950
  3896  000F                     u1951:
  3897  000F  2806               	goto	l2812
  3898  0010                     u1950:
  3899  0010                     l2818:
  3900                           
  3901                           ;C:/Users/abdal/Desktop/Embedded-shs/Embedded-shs/libs/internet.c: 120:     return mask;
  3902  0010  0871               	movf	internet_calculateMask@mask,w
  3903  0011                     l260:
  3904  0011  0008               	return
  3905  0012                     __end_of_internet_calculateMask:
  3906                           
  3907                           	psect	text18
  3908  003E                     __ptext18:	
  3909 ;; *************** function __$_logline_str *****************
  3910 ;; Defined at:
  3911 ;;		line 5 in file "C:/Users/abdal/Desktop/Embedded-shs/Embedded-shs/libs/logline.c"
  3912 ;; Parameters:    Size  Location     Type
  3913 ;;  string          2    1[COMMON] PTR unsigned char 
  3914 ;;		 -> STR_24(23), STR_23(3), STR_22(6), STR_21(6), 
  3915 ;;		 -> STR_20(6), STR_19(6), STR_18(6), STR_17(6), 
  3916 ;;		 -> STR_16(11), STR_15(7), STR_14(9), STR_13(6), 
  3917 ;;		 -> STR_12(11), STR_11(9), STR_10(10), STR_9(6), 
  3918 ;;		 -> STR_8(7), STR_7(23), STR_6(10), STR_5(8), 
  3919 ;;		 -> STR_4(8), STR_3(20), STR_2(7), buffer_rx(32), 
  3920 ;;		 -> buffer_tx(32), 
  3921 ;; Auto vars:     Size  Location     Type
  3922 ;;  limit           1    4[COMMON] unsigned char 
  3923 ;; Return value:  Size  Location     Type
  3924 ;;                  1    wreg      void 
  3925 ;; Registers used:
  3926 ;;		wreg, fsr0l, fsr0h, status,2, status,0, btemp+1, pclath, cstack
  3927 ;; Tracked objects:
  3928 ;;		On entry : 0/0
  3929 ;;		On exit  : 0/0
  3930 ;;		Unchanged: 0/0
  3931 ;; Data sizes:     COMMON   BANK0   BANK1   BANK3   BANK2
  3932 ;;      Params:         2       0       0       0       0
  3933 ;;      Locals:         1       0       0       0       0
  3934 ;;      Temps:          1       0       0       0       0
  3935 ;;      Totals:         4       0       0       0       0
  3936 ;;Total ram usage:        4 bytes
  3937 ;; Hardware stack levels used: 1
  3938 ;; Hardware stack levels required when called: 1
  3939 ;; This function calls:
  3940 ;;		_Serial_write
  3941 ;; This function is called by:
  3942 ;;		_transport_udp_process
  3943 ;;		_internet_relay
  3944 ;; This function uses a non-reentrant model
  3945 ;;
  3946                           
  3947  003E                     __$_logline_str:	
  3948                           ;psect for function __$_logline_str
  3949                           
  3950  003E                     l2710:	
  3951                           ;incstack = 0
  3952                           ; Regs used in __$_logline_str: [wreg-fsr0h+status,2+status,0+btemp+1+pclath+cstack]
  3953                           
  3954                           
  3955                           ;C:/Users/abdal/Desktop/Embedded-shs/Embedded-shs/libs/logline.c: 5: void _$_logline_str
      +                          (char *string);C:/Users/abdal/Desktop/Embedded-shs/Embedded-shs/libs/logline.c: 6: {;C:/
      +                          Users/abdal/Desktop/Embedded-shs/Embedded-shs/libs/logline.c: 7:     uint8_t limit=100;
  3956  003E  3064               	movlw	100
  3957  003F  00F3               	movwf	??__$_logline_str
  3958  0040  0873               	movf	??__$_logline_str,w
  3959  0041  00F4               	movwf	__$_logline_str@limit
  3960                           
  3961                           ;C:/Users/abdal/Desktop/Embedded-shs/Embedded-shs/libs/logline.c: 8:     while (*string 
      +                          != '\0' && limit--)
  3962  0042  2857               	goto	l2716
  3963  0043                     l2712:
  3964                           
  3965                           ;C:/Users/abdal/Desktop/Embedded-shs/Embedded-shs/libs/logline.c: 9:     {;C:/Users/abda
      +                          l/Desktop/Embedded-shs/Embedded-shs/libs/logline.c: 10:         Serial_write(*(uint8_t *
      +                          )string);
  3966  0043  0872               	movf	__$_logline_str@string+1,w
  3967  0044  00FF               	movwf	btemp+1
  3968  0045  0871               	movf	__$_logline_str@string,w
  3969  0046  0084               	movwf	4
  3970  0047  120A  158A  2000  120A  118A  	fcall	stringtab
  3971  004C  120A  158A  252B  120A  118A  	fcall	_Serial_write
  3972  0051                     l2714:
  3973                           
  3974                           ;C:/Users/abdal/Desktop/Embedded-shs/Embedded-shs/libs/logline.c: 11:         string++;
  3975  0051  3001               	movlw	1
  3976  0052  07F1               	addwf	__$_logline_str@string,f
  3977  0053  1803               	skipnc
  3978  0054  0AF2               	incf	__$_logline_str@string+1,f
  3979  0055  3000               	movlw	0
  3980  0056  07F2               	addwf	__$_logline_str@string+1,f
  3981  0057                     l2716:
  3982                           
  3983                           ;C:/Users/abdal/Desktop/Embedded-shs/Embedded-shs/libs/logline.c: 8:     while (*string 
      +                          != '\0' && limit--)
  3984  0057  0872               	movf	__$_logline_str@string+1,w
  3985  0058  1283               	bcf	3,5	;RP0=0, select bank0
  3986  0059  1303               	bcf	3,6	;RP1=0, select bank0
  3987  005A  00FF               	movwf	btemp+1
  3988  005B  0871               	movf	__$_logline_str@string,w
  3989  005C  0084               	movwf	4
  3990  005D  120A  158A  2000  120A  118A  	fcall	stringtab
  3991  0062  3A00               	xorlw	0
  3992  0063  1903               	skipnz
  3993  0064  2866               	goto	u1861
  3994  0065  2867               	goto	u1860
  3995  0066                     u1861:
  3996  0066  286E               	goto	l604
  3997  0067                     u1860:
  3998  0067                     l2718:
  3999  0067  3001               	movlw	1
  4000  0068  02F4               	subwf	__$_logline_str@limit,f
  4001  0069  0A74               	incf	__$_logline_str@limit,w
  4002  006A  1D03               	btfss	3,2
  4003  006B  286D               	goto	u1871
  4004  006C  286E               	goto	u1870
  4005  006D                     u1871:
  4006  006D  2843               	goto	l2712
  4007  006E                     u1870:
  4008  006E                     l604:
  4009  006E  0008               	return
  4010  006F                     __end_of__$_logline_str:
  4011                           
  4012                           	psect	text19
  4013  0D2B                     __ptext19:	
  4014 ;; *************** function _Serial_write *****************
  4015 ;; Defined at:
  4016 ;;		line 36 in file "C:/Users/abdal/Desktop/Embedded-shs/Embedded-shs/libs/Serial.c"
  4017 ;; Parameters:    Size  Location     Type
  4018 ;;  data            1    wreg     unsigned char 
  4019 ;; Auto vars:     Size  Location     Type
  4020 ;;  data            1    0[COMMON] unsigned char 
  4021 ;; Return value:  Size  Location     Type
  4022 ;;                  1    wreg      void 
  4023 ;; Registers used:
  4024 ;;		wreg
  4025 ;; Tracked objects:
  4026 ;;		On entry : 0/0
  4027 ;;		On exit  : 0/0
  4028 ;;		Unchanged: 0/0
  4029 ;; Data sizes:     COMMON   BANK0   BANK1   BANK3   BANK2
  4030 ;;      Params:         0       0       0       0       0
  4031 ;;      Locals:         1       0       0       0       0
  4032 ;;      Temps:          0       0       0       0       0
  4033 ;;      Totals:         1       0       0       0       0
  4034 ;;Total ram usage:        1 bytes
  4035 ;; Hardware stack levels used: 1
  4036 ;; This function calls:
  4037 ;;		Nothing
  4038 ;; This function is called by:
  4039 ;;		_transport_udp_process
  4040 ;;		_internet_relay
  4041 ;;		__$_logline_str
  4042 ;;		__$_logline_int
  4043 ;; This function uses a non-reentrant model
  4044 ;;
  4045                           
  4046  0D2B                     _Serial_write:	
  4047                           ;psect for function _Serial_write
  4048                           
  4049                           
  4050                           ;incstack = 0
  4051                           ; Regs used in _Serial_write: [wreg]
  4052                           ;Serial_write@data stored from wreg
  4053  0D2B  00F0               	movwf	Serial_write@data
  4054  0D2C                     l2590:
  4055  0D2C                     l585:	
  4056                           ;C:/Users/abdal/Desktop/Embedded-shs/Embedded-shs/libs/Serial.c: 39:         ;
  4057                           
  4058                           
  4059                           ;C:/Users/abdal/Desktop/Embedded-shs/Embedded-shs/libs/Serial.c: 38:     while (!TRMT)
  4060  0D2C  1683               	bsf	3,5	;RP0=1, select bank1
  4061  0D2D  1303               	bcf	3,6	;RP1=0, select bank1
  4062  0D2E  1C98               	btfss	24,1	;volatile
  4063  0D2F  2D31               	goto	u1621
  4064  0D30  2D32               	goto	u1620
  4065  0D31                     u1621:
  4066  0D31  2D2C               	goto	l585
  4067  0D32                     u1620:
  4068  0D32                     l2592:
  4069                           
  4070                           ;C:/Users/abdal/Desktop/Embedded-shs/Embedded-shs/libs/Serial.c: 40:     TXREG = data;
  4071  0D32  0870               	movf	Serial_write@data,w
  4072  0D33  1283               	bcf	3,5	;RP0=0, select bank0
  4073  0D34  1303               	bcf	3,6	;RP1=0, select bank0
  4074  0D35  0099               	movwf	25	;volatile
  4075  0D36                     l588:
  4076  0D36  0008               	return
  4077  0D37                     __end_of_Serial_write:
  4078                           
  4079                           	psect	text20
  4080  0247                     __ptext20:	
  4081 ;; *************** function _RF24_write *****************
  4082 ;; Defined at:
  4083 ;;		line 198 in file "C:/Users/abdal/Desktop/Embedded-shs/Embedded-shs/libs/rf24.c"
  4084 ;; Parameters:    Size  Location     Type
  4085 ;;  buf             1    wreg     PTR void 
  4086 ;;		 -> buffer_rx(32), buffer_tx(32), 
  4087 ;;  len             1    8[COMMON] unsigned char 
  4088 ;; Auto vars:     Size  Location     Type
  4089 ;;  buf             1   10[COMMON] PTR void 
  4090 ;;		 -> buffer_rx(32), buffer_tx(32), 
  4091 ;; Return value:  Size  Location     Type
  4092 ;;                  1    wreg      unsigned char 
  4093 ;; Registers used:
  4094 ;;		wreg, fsr0l, fsr0h, status,2, status,0, pclath, cstack
  4095 ;; Tracked objects:
  4096 ;;		On entry : 0/0
  4097 ;;		On exit  : 0/0
  4098 ;;		Unchanged: 0/0
  4099 ;; Data sizes:     COMMON   BANK0   BANK1   BANK3   BANK2
  4100 ;;      Params:         1       0       0       0       0
  4101 ;;      Locals:         1       0       0       0       0
  4102 ;;      Temps:          1       0       0       0       0
  4103 ;;      Totals:         3       0       0       0       0
  4104 ;;Total ram usage:        3 bytes
  4105 ;; Hardware stack levels used: 1
  4106 ;; Hardware stack levels required when called: 3
  4107 ;; This function calls:
  4108 ;;		_RF24_flush_tx
  4109 ;;		_RF24_get_status
  4110 ;;		_RF24_write_register
  4111 ;;		_SPI_exchangeByte
  4112 ;; This function is called by:
  4113 ;;		_internet_relay
  4114 ;; This function uses a non-reentrant model
  4115 ;;
  4116                           
  4117  0247                     _RF24_write:	
  4118                           ;psect for function _RF24_write
  4119                           
  4120                           
  4121                           ;incstack = 0
  4122                           ; Regs used in _RF24_write: [wreg-fsr0h+status,2+status,0+pclath+cstack]
  4123                           ;RF24_write@buf stored from wreg
  4124  0247  00FA               	movwf	RF24_write@buf
  4125  0248                     l2834:
  4126                           
  4127                           ;C:/Users/abdal/Desktop/Embedded-shs/Embedded-shs/libs/rf24.c: 198: uint8_t RF24_write(v
      +                          oid *buf, uint8_t len);C:/Users/abdal/Desktop/Embedded-shs/Embedded-shs/libs/rf24.c: 199
      +                          : {;C:/Users/abdal/Desktop/Embedded-shs/Embedded-shs/libs/rf24.c: 202:     RD3 = 0;
  4128  0248  1283               	bcf	3,5	;RP0=0, select bank0
  4129  0249  1303               	bcf	3,6	;RP1=0, select bank0
  4130  024A  1188               	bcf	8,3	;volatile
  4131  024B                     l2836:
  4132                           
  4133                           ;C:/Users/abdal/Desktop/Embedded-shs/Embedded-shs/libs/rf24.c: 203:     RF24_attr_status
      +                           = SPI_exchangeByte(0xA0);
  4134  024B  30A0               	movlw	160
  4135  024C  120A  158A  2513  120A  118A  	fcall	_SPI_exchangeByte
  4136  0251  00F9               	movwf	??_RF24_write
  4137  0252  0879               	movf	??_RF24_write,w
  4138  0253  1283               	bcf	3,5	;RP0=0, select bank0
  4139  0254  1303               	bcf	3,6	;RP1=0, select bank0
  4140  0255  00C3               	movwf	_RF24_attr_status
  4141                           
  4142                           ;C:/Users/abdal/Desktop/Embedded-shs/Embedded-shs/libs/rf24.c: 204:     while (len--)
  4143  0256  2A64               	goto	l2842
  4144  0257                     l2838:
  4145                           
  4146                           ;C:/Users/abdal/Desktop/Embedded-shs/Embedded-shs/libs/rf24.c: 205:     {;C:/Users/abdal
      +                          /Desktop/Embedded-shs/Embedded-shs/libs/rf24.c: 206:         SPI_exchangeByte(*(uint8_t 
      +                          *)buf++);
  4147  0257  087A               	movf	RF24_write@buf,w
  4148  0258  0084               	movwf	4
  4149  0259  1383               	bcf	3,7	;select IRP bank0
  4150  025A  0800               	movf	0,w
  4151  025B  120A  158A  2513  120A  118A  	fcall	_SPI_exchangeByte
  4152  0260                     l2840:
  4153  0260  3001               	movlw	1
  4154  0261  00F9               	movwf	??_RF24_write
  4155  0262  0879               	movf	??_RF24_write,w
  4156  0263  07FA               	addwf	RF24_write@buf,f
  4157  0264                     l2842:
  4158                           
  4159                           ;C:/Users/abdal/Desktop/Embedded-shs/Embedded-shs/libs/rf24.c: 204:     while (len--)
  4160  0264  3001               	movlw	1
  4161  0265  02F8               	subwf	RF24_write@len,f
  4162  0266  0A78               	incf	RF24_write@len,w
  4163  0267  1D03               	btfss	3,2
  4164  0268  2A6A               	goto	u1981
  4165  0269  2A6B               	goto	u1980
  4166  026A                     u1981:
  4167  026A  2A57               	goto	l2838
  4168  026B                     u1980:
  4169  026B                     l388:
  4170                           
  4171                           ;C:/Users/abdal/Desktop/Embedded-shs/Embedded-shs/libs/rf24.c: 208:     RD3 = 1;
  4172  026B  1283               	bcf	3,5	;RP0=0, select bank0
  4173  026C  1303               	bcf	3,6	;RP1=0, select bank0
  4174  026D  1588               	bsf	8,3	;volatile
  4175                           
  4176                           ;C:/Users/abdal/Desktop/Embedded-shs/Embedded-shs/libs/rf24.c: 210:     RD2 = 1;
  4177  026E  1508               	bsf	8,2	;volatile
  4178  026F                     l2844:	
  4179                           ;C:/Users/abdal/Desktop/Embedded-shs/Embedded-shs/libs/rf24.c: 211:     while (!(RF24_ge
      +                          t_status() & ((1 << (5)) | (1 << (4)))))
  4180                           
  4181                           
  4182                           ;C:/Users/abdal/Desktop/Embedded-shs/Embedded-shs/libs/rf24.c: 211:     while (!(RF24_ge
      +                          t_status() & ((1 << (5)) | (1 << (4)))))
  4183  026F  120A  158A  2576  120A  118A  	fcall	_RF24_get_status
  4184  0274  3930               	andlw	48
  4185  0275  1903               	btfsc	3,2
  4186  0276  2A78               	goto	u1991
  4187  0277  2A79               	goto	u1990
  4188  0278                     u1991:
  4189  0278  2A6F               	goto	l2844
  4190  0279                     u1990:
  4191  0279                     l391:
  4192                           
  4193                           ;C:/Users/abdal/Desktop/Embedded-shs/Embedded-shs/libs/rf24.c: 216:     RD2 = 0;
  4194  0279  1283               	bcf	3,5	;RP0=0, select bank0
  4195  027A  1303               	bcf	3,6	;RP1=0, select bank0
  4196  027B  1108               	bcf	8,2	;volatile
  4197  027C                     l2846:
  4198                           
  4199                           ;C:/Users/abdal/Desktop/Embedded-shs/Embedded-shs/libs/rf24.c: 217:     RF24_write_regis
      +                          ter(0x07, (1 << (6)) | (1 << (5)) | (1 << (4)));
  4200  027C  3070               	movlw	112
  4201  027D  00F9               	movwf	??_RF24_write
  4202  027E  0879               	movf	??_RF24_write,w
  4203  027F  00F4               	movwf	RF24_write_register@value
  4204  0280  3007               	movlw	7
  4205  0281  120A  158A  25CF  120A  118A  	fcall	_RF24_write_register
  4206  0286                     l2848:
  4207                           
  4208                           ;C:/Users/abdal/Desktop/Embedded-shs/Embedded-shs/libs/rf24.c: 220:     if (RF24_attr_st
      +                          atus & (1 << (4)))
  4209  0286  1283               	bcf	3,5	;RP0=0, select bank0
  4210  0287  1303               	bcf	3,6	;RP1=0, select bank0
  4211  0288  1E43               	btfss	_RF24_attr_status,4
  4212  0289  2A8B               	goto	u2001
  4213  028A  2A8C               	goto	u2000
  4214  028B                     u2001:
  4215  028B  2A91               	goto	l393
  4216  028C                     u2000:
  4217  028C                     l2850:
  4218                           
  4219                           ;C:/Users/abdal/Desktop/Embedded-shs/Embedded-shs/libs/rf24.c: 221:     {;C:/Users/abdal
      +                          /Desktop/Embedded-shs/Embedded-shs/libs/rf24.c: 222:         RF24_flush_tx();
  4220  028C  120A  158A  2508  120A  118A  	fcall	_RF24_flush_tx
  4221  0291                     l393:
  4222  0291  0008               	return
  4223  0292                     __end_of_RF24_write:
  4224                           
  4225                           	psect	text21
  4226  0F59                     __ptext21:	
  4227 ;; *************** function _RF24_stopListening *****************
  4228 ;; Defined at:
  4229 ;;		line 156 in file "C:/Users/abdal/Desktop/Embedded-shs/Embedded-shs/libs/rf24.c"
  4230 ;; Parameters:    Size  Location     Type
  4231 ;;		None
  4232 ;; Auto vars:     Size  Location     Type
  4233 ;;		None
  4234 ;; Return value:  Size  Location     Type
  4235 ;;                  1    wreg      void 
  4236 ;; Registers used:
  4237 ;;		wreg, status,2, status,0, pclath, cstack
  4238 ;; Tracked objects:
  4239 ;;		On entry : 0/0
  4240 ;;		On exit  : 0/0
  4241 ;;		Unchanged: 0/0
  4242 ;; Data sizes:     COMMON   BANK0   BANK1   BANK3   BANK2
  4243 ;;      Params:         0       0       0       0       0
  4244 ;;      Locals:         0       0       0       0       0
  4245 ;;      Temps:          1       0       0       0       0
  4246 ;;      Totals:         1       0       0       0       0
  4247 ;;Total ram usage:        1 bytes
  4248 ;; Hardware stack levels used: 1
  4249 ;; Hardware stack levels required when called: 2
  4250 ;; This function calls:
  4251 ;;		_RF24_read_register
  4252 ;;		_RF24_write_register
  4253 ;; This function is called by:
  4254 ;;		_internet_relay
  4255 ;; This function uses a non-reentrant model
  4256 ;;
  4257                           
  4258  0F59                     _RF24_stopListening:	
  4259                           ;psect for function _RF24_stopListening
  4260                           
  4261  0F59                     l2828:	
  4262                           ;incstack = 0
  4263                           ; Regs used in _RF24_stopListening: [wreg+status,2+status,0+pclath+cstack]
  4264                           
  4265                           
  4266                           ;C:/Users/abdal/Desktop/Embedded-shs/Embedded-shs/libs/rf24.c: 158:     RD2 = 0;
  4267  0F59  1283               	bcf	3,5	;RP0=0, select bank0
  4268  0F5A  1303               	bcf	3,6	;RP1=0, select bank0
  4269  0F5B  1108               	bcf	8,2	;volatile
  4270  0F5C                     l2830:
  4271                           
  4272                           ;C:/Users/abdal/Desktop/Embedded-shs/Embedded-shs/libs/rf24.c: 165:     RF24_write_regis
      +                          ter(0x00, RF24_read_register(0x00) & ~(1 << (0)));
  4273  0F5C  3000               	movlw	0
  4274  0F5D  120A  158A  2652  120A  158A  	fcall	_RF24_read_register
  4275  0F62  39FE               	andlw	254
  4276  0F63  00F7               	movwf	??_RF24_stopListening
  4277  0F64  0877               	movf	??_RF24_stopListening,w
  4278  0F65  00F4               	movwf	RF24_write_register@value
  4279  0F66  3000               	movlw	0
  4280  0F67  120A  158A  25CF  120A  158A  	fcall	_RF24_write_register
  4281                           
  4282                           ;C:/Users/abdal/Desktop/Embedded-shs/Embedded-shs/libs/rf24.c: 166:     RF24_write_regis
      +                          ter(0x02, RF24_read_register(0x02) | 1);
  4283  0F6C  3002               	movlw	2
  4284  0F6D  120A  158A  2652  120A  158A  	fcall	_RF24_read_register
  4285  0F72  3801               	iorlw	1
  4286  0F73  00F7               	movwf	??_RF24_stopListening
  4287  0F74  0877               	movf	??_RF24_stopListening,w
  4288  0F75  00F4               	movwf	RF24_write_register@value
  4289  0F76  3002               	movlw	2
  4290  0F77  120A  158A  25CF  120A  158A  	fcall	_RF24_write_register
  4291  0F7C                     l2832:
  4292                           
  4293                           ;C:/Users/abdal/Desktop/Embedded-shs/Embedded-shs/libs/rf24.c: 167:     _delay((unsigned
      +                           long)((130)*(16000000/4000000.0)));
  4294  0F7C  30AD               	movlw	173
  4295  0F7D  00F7               	movwf	??_RF24_stopListening
  4296  0F7E                     u2267:
  4297  0F7E  0BF7               	decfsz	??_RF24_stopListening,f
  4298  0F7F  2F7E               	goto	u2267
  4299  0F80                     l371:
  4300  0F80  0008               	return
  4301  0F81                     __end_of_RF24_stopListening:
  4302                           
  4303                           	psect	text22
  4304  0D45                     __ptext22:	
  4305 ;; *************** function _RF24_openWritingPipe *****************
  4306 ;; Defined at:
  4307 ;;		line 457 in file "C:/Users/abdal/Desktop/Embedded-shs/Embedded-shs/libs/rf24.c"
  4308 ;; Parameters:    Size  Location     Type
  4309 ;;  address         1    wreg     PTR unsigned char 
  4310 ;;		 -> networkInfo(6), 
  4311 ;; Auto vars:     Size  Location     Type
  4312 ;;  address         1    7[COMMON] PTR unsigned char 
  4313 ;;		 -> networkInfo(6), 
  4314 ;; Return value:  Size  Location     Type
  4315 ;;                  1    wreg      void 
  4316 ;; Registers used:
  4317 ;;		wreg, fsr0l, fsr0h, status,2, status,0, btemp+1, pclath, cstack
  4318 ;; Tracked objects:
  4319 ;;		On entry : 0/0
  4320 ;;		On exit  : 0/0
  4321 ;;		Unchanged: 0/0
  4322 ;; Data sizes:     COMMON   BANK0   BANK1   BANK3   BANK2
  4323 ;;      Params:         0       0       0       0       0
  4324 ;;      Locals:         1       0       0       0       0
  4325 ;;      Temps:          1       0       0       0       0
  4326 ;;      Totals:         2       0       0       0       0
  4327 ;;Total ram usage:        2 bytes
  4328 ;; Hardware stack levels used: 1
  4329 ;; Hardware stack levels required when called: 2
  4330 ;; This function calls:
  4331 ;;		_RF24_write_n_register
  4332 ;; This function is called by:
  4333 ;;		_internet_relay
  4334 ;; This function uses a non-reentrant model
  4335 ;;
  4336                           
  4337  0D45                     _RF24_openWritingPipe:	
  4338                           ;psect for function _RF24_openWritingPipe
  4339                           
  4340                           
  4341                           ;incstack = 0
  4342                           ; Regs used in _RF24_openWritingPipe: [wreg-fsr0h+status,2+status,0+btemp+1+pclath+cstac
      +                          k]
  4343                           ;RF24_openWritingPipe@address stored from wreg
  4344  0D45  00F7               	movwf	RF24_openWritingPipe@address
  4345  0D46                     l2826:
  4346                           
  4347                           ;C:/Users/abdal/Desktop/Embedded-shs/Embedded-shs/libs/rf24.c: 457: void RF24_openWritin
      +                          gPipe(uint8_t *address);C:/Users/abdal/Desktop/Embedded-shs/Embedded-shs/libs/rf24.c: 45
      +                          8: {;C:/Users/abdal/Desktop/Embedded-shs/Embedded-shs/libs/rf24.c: 459:     RF24_write_n
      +                          _register(0x10, address, 5);
  4348  0D46  0877               	movf	RF24_openWritingPipe@address,w
  4349  0D47  00F1               	movwf	RF24_write_n_register@buffer
  4350  0D48  3000               	movlw	0
  4351  0D49  00F2               	movwf	RF24_write_n_register@buffer+1
  4352  0D4A  3005               	movlw	5
  4353  0D4B  00F6               	movwf	??_RF24_openWritingPipe
  4354  0D4C  0876               	movf	??_RF24_openWritingPipe,w
  4355  0D4D  00F3               	movwf	RF24_write_n_register@length
  4356  0D4E  3010               	movlw	16
  4357  0D4F  120A  118A  20A0  120A  158A  	fcall	_RF24_write_n_register
  4358  0D54                     l482:
  4359  0D54  0008               	return
  4360  0D55                     __end_of_RF24_openWritingPipe:
  4361                           
  4362                           	psect	text23
  4363  0E1D                     __ptext23:	
  4364 ;; *************** function _RF24_read *****************
  4365 ;; Defined at:
  4366 ;;		line 291 in file "C:/Users/abdal/Desktop/Embedded-shs/Embedded-shs/libs/rf24.c"
  4367 ;; Parameters:    Size  Location     Type
  4368 ;;  buf             1    wreg     PTR void 
  4369 ;;		 -> buffer_rx(32), 
  4370 ;;  len             1    7[COMMON] unsigned char 
  4371 ;; Auto vars:     Size  Location     Type
  4372 ;;  buf             1   10[COMMON] PTR void 
  4373 ;;		 -> buffer_rx(32), 
  4374 ;; Return value:  Size  Location     Type
  4375 ;;                  1    wreg      void 
  4376 ;; Registers used:
  4377 ;;		wreg, fsr0l, fsr0h, status,2, status,0, pclath, cstack
  4378 ;; Tracked objects:
  4379 ;;		On entry : 0/0
  4380 ;;		On exit  : 0/0
  4381 ;;		Unchanged: 0/0
  4382 ;; Data sizes:     COMMON   BANK0   BANK1   BANK3   BANK2
  4383 ;;      Params:         1       0       0       0       0
  4384 ;;      Locals:         1       0       0       0       0
  4385 ;;      Temps:          2       0       0       0       0
  4386 ;;      Totals:         4       0       0       0       0
  4387 ;;Total ram usage:        4 bytes
  4388 ;; Hardware stack levels used: 1
  4389 ;; Hardware stack levels required when called: 2
  4390 ;; This function calls:
  4391 ;;		_RF24_read_n_register
  4392 ;;		_RF24_write_register
  4393 ;; This function is called by:
  4394 ;;		_internet_process
  4395 ;; This function uses a non-reentrant model
  4396 ;;
  4397                           
  4398  0E1D                     _RF24_read:	
  4399                           ;psect for function _RF24_read
  4400                           
  4401                           
  4402                           ;incstack = 0
  4403                           ; Regs used in _RF24_read: [wreg-fsr0h+status,2+status,0+pclath+cstack]
  4404                           ;RF24_read@buf stored from wreg
  4405  0E1D  00FA               	movwf	RF24_read@buf
  4406  0E1E                     l3006:
  4407                           
  4408                           ;C:/Users/abdal/Desktop/Embedded-shs/Embedded-shs/libs/rf24.c: 291: void RF24_read(void 
      +                          *buf, uint8_t len);C:/Users/abdal/Desktop/Embedded-shs/Embedded-shs/libs/rf24.c: 292: {;
      +                          C:/Users/abdal/Desktop/Embedded-shs/Embedded-shs/libs/rf24.c: 295:     RF24_read_n_regis
      +                          ter(0x61, (uint8_t *)buf, len);
  4409  0E1E  087A               	movf	RF24_read@buf,w
  4410  0E1F  00F8               	movwf	??_RF24_read
  4411  0E20  0878               	movf	??_RF24_read,w
  4412  0E21  00F1               	movwf	RF24_read_n_register@buf
  4413  0E22  0877               	movf	RF24_read@len,w
  4414  0E23  00F9               	movwf	??_RF24_read+1
  4415  0E24  0879               	movf	??_RF24_read+1,w
  4416  0E25  00F2               	movwf	RF24_read_n_register@len
  4417  0E26  3061               	movlw	97
  4418  0E27  120A  158A  27D5  120A  158A  	fcall	_RF24_read_n_register
  4419  0E2C                     l3008:
  4420                           
  4421                           ;C:/Users/abdal/Desktop/Embedded-shs/Embedded-shs/libs/rf24.c: 297:     RF24_write_regis
      +                          ter(0x07, (1 << (6)));
  4422  0E2C  3040               	movlw	64
  4423  0E2D  00F8               	movwf	??_RF24_read
  4424  0E2E  0878               	movf	??_RF24_read,w
  4425  0E2F  00F4               	movwf	RF24_write_register@value
  4426  0E30  3007               	movlw	7
  4427  0E31  120A  158A  25CF  120A  158A  	fcall	_RF24_write_register
  4428  0E36                     l417:
  4429  0E36  0008               	return
  4430  0E37                     __end_of_RF24_read:
  4431                           
  4432                           	psect	text24
  4433  0FD5                     __ptext24:	
  4434 ;; *************** function _RF24_read_n_register *****************
  4435 ;; Defined at:
  4436 ;;		line 7 in file "C:/Users/abdal/Desktop/Embedded-shs/Embedded-shs/libs/rf24.c"
  4437 ;; Parameters:    Size  Location     Type
  4438 ;;  mnemonic_add    1    wreg     unsigned char 
  4439 ;;  buf             1    1[COMMON] PTR unsigned char 
  4440 ;;		 -> RF24_printDetails@buffer(5), buffer_rx(32), 
  4441 ;;  len             1    2[COMMON] unsigned char 
  4442 ;; Auto vars:     Size  Location     Type
  4443 ;;  mnemonic_add    1    4[COMMON] unsigned char 
  4444 ;; Return value:  Size  Location     Type
  4445 ;;                  1    wreg      unsigned char 
  4446 ;; Registers used:
  4447 ;;		wreg, fsr0l, fsr0h, status,2, status,0, pclath, cstack
  4448 ;; Tracked objects:
  4449 ;;		On entry : 0/0
  4450 ;;		On exit  : 0/0
  4451 ;;		Unchanged: 0/0
  4452 ;; Data sizes:     COMMON   BANK0   BANK1   BANK3   BANK2
  4453 ;;      Params:         2       0       0       0       0
  4454 ;;      Locals:         1       0       0       0       0
  4455 ;;      Temps:          1       0       0       0       0
  4456 ;;      Totals:         4       0       0       0       0
  4457 ;;Total ram usage:        4 bytes
  4458 ;; Hardware stack levels used: 1
  4459 ;; Hardware stack levels required when called: 1
  4460 ;; This function calls:
  4461 ;;		_SPI_exchangeByte
  4462 ;; This function is called by:
  4463 ;;		_RF24_read
  4464 ;; This function uses a non-reentrant model
  4465 ;;
  4466                           
  4467  0FD5                     _RF24_read_n_register:	
  4468                           ;psect for function _RF24_read_n_register
  4469                           
  4470                           
  4471                           ;incstack = 0
  4472                           ; Regs used in _RF24_read_n_register: [wreg-fsr0h+status,2+status,0+pclath+cstack]
  4473                           ;RF24_read_n_register@mnemonic_addr stored from wreg
  4474  0FD5  00F4               	movwf	RF24_read_n_register@mnemonic_addr
  4475  0FD6                     l2954:
  4476                           
  4477                           ;C:/Users/abdal/Desktop/Embedded-shs/Embedded-shs/libs/rf24.c: 7: uint8_t RF24_read_n_re
      +                          gister(uint8_t mnemonic_addr, uint8_t *buf, uint8_t len);C:/Users/abdal/Desktop/Embedded
      +                          -shs/Embedded-shs/libs/rf24.c: 8: {;C:/Users/abdal/Desktop/Embedded-shs/Embedded-shs/lib
      +                          s/rf24.c: 9:     RD3 = 0;
  4478  0FD6  1283               	bcf	3,5	;RP0=0, select bank0
  4479  0FD7  1303               	bcf	3,6	;RP1=0, select bank0
  4480  0FD8  1188               	bcf	8,3	;volatile
  4481  0FD9                     l2956:
  4482                           
  4483                           ;C:/Users/abdal/Desktop/Embedded-shs/Embedded-shs/libs/rf24.c: 10:     RF24_attr_status 
      +                          = SPI_exchangeByte(0x00 | mnemonic_addr);
  4484  0FD9  0874               	movf	RF24_read_n_register@mnemonic_addr,w
  4485  0FDA  120A  158A  2513  120A  158A  	fcall	_SPI_exchangeByte
  4486  0FDF  00F3               	movwf	??_RF24_read_n_register
  4487  0FE0  0873               	movf	??_RF24_read_n_register,w
  4488  0FE1  1283               	bcf	3,5	;RP0=0, select bank0
  4489  0FE2  1303               	bcf	3,6	;RP1=0, select bank0
  4490  0FE3  00C3               	movwf	_RF24_attr_status
  4491                           
  4492                           ;C:/Users/abdal/Desktop/Embedded-shs/Embedded-shs/libs/rf24.c: 11:     while (len--)
  4493  0FE4  2FF5               	goto	l2962
  4494  0FE5                     l2958:
  4495                           
  4496                           ;C:/Users/abdal/Desktop/Embedded-shs/Embedded-shs/libs/rf24.c: 12:     {;C:/Users/abdal/
      +                          Desktop/Embedded-shs/Embedded-shs/libs/rf24.c: 13:         *buf++ = SPI_exchangeByte(0xF
      +                          F);
  4497  0FE5  30FF               	movlw	255
  4498  0FE6  120A  158A  2513  120A  158A  	fcall	_SPI_exchangeByte
  4499  0FEB  00F3               	movwf	??_RF24_read_n_register
  4500  0FEC  0871               	movf	RF24_read_n_register@buf,w
  4501  0FED  0084               	movwf	4
  4502  0FEE  0873               	movf	??_RF24_read_n_register,w
  4503  0FEF  1383               	bcf	3,7	;select IRP bank0
  4504  0FF0  0080               	movwf	0
  4505  0FF1                     l2960:
  4506  0FF1  3001               	movlw	1
  4507  0FF2  00F3               	movwf	??_RF24_read_n_register
  4508  0FF3  0873               	movf	??_RF24_read_n_register,w
  4509  0FF4  07F1               	addwf	RF24_read_n_register@buf,f
  4510  0FF5                     l2962:
  4511                           
  4512                           ;C:/Users/abdal/Desktop/Embedded-shs/Embedded-shs/libs/rf24.c: 11:     while (len--)
  4513  0FF5  3001               	movlw	1
  4514  0FF6  02F2               	subwf	RF24_read_n_register@len,f
  4515  0FF7  0A72               	incf	RF24_read_n_register@len,w
  4516  0FF8  1D03               	btfss	3,2
  4517  0FF9  2FFB               	goto	u2081
  4518  0FFA  2FFC               	goto	u2080
  4519  0FFB                     u2081:
  4520  0FFB  2FE5               	goto	l2958
  4521  0FFC                     u2080:
  4522  0FFC                     l335:
  4523                           
  4524                           ;C:/Users/abdal/Desktop/Embedded-shs/Embedded-shs/libs/rf24.c: 15:     RD3 = 1;
  4525  0FFC  1283               	bcf	3,5	;RP0=0, select bank0
  4526  0FFD  1303               	bcf	3,6	;RP1=0, select bank0
  4527  0FFE  1588               	bsf	8,3	;volatile
  4528  0FFF                     l336:
  4529  0FFF  0008               	return
  4530  1000                     __end_of_RF24_read_n_register:
  4531                           
  4532                           	psect	text25
  4533  0EEE                     __ptext25:	
  4534 ;; *************** function _RF24_getDynamicPayloadSize *****************
  4535 ;; Defined at:
  4536 ;;		line 264 in file "C:/Users/abdal/Desktop/Embedded-shs/Embedded-shs/libs/rf24.c"
  4537 ;; Parameters:    Size  Location     Type
  4538 ;;		None
  4539 ;; Auto vars:     Size  Location     Type
  4540 ;;  result          1   10[COMMON] unsigned char 
  4541 ;; Return value:  Size  Location     Type
  4542 ;;                  1    wreg      unsigned char 
  4543 ;; Registers used:
  4544 ;;		wreg, status,2, status,0, pclath, cstack
  4545 ;; Tracked objects:
  4546 ;;		On entry : 0/0
  4547 ;;		On exit  : 0/0
  4548 ;;		Unchanged: 0/0
  4549 ;; Data sizes:     COMMON   BANK0   BANK1   BANK3   BANK2
  4550 ;;      Params:         0       0       0       0       0
  4551 ;;      Locals:         1       0       0       0       0
  4552 ;;      Temps:          2       0       0       0       0
  4553 ;;      Totals:         3       0       0       0       0
  4554 ;;Total ram usage:        3 bytes
  4555 ;; Hardware stack levels used: 1
  4556 ;; Hardware stack levels required when called: 3
  4557 ;; This function calls:
  4558 ;;		_RF24_flush_rx
  4559 ;;		_RF24_read_register
  4560 ;; This function is called by:
  4561 ;;		_internet_process
  4562 ;; This function uses a non-reentrant model
  4563 ;;
  4564                           
  4565  0EEE                     _RF24_getDynamicPayloadSize:	
  4566                           ;psect for function _RF24_getDynamicPayloadSize
  4567                           
  4568  0EEE                     l2990:	
  4569                           ;incstack = 0
  4570                           ; Regs used in _RF24_getDynamicPayloadSize: [wreg+status,2+status,0+pclath+cstack]
  4571                           
  4572                           
  4573                           ;C:/Users/abdal/Desktop/Embedded-shs/Embedded-shs/libs/rf24.c: 266:     uint8_t result =
      +                           RF24_read_register(0x60);
  4574  0EEE  3060               	movlw	96
  4575  0EEF  120A  158A  2652  120A  158A  	fcall	_RF24_read_register
  4576  0EF4  00F8               	movwf	??_RF24_getDynamicPayloadSize
  4577  0EF5  0878               	movf	??_RF24_getDynamicPayloadSize,w
  4578  0EF6  00FA               	movwf	RF24_getDynamicPayloadSize@result
  4579  0EF7                     l2992:
  4580                           
  4581                           ;C:/Users/abdal/Desktop/Embedded-shs/Embedded-shs/libs/rf24.c: 268:     if (result > 32)
  4582  0EF7  3021               	movlw	33
  4583  0EF8  027A               	subwf	RF24_getDynamicPayloadSize@result,w
  4584  0EF9  1C03               	skipc
  4585  0EFA  2EFC               	goto	u2111
  4586  0EFB  2EFD               	goto	u2110
  4587  0EFC                     u2111:
  4588  0EFC  2F0D               	goto	l3002
  4589  0EFD                     u2110:
  4590  0EFD                     l2994:
  4591                           
  4592                           ;C:/Users/abdal/Desktop/Embedded-shs/Embedded-shs/libs/rf24.c: 269:     {;C:/Users/abdal
      +                          /Desktop/Embedded-shs/Embedded-shs/libs/rf24.c: 270:         RF24_flush_rx();
  4593  0EFD  120A  158A  24FD  120A  158A  	fcall	_RF24_flush_rx
  4594  0F02                     l2996:
  4595                           
  4596                           ;C:/Users/abdal/Desktop/Embedded-shs/Embedded-shs/libs/rf24.c: 271:         _delay((unsi
      +                          gned long)((2)*(16000000/4000.0)));
  4597  0F02  300B               	movlw	11
  4598  0F03  00F9               	movwf	??_RF24_getDynamicPayloadSize+1
  4599  0F04  3062               	movlw	98
  4600  0F05  00F8               	movwf	??_RF24_getDynamicPayloadSize
  4601  0F06                     u2277:
  4602  0F06  0BF8               	decfsz	??_RF24_getDynamicPayloadSize,f
  4603  0F07  2F06               	goto	u2277
  4604  0F08  0BF9               	decfsz	??_RF24_getDynamicPayloadSize+1,f
  4605  0F09  2F06               	goto	u2277
  4606  0F0A  0000               	nop
  4607  0F0B                     l2998:
  4608                           
  4609                           ;C:/Users/abdal/Desktop/Embedded-shs/Embedded-shs/libs/rf24.c: 272:         return 0;
  4610  0F0B  3000               	movlw	0
  4611  0F0C  2F0E               	goto	l410
  4612  0F0D                     l3002:
  4613                           
  4614                           ;C:/Users/abdal/Desktop/Embedded-shs/Embedded-shs/libs/rf24.c: 274:     return result;
  4615  0F0D  087A               	movf	RF24_getDynamicPayloadSize@result,w
  4616  0F0E                     l410:
  4617  0F0E  0008               	return
  4618  0F0F                     __end_of_RF24_getDynamicPayloadSize:
  4619                           
  4620                           	psect	text26
  4621  0D87                     __ptext26:	
  4622 ;; *************** function _RF24_available *****************
  4623 ;; Defined at:
  4624 ;;		line 277 in file "C:/Users/abdal/Desktop/Embedded-shs/Embedded-shs/libs/rf24.c"
  4625 ;; Parameters:    Size  Location     Type
  4626 ;;		None
  4627 ;; Auto vars:     Size  Location     Type
  4628 ;;  pipe            1    4[COMMON] unsigned char 
  4629 ;; Return value:  Size  Location     Type
  4630 ;;                  1    wreg      unsigned char 
  4631 ;; Registers used:
  4632 ;;		wreg, status,2, status,0, pclath, cstack
  4633 ;; Tracked objects:
  4634 ;;		On entry : 0/0
  4635 ;;		On exit  : 0/0
  4636 ;;		Unchanged: 0/0
  4637 ;; Data sizes:     COMMON   BANK0   BANK1   BANK3   BANK2
  4638 ;;      Params:         0       0       0       0       0
  4639 ;;      Locals:         1       0       0       0       0
  4640 ;;      Temps:          2       0       0       0       0
  4641 ;;      Totals:         3       0       0       0       0
  4642 ;;Total ram usage:        3 bytes
  4643 ;; Hardware stack levels used: 1
  4644 ;; Hardware stack levels required when called: 2
  4645 ;; This function calls:
  4646 ;;		_RF24_get_status
  4647 ;; This function is called by:
  4648 ;;		_internet_process
  4649 ;; This function uses a non-reentrant model
  4650 ;;
  4651                           
  4652  0D87                     _RF24_available:	
  4653                           ;psect for function _RF24_available
  4654                           
  4655  0D87                     l3028:	
  4656                           ;incstack = 0
  4657                           ; Regs used in _RF24_available: [wreg+status,2+status,0+pclath+cstack]
  4658                           
  4659                           
  4660                           ;C:/Users/abdal/Desktop/Embedded-shs/Embedded-shs/libs/rf24.c: 280:     uint8_t pipe = (
      +                          RF24_get_status() >> 1) & 0x07;
  4661  0D87  120A  158A  2576  120A  158A  	fcall	_RF24_get_status
  4662  0D8C  00F2               	movwf	??_RF24_available
  4663  0D8D  1003               	clrc
  4664  0D8E  0C72               	rrf	??_RF24_available,w
  4665  0D8F  3907               	andlw	7
  4666  0D90  00F3               	movwf	??_RF24_available+1
  4667  0D91  0873               	movf	??_RF24_available+1,w
  4668  0D92  00F4               	movwf	RF24_available@pipe
  4669  0D93                     l3030:
  4670                           
  4671                           ;C:/Users/abdal/Desktop/Embedded-shs/Embedded-shs/libs/rf24.c: 281:     if (pipe > 5)
  4672  0D93  3006               	movlw	6
  4673  0D94  0274               	subwf	RF24_available@pipe,w
  4674  0D95  1C03               	skipc
  4675  0D96  2D98               	goto	u2131
  4676  0D97  2D99               	goto	u2130
  4677  0D98                     u2131:
  4678  0D98  2D9B               	goto	l3036
  4679  0D99                     u2130:
  4680  0D99                     l3032:
  4681                           
  4682                           ;C:/Users/abdal/Desktop/Embedded-shs/Embedded-shs/libs/rf24.c: 282:         return 0;
  4683  0D99  3000               	movlw	0
  4684  0D9A  2D9C               	goto	l414
  4685  0D9B                     l3036:
  4686                           
  4687                           ;C:/Users/abdal/Desktop/Embedded-shs/Embedded-shs/libs/rf24.c: 288:     return 1;
  4688  0D9B  3001               	movlw	1
  4689  0D9C                     l414:
  4690  0D9C  0008               	return
  4691  0D9D                     __end_of_RF24_available:
  4692                           
  4693                           	psect	text27
  4694  0D76                     __ptext27:	
  4695 ;; *************** function _RF24_get_status *****************
  4696 ;; Defined at:
  4697 ;;		line 51 in file "C:/Users/abdal/Desktop/Embedded-shs/Embedded-shs/libs/rf24.c"
  4698 ;; Parameters:    Size  Location     Type
  4699 ;;		None
  4700 ;; Auto vars:     Size  Location     Type
  4701 ;;		None
  4702 ;; Return value:  Size  Location     Type
  4703 ;;                  1    wreg      unsigned char 
  4704 ;; Registers used:
  4705 ;;		wreg, pclath, cstack
  4706 ;; Tracked objects:
  4707 ;;		On entry : 0/0
  4708 ;;		On exit  : 0/0
  4709 ;;		Unchanged: 0/0
  4710 ;; Data sizes:     COMMON   BANK0   BANK1   BANK3   BANK2
  4711 ;;      Params:         0       0       0       0       0
  4712 ;;      Locals:         0       0       0       0       0
  4713 ;;      Temps:          1       0       0       0       0
  4714 ;;      Totals:         1       0       0       0       0
  4715 ;;Total ram usage:        1 bytes
  4716 ;; Hardware stack levels used: 1
  4717 ;; Hardware stack levels required when called: 1
  4718 ;; This function calls:
  4719 ;;		_SPI_exchangeByte
  4720 ;; This function is called by:
  4721 ;;		_RF24_write
  4722 ;;		_RF24_available
  4723 ;; This function uses a non-reentrant model
  4724 ;;
  4725                           
  4726  0D76                     _RF24_get_status:	
  4727                           ;psect for function _RF24_get_status
  4728                           
  4729  0D76                     l2758:	
  4730                           ;incstack = 0
  4731                           ; Regs used in _RF24_get_status: [wreg+pclath+cstack]
  4732                           
  4733                           
  4734                           ;C:/Users/abdal/Desktop/Embedded-shs/Embedded-shs/libs/rf24.c: 53:     RD3 = 0;
  4735  0D76  1283               	bcf	3,5	;RP0=0, select bank0
  4736  0D77  1303               	bcf	3,6	;RP1=0, select bank0
  4737  0D78  1188               	bcf	8,3	;volatile
  4738  0D79                     l2760:
  4739                           
  4740                           ;C:/Users/abdal/Desktop/Embedded-shs/Embedded-shs/libs/rf24.c: 54:     RF24_attr_status 
      +                          = SPI_exchangeByte(0xFF);
  4741  0D79  30FF               	movlw	255
  4742  0D7A  120A  158A  2513  120A  158A  	fcall	_SPI_exchangeByte
  4743  0D7F  00F1               	movwf	??_RF24_get_status
  4744  0D80  0871               	movf	??_RF24_get_status,w
  4745  0D81  1283               	bcf	3,5	;RP0=0, select bank0
  4746  0D82  1303               	bcf	3,6	;RP1=0, select bank0
  4747  0D83  00C3               	movwf	_RF24_attr_status
  4748  0D84                     l2762:
  4749                           
  4750                           ;C:/Users/abdal/Desktop/Embedded-shs/Embedded-shs/libs/rf24.c: 55:     RD3 = 1;
  4751  0D84  1588               	bsf	8,3	;volatile
  4752  0D85                     l2764:
  4753                           
  4754                           ;C:/Users/abdal/Desktop/Embedded-shs/Embedded-shs/libs/rf24.c: 56:     return RF24_attr_
      +                          status;
  4755  0D85  0843               	movf	_RF24_attr_status,w
  4756  0D86                     l351:
  4757  0D86  0008               	return
  4758  0D87                     __end_of_RF24_get_status:
  4759                           
  4760                           	psect	text28
  4761  0605                     __ptext28:	
  4762 ;; *************** function _Serial_begin *****************
  4763 ;; Defined at:
  4764 ;;		line 2 in file "C:/Users/abdal/Desktop/Embedded-shs/Embedded-shs/libs/Serial.c"
  4765 ;; Parameters:    Size  Location     Type
  4766 ;;  baudrate        4    6[BANK0 ] const long 
  4767 ;; Auto vars:     Size  Location     Type
  4768 ;;  x               2    9[COMMON] unsigned int 
  4769 ;; Return value:  Size  Location     Type
  4770 ;;                  1    wreg      unsigned char 
  4771 ;; Registers used:
  4772 ;;		wreg, status,2, status,0, pclath, cstack
  4773 ;; Tracked objects:
  4774 ;;		On entry : 0/0
  4775 ;;		On exit  : 0/0
  4776 ;;		Unchanged: 0/0
  4777 ;; Data sizes:     COMMON   BANK0   BANK1   BANK3   BANK2
  4778 ;;      Params:         0       4       0       0       0
  4779 ;;      Locals:         2       0       0       0       0
  4780 ;;      Temps:          0      12       0       0       0
  4781 ;;      Totals:         2      16       0       0       0
  4782 ;;Total ram usage:       18 bytes
  4783 ;; Hardware stack levels used: 1
  4784 ;; Hardware stack levels required when called: 1
  4785 ;; This function calls:
  4786 ;;		___aldiv
  4787 ;; This function is called by:
  4788 ;;		_main
  4789 ;; This function uses a non-reentrant model
  4790 ;;
  4791                           
  4792  0605                     _Serial_begin:	
  4793                           ;psect for function _Serial_begin
  4794                           
  4795  0605                     l2434:	
  4796                           ;incstack = 0
  4797                           ; Regs used in _Serial_begin: [wreg+status,2+status,0+pclath+cstack]
  4798                           
  4799                           
  4800                           ;C:/Users/abdal/Desktop/Embedded-shs/Embedded-shs/libs/Serial.c: 2: uint8_t Serial_begin
      +                          (const long int baudrate);C:/Users/abdal/Desktop/Embedded-shs/Embedded-shs/libs/Serial.c
      +                          : 3: {;C:/Users/abdal/Desktop/Embedded-shs/Embedded-shs/libs/Serial.c: 4:     unsigned i
      +                          nt x;;C:/Users/abdal/Desktop/Embedded-shs/Embedded-shs/libs/Serial.c: 5:     x = (160000
      +                          00 - baudrate * 64) / (baudrate * 64);
  4801  0605  1283               	bcf	3,5	;RP0=0, select bank0
  4802  0606  1303               	bcf	3,6	;RP1=0, select bank0
  4803  0607  0826               	movf	Serial_begin@baudrate,w
  4804  0608  00AA               	movwf	??_Serial_begin
  4805  0609  0827               	movf	Serial_begin@baudrate+1,w
  4806  060A  00AB               	movwf	??_Serial_begin+1
  4807  060B  0828               	movf	Serial_begin@baudrate+2,w
  4808  060C  00AC               	movwf	??_Serial_begin+2
  4809  060D  0829               	movf	Serial_begin@baudrate+3,w
  4810  060E  00AD               	movwf	??_Serial_begin+3
  4811  060F  3006               	movlw	6
  4812  0610                     u1475:
  4813  0610  1003               	clrc
  4814  0611  0DAA               	rlf	??_Serial_begin,f
  4815  0612  0DAB               	rlf	??_Serial_begin+1,f
  4816  0613  0DAC               	rlf	??_Serial_begin+2,f
  4817  0614  0DAD               	rlf	??_Serial_begin+3,f
  4818  0615                     u1470:
  4819  0615  3EFF               	addlw	-1
  4820  0616  1D03               	skipz
  4821  0617  2E10               	goto	u1475
  4822  0618  082D               	movf	??_Serial_begin+3,w
  4823  0619  00F3               	movwf	___aldiv@divisor+3
  4824  061A  082C               	movf	??_Serial_begin+2,w
  4825  061B  00F2               	movwf	___aldiv@divisor+2
  4826  061C  082B               	movf	??_Serial_begin+1,w
  4827  061D  00F1               	movwf	___aldiv@divisor+1
  4828  061E  082A               	movf	??_Serial_begin,w
  4829  061F  00F0               	movwf	___aldiv@divisor
  4830  0620  0826               	movf	Serial_begin@baudrate,w
  4831  0621  00AE               	movwf	??_Serial_begin+4
  4832  0622  0827               	movf	Serial_begin@baudrate+1,w
  4833  0623  00AF               	movwf	??_Serial_begin+5
  4834  0624  0828               	movf	Serial_begin@baudrate+2,w
  4835  0625  00B0               	movwf	??_Serial_begin+6
  4836  0626  0829               	movf	Serial_begin@baudrate+3,w
  4837  0627  00B1               	movwf	??_Serial_begin+7
  4838  0628  3006               	movlw	6
  4839  0629                     u1485:
  4840  0629  1003               	clrc
  4841  062A  0DAE               	rlf	??_Serial_begin+4,f
  4842  062B  0DAF               	rlf	??_Serial_begin+5,f
  4843  062C  0DB0               	rlf	??_Serial_begin+6,f
  4844  062D  0DB1               	rlf	??_Serial_begin+7,f
  4845  062E                     u1480:
  4846  062E  3EFF               	addlw	-1
  4847  062F  1D03               	skipz
  4848  0630  2E29               	goto	u1485
  4849  0631  3000               	movlw	0
  4850  0632  00B2               	movwf	??_Serial_begin+8
  4851  0633  3024               	movlw	36
  4852  0634  00B3               	movwf	??_Serial_begin+9
  4853  0635  30F4               	movlw	244
  4854  0636  00B4               	movwf	??_Serial_begin+10
  4855  0637  3000               	movlw	0
  4856  0638  00B5               	movwf	??_Serial_begin+11
  4857  0639  082E               	movf	??_Serial_begin+4,w
  4858  063A  02B2               	subwf	??_Serial_begin+8,f
  4859  063B  082F               	movf	??_Serial_begin+5,w
  4860  063C  1C03               	skipc
  4861  063D  0F2F               	incfsz	??_Serial_begin+5,w
  4862  063E  2E40               	goto	u1491
  4863  063F  2E41               	goto	u1492
  4864  0640                     u1491:
  4865  0640  02B3               	subwf	??_Serial_begin+9,f
  4866  0641                     u1492:
  4867  0641  0830               	movf	??_Serial_begin+6,w
  4868  0642  1C03               	skipc
  4869  0643  0F30               	incfsz	??_Serial_begin+6,w
  4870  0644  2E46               	goto	u1493
  4871  0645  2E47               	goto	u1494
  4872  0646                     u1493:
  4873  0646  02B4               	subwf	??_Serial_begin+10,f
  4874  0647                     u1494:
  4875  0647  0831               	movf	??_Serial_begin+7,w
  4876  0648  1C03               	skipc
  4877  0649  0F31               	incfsz	??_Serial_begin+7,w
  4878  064A  2E4C               	goto	u1495
  4879  064B  2E4D               	goto	u1496
  4880  064C                     u1495:
  4881  064C  02B5               	subwf	??_Serial_begin+11,f
  4882  064D                     u1496:
  4883  064D  0835               	movf	??_Serial_begin+11,w
  4884  064E  00F7               	movwf	___aldiv@dividend+3
  4885  064F  0834               	movf	??_Serial_begin+10,w
  4886  0650  00F6               	movwf	___aldiv@dividend+2
  4887  0651  0833               	movf	??_Serial_begin+9,w
  4888  0652  00F5               	movwf	___aldiv@dividend+1
  4889  0653  0832               	movf	??_Serial_begin+8,w
  4890  0654  00F4               	movwf	___aldiv@dividend
  4891  0655  120A  118A  24C3  120A  118A  	fcall	___aldiv
  4892  065A  0871               	movf	?___aldiv+1,w
  4893  065B  00FA               	movwf	Serial_begin@x+1
  4894  065C  0870               	movf	?___aldiv,w
  4895  065D  00F9               	movwf	Serial_begin@x
  4896  065E                     l2436:
  4897                           
  4898                           ;C:/Users/abdal/Desktop/Embedded-shs/Embedded-shs/libs/Serial.c: 6:     if (x > 255)
  4899  065E  3001               	movlw	1
  4900  065F  027A               	subwf	Serial_begin@x+1,w
  4901  0660  3000               	movlw	0
  4902  0661  1903               	skipnz
  4903  0662  0279               	subwf	Serial_begin@x,w
  4904  0663  1C03               	skipc
  4905  0664  2E66               	goto	u1501
  4906  0665  2E67               	goto	u1500
  4907  0666                     u1501:
  4908  0666  2EC3               	goto	l2442
  4909  0667                     u1500:
  4910  0667                     l2438:
  4911                           
  4912                           ;C:/Users/abdal/Desktop/Embedded-shs/Embedded-shs/libs/Serial.c: 7:     {;C:/Users/abdal
      +                          /Desktop/Embedded-shs/Embedded-shs/libs/Serial.c: 8:         x = (16000000 - baudrate * 
      +                          16) / (baudrate * 16);
  4913  0667  1283               	bcf	3,5	;RP0=0, select bank0
  4914  0668  1303               	bcf	3,6	;RP1=0, select bank0
  4915  0669  0826               	movf	Serial_begin@baudrate,w
  4916  066A  00AA               	movwf	??_Serial_begin
  4917  066B  0827               	movf	Serial_begin@baudrate+1,w
  4918  066C  00AB               	movwf	??_Serial_begin+1
  4919  066D  0828               	movf	Serial_begin@baudrate+2,w
  4920  066E  00AC               	movwf	??_Serial_begin+2
  4921  066F  0829               	movf	Serial_begin@baudrate+3,w
  4922  0670  00AD               	movwf	??_Serial_begin+3
  4923  0671  3004               	movlw	4
  4924  0672                     u1515:
  4925  0672  1003               	clrc
  4926  0673  0DAA               	rlf	??_Serial_begin,f
  4927  0674  0DAB               	rlf	??_Serial_begin+1,f
  4928  0675  0DAC               	rlf	??_Serial_begin+2,f
  4929  0676  0DAD               	rlf	??_Serial_begin+3,f
  4930  0677                     u1510:
  4931  0677  3EFF               	addlw	-1
  4932  0678  1D03               	skipz
  4933  0679  2E72               	goto	u1515
  4934  067A  082D               	movf	??_Serial_begin+3,w
  4935  067B  00F3               	movwf	___aldiv@divisor+3
  4936  067C  082C               	movf	??_Serial_begin+2,w
  4937  067D  00F2               	movwf	___aldiv@divisor+2
  4938  067E  082B               	movf	??_Serial_begin+1,w
  4939  067F  00F1               	movwf	___aldiv@divisor+1
  4940  0680  082A               	movf	??_Serial_begin,w
  4941  0681  00F0               	movwf	___aldiv@divisor
  4942  0682  0826               	movf	Serial_begin@baudrate,w
  4943  0683  00AE               	movwf	??_Serial_begin+4
  4944  0684  0827               	movf	Serial_begin@baudrate+1,w
  4945  0685  00AF               	movwf	??_Serial_begin+5
  4946  0686  0828               	movf	Serial_begin@baudrate+2,w
  4947  0687  00B0               	movwf	??_Serial_begin+6
  4948  0688  0829               	movf	Serial_begin@baudrate+3,w
  4949  0689  00B1               	movwf	??_Serial_begin+7
  4950  068A  3004               	movlw	4
  4951  068B                     u1525:
  4952  068B  1003               	clrc
  4953  068C  0DAE               	rlf	??_Serial_begin+4,f
  4954  068D  0DAF               	rlf	??_Serial_begin+5,f
  4955  068E  0DB0               	rlf	??_Serial_begin+6,f
  4956  068F  0DB1               	rlf	??_Serial_begin+7,f
  4957  0690                     u1520:
  4958  0690  3EFF               	addlw	-1
  4959  0691  1D03               	skipz
  4960  0692  2E8B               	goto	u1525
  4961  0693  3000               	movlw	0
  4962  0694  00B2               	movwf	??_Serial_begin+8
  4963  0695  3024               	movlw	36
  4964  0696  00B3               	movwf	??_Serial_begin+9
  4965  0697  30F4               	movlw	244
  4966  0698  00B4               	movwf	??_Serial_begin+10
  4967  0699  3000               	movlw	0
  4968  069A  00B5               	movwf	??_Serial_begin+11
  4969  069B  082E               	movf	??_Serial_begin+4,w
  4970  069C  02B2               	subwf	??_Serial_begin+8,f
  4971  069D  082F               	movf	??_Serial_begin+5,w
  4972  069E  1C03               	skipc
  4973  069F  0F2F               	incfsz	??_Serial_begin+5,w
  4974  06A0  2EA2               	goto	u1531
  4975  06A1  2EA3               	goto	u1532
  4976  06A2                     u1531:
  4977  06A2  02B3               	subwf	??_Serial_begin+9,f
  4978  06A3                     u1532:
  4979  06A3  0830               	movf	??_Serial_begin+6,w
  4980  06A4  1C03               	skipc
  4981  06A5  0F30               	incfsz	??_Serial_begin+6,w
  4982  06A6  2EA8               	goto	u1533
  4983  06A7  2EA9               	goto	u1534
  4984  06A8                     u1533:
  4985  06A8  02B4               	subwf	??_Serial_begin+10,f
  4986  06A9                     u1534:
  4987  06A9  0831               	movf	??_Serial_begin+7,w
  4988  06AA  1C03               	skipc
  4989  06AB  0F31               	incfsz	??_Serial_begin+7,w
  4990  06AC  2EAE               	goto	u1535
  4991  06AD  2EAF               	goto	u1536
  4992  06AE                     u1535:
  4993  06AE  02B5               	subwf	??_Serial_begin+11,f
  4994  06AF                     u1536:
  4995  06AF  0835               	movf	??_Serial_begin+11,w
  4996  06B0  00F7               	movwf	___aldiv@dividend+3
  4997  06B1  0834               	movf	??_Serial_begin+10,w
  4998  06B2  00F6               	movwf	___aldiv@dividend+2
  4999  06B3  0833               	movf	??_Serial_begin+9,w
  5000  06B4  00F5               	movwf	___aldiv@dividend+1
  5001  06B5  0832               	movf	??_Serial_begin+8,w
  5002  06B6  00F4               	movwf	___aldiv@dividend
  5003  06B7  120A  118A  24C3  120A  118A  	fcall	___aldiv
  5004  06BC  0871               	movf	?___aldiv+1,w
  5005  06BD  00FA               	movwf	Serial_begin@x+1
  5006  06BE  0870               	movf	?___aldiv,w
  5007  06BF  00F9               	movwf	Serial_begin@x
  5008  06C0                     l2440:
  5009                           
  5010                           ;C:/Users/abdal/Desktop/Embedded-shs/Embedded-shs/libs/Serial.c: 9:         BRGH = 1;
  5011  06C0  1683               	bsf	3,5	;RP0=1, select bank1
  5012  06C1  1303               	bcf	3,6	;RP1=0, select bank1
  5013  06C2  1518               	bsf	24,2	;volatile
  5014  06C3                     l2442:
  5015                           
  5016                           ;C:/Users/abdal/Desktop/Embedded-shs/Embedded-shs/libs/Serial.c: 11:     if (x < 256)
  5017  06C3  3001               	movlw	1
  5018  06C4  027A               	subwf	Serial_begin@x+1,w
  5019  06C5  3000               	movlw	0
  5020  06C6  1903               	skipnz
  5021  06C7  0279               	subwf	Serial_begin@x,w
  5022  06C8  1803               	skipnc
  5023  06C9  2ECB               	goto	u1541
  5024  06CA  2ECC               	goto	u1540
  5025  06CB                     u1541:
  5026  06CB  2EDE               	goto	l573
  5027  06CC                     u1540:
  5028  06CC                     l2444:
  5029                           
  5030                           ;C:/Users/abdal/Desktop/Embedded-shs/Embedded-shs/libs/Serial.c: 12:     {;C:/Users/abda
      +                          l/Desktop/Embedded-shs/Embedded-shs/libs/Serial.c: 13:         SPBRG = x;
  5031  06CC  0879               	movf	Serial_begin@x,w
  5032  06CD  1683               	bsf	3,5	;RP0=1, select bank1
  5033  06CE  1303               	bcf	3,6	;RP1=0, select bank1
  5034  06CF  0099               	movwf	25	;volatile
  5035  06D0                     l2446:
  5036                           
  5037                           ;C:/Users/abdal/Desktop/Embedded-shs/Embedded-shs/libs/Serial.c: 14:         SYNC = 0;
  5038  06D0  1218               	bcf	24,4	;volatile
  5039  06D1                     l2448:
  5040                           
  5041                           ;C:/Users/abdal/Desktop/Embedded-shs/Embedded-shs/libs/Serial.c: 15:         SPEN = 1;
  5042  06D1  1283               	bcf	3,5	;RP0=0, select bank0
  5043  06D2  1303               	bcf	3,6	;RP1=0, select bank0
  5044  06D3  1798               	bsf	24,7	;volatile
  5045  06D4                     l2450:
  5046                           
  5047                           ;C:/Users/abdal/Desktop/Embedded-shs/Embedded-shs/libs/Serial.c: 16:         TRISC7 = 1;
  5048  06D4  1683               	bsf	3,5	;RP0=1, select bank1
  5049  06D5  1303               	bcf	3,6	;RP1=0, select bank1
  5050  06D6  1787               	bsf	7,7	;volatile
  5051  06D7                     l2452:
  5052                           
  5053                           ;C:/Users/abdal/Desktop/Embedded-shs/Embedded-shs/libs/Serial.c: 17:         TRISC6 = 1;
  5054  06D7  1707               	bsf	7,6	;volatile
  5055  06D8                     l2454:
  5056                           
  5057                           ;C:/Users/abdal/Desktop/Embedded-shs/Embedded-shs/libs/Serial.c: 18:         CREN = 1;
  5058  06D8  1283               	bcf	3,5	;RP0=0, select bank0
  5059  06D9  1303               	bcf	3,6	;RP1=0, select bank0
  5060  06DA  1618               	bsf	24,4	;volatile
  5061  06DB                     l2456:
  5062                           
  5063                           ;C:/Users/abdal/Desktop/Embedded-shs/Embedded-shs/libs/Serial.c: 19:         TXEN = 1;
  5064  06DB  1683               	bsf	3,5	;RP0=1, select bank1
  5065  06DC  1303               	bcf	3,6	;RP1=0, select bank1
  5066  06DD  1698               	bsf	24,5	;volatile
  5067  06DE                     l573:
  5068  06DE  0008               	return
  5069  06DF                     __end_of_Serial_begin:
  5070                           
  5071                           	psect	text29
  5072  04C3                     __ptext29:	
  5073 ;; *************** function ___aldiv *****************
  5074 ;; Defined at:
  5075 ;;		line 5 in file "C:\Program Files\Microchip\xc8\v2.35\pic\sources\c90\common\aldiv.c"
  5076 ;; Parameters:    Size  Location     Type
  5077 ;;  divisor         4    0[COMMON] long 
  5078 ;;  dividend        4    4[COMMON] long 
  5079 ;; Auto vars:     Size  Location     Type
  5080 ;;  quotient        4    2[BANK0 ] long 
  5081 ;;  sign            1    1[BANK0 ] unsigned char 
  5082 ;;  counter         1    0[BANK0 ] unsigned char 
  5083 ;; Return value:  Size  Location     Type
  5084 ;;                  4    0[COMMON] long 
  5085 ;; Registers used:
  5086 ;;		wreg, status,2, status,0
  5087 ;; Tracked objects:
  5088 ;;		On entry : 0/0
  5089 ;;		On exit  : 0/0
  5090 ;;		Unchanged: 0/0
  5091 ;; Data sizes:     COMMON   BANK0   BANK1   BANK3   BANK2
  5092 ;;      Params:         8       0       0       0       0
  5093 ;;      Locals:         0       6       0       0       0
  5094 ;;      Temps:          1       0       0       0       0
  5095 ;;      Totals:         9       6       0       0       0
  5096 ;;Total ram usage:       15 bytes
  5097 ;; Hardware stack levels used: 1
  5098 ;; This function calls:
  5099 ;;		Nothing
  5100 ;; This function is called by:
  5101 ;;		_Serial_begin
  5102 ;; This function uses a non-reentrant model
  5103 ;;
  5104                           
  5105  04C3                     ___aldiv:	
  5106                           ;psect for function ___aldiv
  5107                           
  5108  04C3                     l2394:	
  5109                           ;incstack = 0
  5110                           ; Regs used in ___aldiv: [wreg+status,2+status,0]
  5111                           
  5112  04C3  1283               	bcf	3,5	;RP0=0, select bank0
  5113  04C4  1303               	bcf	3,6	;RP1=0, select bank0
  5114  04C5  01A1               	clrf	___aldiv@sign
  5115  04C6                     l2396:
  5116  04C6  1FF3               	btfss	___aldiv@divisor+3,7
  5117  04C7  2CC9               	goto	u1371
  5118  04C8  2CCA               	goto	u1370
  5119  04C9                     u1371:
  5120  04C9  2CD7               	goto	l709
  5121  04CA                     u1370:
  5122  04CA                     l2398:
  5123  04CA  09F0               	comf	___aldiv@divisor,f
  5124  04CB  09F1               	comf	___aldiv@divisor+1,f
  5125  04CC  09F2               	comf	___aldiv@divisor+2,f
  5126  04CD  09F3               	comf	___aldiv@divisor+3,f
  5127  04CE  0AF0               	incf	___aldiv@divisor,f
  5128  04CF  1903               	skipnz
  5129  04D0  0AF1               	incf	___aldiv@divisor+1,f
  5130  04D1  1903               	skipnz
  5131  04D2  0AF2               	incf	___aldiv@divisor+2,f
  5132  04D3  1903               	skipnz
  5133  04D4  0AF3               	incf	___aldiv@divisor+3,f
  5134  04D5  01A1               	clrf	___aldiv@sign
  5135  04D6  0AA1               	incf	___aldiv@sign,f
  5136  04D7                     l709:
  5137  04D7  1FF7               	btfss	___aldiv@dividend+3,7
  5138  04D8  2CDA               	goto	u1381
  5139  04D9  2CDB               	goto	u1380
  5140  04DA                     u1381:
  5141  04DA  2CEA               	goto	l2404
  5142  04DB                     u1380:
  5143  04DB                     l2400:
  5144  04DB  09F4               	comf	___aldiv@dividend,f
  5145  04DC  09F5               	comf	___aldiv@dividend+1,f
  5146  04DD  09F6               	comf	___aldiv@dividend+2,f
  5147  04DE  09F7               	comf	___aldiv@dividend+3,f
  5148  04DF  0AF4               	incf	___aldiv@dividend,f
  5149  04E0  1903               	skipnz
  5150  04E1  0AF5               	incf	___aldiv@dividend+1,f
  5151  04E2  1903               	skipnz
  5152  04E3  0AF6               	incf	___aldiv@dividend+2,f
  5153  04E4  1903               	skipnz
  5154  04E5  0AF7               	incf	___aldiv@dividend+3,f
  5155  04E6                     l2402:
  5156  04E6  3001               	movlw	1
  5157  04E7  00F8               	movwf	??___aldiv
  5158  04E8  0878               	movf	??___aldiv,w
  5159  04E9  06A1               	xorwf	___aldiv@sign,f
  5160  04EA                     l2404:
  5161  04EA  3000               	movlw	0
  5162  04EB  00A5               	movwf	___aldiv@quotient+3
  5163  04EC  3000               	movlw	0
  5164  04ED  00A4               	movwf	___aldiv@quotient+2
  5165  04EE  3000               	movlw	0
  5166  04EF  00A3               	movwf	___aldiv@quotient+1
  5167  04F0  3000               	movlw	0
  5168  04F1  00A2               	movwf	___aldiv@quotient
  5169  04F2                     l2406:
  5170  04F2  0873               	movf	___aldiv@divisor+3,w
  5171  04F3  0472               	iorwf	___aldiv@divisor+2,w
  5172  04F4  0471               	iorwf	___aldiv@divisor+1,w
  5173  04F5  0470               	iorwf	___aldiv@divisor,w
  5174  04F6  1903               	skipnz
  5175  04F7  2CF9               	goto	u1391
  5176  04F8  2CFA               	goto	u1390
  5177  04F9                     u1391:
  5178  04F9  2D47               	goto	l2426
  5179  04FA                     u1390:
  5180  04FA                     l2408:
  5181  04FA  01A0               	clrf	___aldiv@counter
  5182  04FB  0AA0               	incf	___aldiv@counter,f
  5183  04FC  2D0A               	goto	l2412
  5184  04FD                     l2410:
  5185  04FD  3001               	movlw	1
  5186  04FE  00F8               	movwf	??___aldiv
  5187  04FF                     u1405:
  5188  04FF  1003               	clrc
  5189  0500  0DF0               	rlf	___aldiv@divisor,f
  5190  0501  0DF1               	rlf	___aldiv@divisor+1,f
  5191  0502  0DF2               	rlf	___aldiv@divisor+2,f
  5192  0503  0DF3               	rlf	___aldiv@divisor+3,f
  5193  0504  0BF8               	decfsz	??___aldiv,f
  5194  0505  2CFF               	goto	u1405
  5195  0506  3001               	movlw	1
  5196  0507  00F8               	movwf	??___aldiv
  5197  0508  0878               	movf	??___aldiv,w
  5198  0509  07A0               	addwf	___aldiv@counter,f
  5199  050A                     l2412:
  5200  050A  1FF3               	btfss	___aldiv@divisor+3,7
  5201  050B  2D0D               	goto	u1411
  5202  050C  2D0E               	goto	u1410
  5203  050D                     u1411:
  5204  050D  2CFD               	goto	l2410
  5205  050E                     u1410:
  5206  050E                     l2414:
  5207  050E  3001               	movlw	1
  5208  050F  00F8               	movwf	??___aldiv
  5209  0510                     u1425:
  5210  0510  1003               	clrc
  5211  0511  0DA2               	rlf	___aldiv@quotient,f
  5212  0512  0DA3               	rlf	___aldiv@quotient+1,f
  5213  0513  0DA4               	rlf	___aldiv@quotient+2,f
  5214  0514  0DA5               	rlf	___aldiv@quotient+3,f
  5215  0515  0BF8               	decfsz	??___aldiv,f
  5216  0516  2D10               	goto	u1425
  5217  0517                     l2416:
  5218  0517  0873               	movf	___aldiv@divisor+3,w
  5219  0518  0277               	subwf	___aldiv@dividend+3,w
  5220  0519  1D03               	skipz
  5221  051A  2D25               	goto	u1435
  5222  051B  0872               	movf	___aldiv@divisor+2,w
  5223  051C  0276               	subwf	___aldiv@dividend+2,w
  5224  051D  1D03               	skipz
  5225  051E  2D25               	goto	u1435
  5226  051F  0871               	movf	___aldiv@divisor+1,w
  5227  0520  0275               	subwf	___aldiv@dividend+1,w
  5228  0521  1D03               	skipz
  5229  0522  2D25               	goto	u1435
  5230  0523  0870               	movf	___aldiv@divisor,w
  5231  0524  0274               	subwf	___aldiv@dividend,w
  5232  0525                     u1435:
  5233  0525  1C03               	skipc
  5234  0526  2D28               	goto	u1431
  5235  0527  2D29               	goto	u1430
  5236  0528                     u1431:
  5237  0528  2D38               	goto	l2422
  5238  0529                     u1430:
  5239  0529                     l2418:
  5240  0529  0870               	movf	___aldiv@divisor,w
  5241  052A  02F4               	subwf	___aldiv@dividend,f
  5242  052B  0871               	movf	___aldiv@divisor+1,w
  5243  052C  1C03               	skipc
  5244  052D  0F71               	incfsz	___aldiv@divisor+1,w
  5245  052E  02F5               	subwf	___aldiv@dividend+1,f
  5246  052F  0872               	movf	___aldiv@divisor+2,w
  5247  0530  1C03               	skipc
  5248  0531  0F72               	incfsz	___aldiv@divisor+2,w
  5249  0532  02F6               	subwf	___aldiv@dividend+2,f
  5250  0533  0873               	movf	___aldiv@divisor+3,w
  5251  0534  1C03               	skipc
  5252  0535  0F73               	incfsz	___aldiv@divisor+3,w
  5253  0536  02F7               	subwf	___aldiv@dividend+3,f
  5254  0537                     l2420:
  5255  0537  1422               	bsf	___aldiv@quotient,0
  5256  0538                     l2422:
  5257  0538  3001               	movlw	1
  5258  0539                     u1445:
  5259  0539  1003               	clrc
  5260  053A  0CF3               	rrf	___aldiv@divisor+3,f
  5261  053B  0CF2               	rrf	___aldiv@divisor+2,f
  5262  053C  0CF1               	rrf	___aldiv@divisor+1,f
  5263  053D  0CF0               	rrf	___aldiv@divisor,f
  5264  053E  3EFF               	addlw	-1
  5265  053F  1D03               	skipz
  5266  0540  2D39               	goto	u1445
  5267  0541                     l2424:
  5268  0541  3001               	movlw	1
  5269  0542  02A0               	subwf	___aldiv@counter,f
  5270  0543  1D03               	btfss	3,2
  5271  0544  2D46               	goto	u1451
  5272  0545  2D47               	goto	u1450
  5273  0546                     u1451:
  5274  0546  2D0E               	goto	l2414
  5275  0547                     u1450:
  5276  0547                     l2426:
  5277  0547  0821               	movf	___aldiv@sign,w
  5278  0548  1903               	btfsc	3,2
  5279  0549  2D4B               	goto	u1461
  5280  054A  2D4C               	goto	u1460
  5281  054B                     u1461:
  5282  054B  2D57               	goto	l2430
  5283  054C                     u1460:
  5284  054C                     l2428:
  5285  054C  09A2               	comf	___aldiv@quotient,f
  5286  054D  09A3               	comf	___aldiv@quotient+1,f
  5287  054E  09A4               	comf	___aldiv@quotient+2,f
  5288  054F  09A5               	comf	___aldiv@quotient+3,f
  5289  0550  0AA2               	incf	___aldiv@quotient,f
  5290  0551  1903               	skipnz
  5291  0552  0AA3               	incf	___aldiv@quotient+1,f
  5292  0553  1903               	skipnz
  5293  0554  0AA4               	incf	___aldiv@quotient+2,f
  5294  0555  1903               	skipnz
  5295  0556  0AA5               	incf	___aldiv@quotient+3,f
  5296  0557                     l2430:
  5297  0557  0825               	movf	___aldiv@quotient+3,w
  5298  0558  00F3               	movwf	?___aldiv+3
  5299  0559  0824               	movf	___aldiv@quotient+2,w
  5300  055A  00F2               	movwf	?___aldiv+2
  5301  055B  0823               	movf	___aldiv@quotient+1,w
  5302  055C  00F1               	movwf	?___aldiv+1
  5303  055D  0822               	movf	___aldiv@quotient,w
  5304  055E  00F0               	movwf	?___aldiv
  5305  055F                     l719:
  5306  055F  0008               	return
  5307  0560                     __end_of___aldiv:
  5308                           
  5309                           	psect	text30
  5310  0D65                     __ptext30:	
  5311 ;; *************** function _SPI_initialize *****************
  5312 ;; Defined at:
  5313 ;;		line 3 in file "C:/Users/abdal/Desktop/Embedded-shs/Embedded-shs/libs/spi_master.c"
  5314 ;; Parameters:    Size  Location     Type
  5315 ;;		None
  5316 ;; Auto vars:     Size  Location     Type
  5317 ;;		None
  5318 ;; Return value:  Size  Location     Type
  5319 ;;                  1    wreg      void 
  5320 ;; Registers used:
  5321 ;;		wreg, status,2
  5322 ;; Tracked objects:
  5323 ;;		On entry : 0/0
  5324 ;;		On exit  : 0/0
  5325 ;;		Unchanged: 0/0
  5326 ;; Data sizes:     COMMON   BANK0   BANK1   BANK3   BANK2
  5327 ;;      Params:         0       0       0       0       0
  5328 ;;      Locals:         0       0       0       0       0
  5329 ;;      Temps:          0       0       0       0       0
  5330 ;;      Totals:         0       0       0       0       0
  5331 ;;Total ram usage:        0 bytes
  5332 ;; Hardware stack levels used: 1
  5333 ;; This function calls:
  5334 ;;		Nothing
  5335 ;; This function is called by:
  5336 ;;		_main
  5337 ;; This function uses a non-reentrant model
  5338 ;;
  5339                           
  5340  0D65                     _SPI_initialize:	
  5341                           ;psect for function _SPI_initialize
  5342                           
  5343  0D65                     l2460:	
  5344                           ;incstack = 0
  5345                           ; Regs used in _SPI_initialize: [wreg+status,2]
  5346                           
  5347                           
  5348                           ;C:/Users/abdal/Desktop/Embedded-shs/Embedded-shs/libs/spi_master.c: 5:     SSPEN = 1;
  5349  0D65  1283               	bcf	3,5	;RP0=0, select bank0
  5350  0D66  1303               	bcf	3,6	;RP1=0, select bank0
  5351  0D67  1694               	bsf	20,5	;volatile
  5352  0D68                     l2462:
  5353                           
  5354                           ;C:/Users/abdal/Desktop/Embedded-shs/Embedded-shs/libs/spi_master.c: 6:     SSPSTAT = 0b
      +                          01000000;
  5355  0D68  3040               	movlw	64
  5356  0D69  1683               	bsf	3,5	;RP0=1, select bank1
  5357  0D6A  1303               	bcf	3,6	;RP1=0, select bank1
  5358  0D6B  0094               	movwf	20	;volatile
  5359  0D6C                     l2464:
  5360                           
  5361                           ;C:/Users/abdal/Desktop/Embedded-shs/Embedded-shs/libs/spi_master.c: 7:     TRISC5 = 0;
  5362  0D6C  1287               	bcf	7,5	;volatile
  5363  0D6D                     l2466:
  5364                           
  5365                           ;C:/Users/abdal/Desktop/Embedded-shs/Embedded-shs/libs/spi_master.c: 8:     TRISC4 = 1;
  5366  0D6D  1607               	bsf	7,4	;volatile
  5367  0D6E                     l2468:
  5368                           
  5369                           ;C:/Users/abdal/Desktop/Embedded-shs/Embedded-shs/libs/spi_master.c: 9:     TRISC3 = 0;
  5370  0D6E  1187               	bcf	7,3	;volatile
  5371  0D6F                     l2470:
  5372                           
  5373                           ;C:/Users/abdal/Desktop/Embedded-shs/Embedded-shs/libs/spi_master.c: 10:     SSPCON = (S
      +                          SPCON & 0xf0) | 0b0010;
  5374  0D6F  1283               	bcf	3,5	;RP0=0, select bank0
  5375  0D70  1303               	bcf	3,6	;RP1=0, select bank0
  5376  0D71  0814               	movf	20,w	;volatile
  5377  0D72  39F0               	andlw	240
  5378  0D73  3802               	iorlw	2
  5379  0D74  0094               	movwf	20	;volatile
  5380  0D75                     l520:
  5381  0D75  0008               	return
  5382  0D76                     __end_of_SPI_initialize:
  5383                           
  5384                           	psect	text31
  5385  0DB6                     __ptext31:	
  5386 ;; *************** function _RF24_isChipConnected *****************
  5387 ;; Defined at:
  5388 ;;		line 129 in file "C:/Users/abdal/Desktop/Embedded-shs/Embedded-shs/libs/rf24.c"
  5389 ;; Parameters:    Size  Location     Type
  5390 ;;		None
  5391 ;; Auto vars:     Size  Location     Type
  5392 ;;  width           1    5[COMMON] unsigned char 
  5393 ;; Return value:  Size  Location     Type
  5394 ;;                  1    wreg      unsigned char 
  5395 ;; Registers used:
  5396 ;;		wreg, status,2, status,0, pclath, cstack
  5397 ;; Tracked objects:
  5398 ;;		On entry : 0/0
  5399 ;;		On exit  : 0/0
  5400 ;;		Unchanged: 0/0
  5401 ;; Data sizes:     COMMON   BANK0   BANK1   BANK3   BANK2
  5402 ;;      Params:         0       0       0       0       0
  5403 ;;      Locals:         1       0       0       0       0
  5404 ;;      Temps:          1       0       0       0       0
  5405 ;;      Totals:         2       0       0       0       0
  5406 ;;Total ram usage:        2 bytes
  5407 ;; Hardware stack levels used: 1
  5408 ;; Hardware stack levels required when called: 2
  5409 ;; This function calls:
  5410 ;;		_RF24_read_register
  5411 ;; This function is called by:
  5412 ;;		_main
  5413 ;; This function uses a non-reentrant model
  5414 ;;
  5415                           
  5416  0DB6                     _RF24_isChipConnected:	
  5417                           ;psect for function _RF24_isChipConnected
  5418                           
  5419  0DB6                     l3136:	
  5420                           ;incstack = 0
  5421                           ; Regs used in _RF24_isChipConnected: [wreg+status,2+status,0+pclath+cstack]
  5422                           
  5423                           
  5424                           ;C:/Users/abdal/Desktop/Embedded-shs/Embedded-shs/libs/rf24.c: 131:     uint8_t width = 
      +                          RF24_read_register(0x03) & 0b11;
  5425  0DB6  3003               	movlw	3
  5426  0DB7  120A  158A  2652  120A  158A  	fcall	_RF24_read_register
  5427  0DBC  3903               	andlw	3
  5428  0DBD  00F4               	movwf	??_RF24_isChipConnected
  5429  0DBE  0874               	movf	??_RF24_isChipConnected,w
  5430  0DBF  00F5               	movwf	RF24_isChipConnected@width
  5431  0DC0                     l3138:
  5432                           
  5433                           ;C:/Users/abdal/Desktop/Embedded-shs/Embedded-shs/libs/rf24.c: 132:     if (width > 0 &&
      +                           width < 4)
  5434  0DC0  0875               	movf	RF24_isChipConnected@width,w
  5435  0DC1  1903               	btfsc	3,2
  5436  0DC2  2DC4               	goto	u2191
  5437  0DC3  2DC5               	goto	u2190
  5438  0DC4                     u2191:
  5439  0DC4  2DCD               	goto	l3146
  5440  0DC5                     u2190:
  5441  0DC5                     l3140:
  5442  0DC5  3004               	movlw	4
  5443  0DC6  0275               	subwf	RF24_isChipConnected@width,w
  5444  0DC7  1803               	skipnc
  5445  0DC8  2DCA               	goto	u2201
  5446  0DC9  2DCB               	goto	u2200
  5447  0DCA                     u2201:
  5448  0DCA  2DCD               	goto	l3146
  5449  0DCB                     u2200:
  5450  0DCB                     l3142:
  5451                           
  5452                           ;C:/Users/abdal/Desktop/Embedded-shs/Embedded-shs/libs/rf24.c: 133:     {;C:/Users/abdal
      +                          /Desktop/Embedded-shs/Embedded-shs/libs/rf24.c: 134:         return 1;
  5453  0DCB  3001               	movlw	1
  5454  0DCC  2DCE               	goto	l365
  5455  0DCD                     l3146:
  5456                           
  5457                           ;C:/Users/abdal/Desktop/Embedded-shs/Embedded-shs/libs/rf24.c: 136:     return 0;
  5458  0DCD  3000               	movlw	0
  5459  0DCE                     l365:
  5460  0DCE  0008               	return
  5461  0DCF                     __end_of_RF24_isChipConnected:
  5462                           
  5463                           	psect	text32
  5464  01C0                     __ptext32:	
  5465 ;; *************** function _Network_begin *****************
  5466 ;; Defined at:
  5467 ;;		line 138 in file "C:/Users/abdal/Desktop/Embedded-shs/Embedded-shs/libs/internet.c"
  5468 ;; Parameters:    Size  Location     Type
  5469 ;;		None
  5470 ;; Auto vars:     Size  Location     Type
  5471 ;;		None
  5472 ;; Return value:  Size  Location     Type
  5473 ;;                  1    wreg      void 
  5474 ;; Registers used:
  5475 ;;		wreg, fsr0l, fsr0h, status,2, status,0, btemp+1, pclath, cstack
  5476 ;; Tracked objects:
  5477 ;;		On entry : 0/0
  5478 ;;		On exit  : 0/0
  5479 ;;		Unchanged: 0/0
  5480 ;; Data sizes:     COMMON   BANK0   BANK1   BANK3   BANK2
  5481 ;;      Params:         0       0       0       0       0
  5482 ;;      Locals:         0       0       0       0       0
  5483 ;;      Temps:          1       0       0       0       0
  5484 ;;      Totals:         1       0       0       0       0
  5485 ;;Total ram usage:        1 bytes
  5486 ;; Hardware stack levels used: 1
  5487 ;; Hardware stack levels required when called: 4
  5488 ;; This function calls:
  5489 ;;		_RF24_begin
  5490 ;;		_RF24_enableDynamicPayloads
  5491 ;;		_RF24_getPALevel
  5492 ;;		_RF24_openReadingPipe
  5493 ;;		_RF24_setAddressWidth
  5494 ;;		_RF24_setAutoAck
  5495 ;;		_RF24_setCRCLength
  5496 ;;		_RF24_setDataRate
  5497 ;;		_RF24_setPayloadSize
  5498 ;;		_RF24_startListening
  5499 ;; This function is called by:
  5500 ;;		_main
  5501 ;; This function uses a non-reentrant model
  5502 ;;
  5503                           
  5504  01C0                     _Network_begin:	
  5505                           ;psect for function _Network_begin
  5506                           
  5507  01C0                     l3110:	
  5508                           ;incstack = 0
  5509                           ; Regs used in _Network_begin: [wreg-fsr0h+status,2+status,0+btemp+1+pclath+cstack]
  5510                           
  5511                           
  5512                           ;C:/Users/abdal/Desktop/Embedded-shs/Embedded-shs/libs/internet.c: 141:     RF24_begin()
      +                          ;
  5513  01C0  120A  118A  2560  120A  118A  	fcall	_RF24_begin
  5514                           
  5515                           ;C:/Users/abdal/Desktop/Embedded-shs/Embedded-shs/libs/internet.c: 142:     RF24_setAddr
      +                          essWidth(5);
  5516  01C5  3005               	movlw	5
  5517  01C6  120A  158A  2537  120A  118A  	fcall	_RF24_setAddressWidth
  5518                           
  5519                           ;C:/Users/abdal/Desktop/Embedded-shs/Embedded-shs/libs/internet.c: 143:     RF24_enableD
      +                          ynamicPayloads();
  5520  01CB  120A  158A  26CD  120A  118A  	fcall	_RF24_enableDynamicPayloads
  5521                           
  5522                           ;C:/Users/abdal/Desktop/Embedded-shs/Embedded-shs/libs/internet.c: 144:     RF24_setData
      +                          Rate(RF24_1MBPS);
  5523  01D0  3000               	movlw	0
  5524  01D1  120A  158A  2731  120A  118A  	fcall	_RF24_setDataRate
  5525                           
  5526                           ;C:/Users/abdal/Desktop/Embedded-shs/Embedded-shs/libs/internet.c: 145:     RF24_setCRCL
      +                          ength(RF24_CRC_8);
  5527  01D6  3001               	movlw	1
  5528  01D7  120A  158A  270F  120A  118A  	fcall	_RF24_setCRCLength
  5529  01DC                     l3112:
  5530                           
  5531                           ;C:/Users/abdal/Desktop/Embedded-shs/Embedded-shs/libs/internet.c: 146:     RF24_openRea
      +                          dingPipe(0, BASE_PIPE);
  5532  01DC  302F               	movlw	low (_BASE_PIPE| (0+32768))
  5533  01DD  00F7               	movwf	RF24_openReadingPipe@address
  5534  01DE  3088               	movlw	high (_BASE_PIPE| (0+32768))
  5535  01DF  00F8               	movwf	RF24_openReadingPipe@address+1
  5536  01E0  3000               	movlw	0
  5537  01E1  120A  118A  2201  120A  118A  	fcall	_RF24_openReadingPipe
  5538  01E6                     l3114:
  5539                           
  5540                           ;C:/Users/abdal/Desktop/Embedded-shs/Embedded-shs/libs/internet.c: 147:     RF24_setAuto
      +                          Ack(1);
  5541  01E6  3001               	movlw	1
  5542  01E7  120A  158A  259D  120A  118A  	fcall	_RF24_setAutoAck
  5543  01EC                     l3116:
  5544                           
  5545                           ;C:/Users/abdal/Desktop/Embedded-shs/Embedded-shs/libs/internet.c: 148:     RF24_getPALe
      +                          vel(RF24_PA_MAX);
  5546  01EC  3003               	movlw	3
  5547  01ED  00FC               	movwf	??_Network_begin
  5548  01EE  087C               	movf	??_Network_begin,w
  5549  01EF  00F4               	movwf	?_RF24_getPALevel
  5550  01F0  120A  158A  24E6  120A  118A  	fcall	_RF24_getPALevel
  5551  01F5                     l3118:
  5552                           
  5553                           ;C:/Users/abdal/Desktop/Embedded-shs/Embedded-shs/libs/internet.c: 149:     RF24_setPayl
      +                          oadSize(32);
  5554  01F5  3020               	movlw	32
  5555  01F6  120A  118A  2182  120A  118A  	fcall	_RF24_setPayloadSize
  5556  01FB                     l3120:
  5557                           
  5558                           ;C:/Users/abdal/Desktop/Embedded-shs/Embedded-shs/libs/internet.c: 150:     RF24_startLi
      +                          stening();
  5559  01FB  120A  158A  266F  120A  118A  	fcall	_RF24_startListening
  5560  0200                     l269:
  5561  0200  0008               	return
  5562  0201                     __end_of_Network_begin:
  5563                           
  5564                           	psect	text33
  5565  0E6F                     __ptext33:	
  5566 ;; *************** function _RF24_startListening *****************
  5567 ;; Defined at:
  5568 ;;		line 139 in file "C:/Users/abdal/Desktop/Embedded-shs/Embedded-shs/libs/rf24.c"
  5569 ;; Parameters:    Size  Location     Type
  5570 ;;		None
  5571 ;; Auto vars:     Size  Location     Type
  5572 ;;		None
  5573 ;; Return value:  Size  Location     Type
  5574 ;;                  1    wreg      void 
  5575 ;; Registers used:
  5576 ;;		wreg, status,2, status,0, pclath, cstack
  5577 ;; Tracked objects:
  5578 ;;		On entry : 0/0
  5579 ;;		On exit  : 0/0
  5580 ;;		Unchanged: 0/0
  5581 ;; Data sizes:     COMMON   BANK0   BANK1   BANK3   BANK2
  5582 ;;      Params:         0       0       0       0       0
  5583 ;;      Locals:         0       0       0       0       0
  5584 ;;      Temps:          1       0       0       0       0
  5585 ;;      Totals:         1       0       0       0       0
  5586 ;;Total ram usage:        1 bytes
  5587 ;; Hardware stack levels used: 1
  5588 ;; Hardware stack levels required when called: 2
  5589 ;; This function calls:
  5590 ;;		_RF24_read_register
  5591 ;;		_RF24_write_register
  5592 ;; This function is called by:
  5593 ;;		_internet_relay
  5594 ;;		_Network_begin
  5595 ;; This function uses a non-reentrant model
  5596 ;;
  5597                           
  5598  0E6F                     _RF24_startListening:	
  5599                           ;psect for function _RF24_startListening
  5600                           
  5601  0E6F                     l2854:	
  5602                           ;incstack = 0
  5603                           ; Regs used in _RF24_startListening: [wreg+status,2+status,0+pclath+cstack]
  5604                           
  5605                           
  5606                           ;C:/Users/abdal/Desktop/Embedded-shs/Embedded-shs/libs/rf24.c: 141:     RF24_write_regis
      +                          ter(0x00, RF24_read_register(0x00) | (1 << (0)));
  5607  0E6F  3000               	movlw	0
  5608  0E70  120A  158A  2652  120A  158A  	fcall	_RF24_read_register
  5609  0E75  3801               	iorlw	1
  5610  0E76  00F7               	movwf	??_RF24_startListening
  5611  0E77  0877               	movf	??_RF24_startListening,w
  5612  0E78  00F4               	movwf	RF24_write_register@value
  5613  0E79  3000               	movlw	0
  5614  0E7A  120A  158A  25CF  120A  158A  	fcall	_RF24_write_register
  5615                           
  5616                           ;C:/Users/abdal/Desktop/Embedded-shs/Embedded-shs/libs/rf24.c: 142:     RF24_write_regis
      +                          ter(0x07, (1 << (6)) | (1 << (5)) | (1 << (4)));
  5617  0E7F  3070               	movlw	112
  5618  0E80  00F7               	movwf	??_RF24_startListening
  5619  0E81  0877               	movf	??_RF24_startListening,w
  5620  0E82  00F4               	movwf	RF24_write_register@value
  5621  0E83  3007               	movlw	7
  5622  0E84  120A  158A  25CF  120A  158A  	fcall	_RF24_write_register
  5623  0E89                     l2856:
  5624                           
  5625                           ;C:/Users/abdal/Desktop/Embedded-shs/Embedded-shs/libs/rf24.c: 143:     RD2 = 1;
  5626  0E89  1283               	bcf	3,5	;RP0=0, select bank0
  5627  0E8A  1303               	bcf	3,6	;RP1=0, select bank0
  5628  0E8B  1508               	bsf	8,2	;volatile
  5629  0E8C                     l368:
  5630  0E8C  0008               	return
  5631  0E8D                     __end_of_RF24_startListening:
  5632                           
  5633                           	psect	text34
  5634  0F0F                     __ptext34:	
  5635 ;; *************** function _RF24_setCRCLength *****************
  5636 ;; Defined at:
  5637 ;;		line 411 in file "C:/Users/abdal/Desktop/Embedded-shs/Embedded-shs/libs/rf24.c"
  5638 ;; Parameters:    Size  Location     Type
  5639 ;;  length          1    wreg     enum E904
  5640 ;; Auto vars:     Size  Location     Type
  5641 ;;  length          1    8[COMMON] enum E904
  5642 ;; Return value:  Size  Location     Type
  5643 ;;                  1    wreg      void 
  5644 ;; Registers used:
  5645 ;;		wreg, status,2, status,0, pclath, cstack
  5646 ;; Tracked objects:
  5647 ;;		On entry : 0/0
  5648 ;;		On exit  : 0/0
  5649 ;;		Unchanged: 0/0
  5650 ;; Data sizes:     COMMON   BANK0   BANK1   BANK3   BANK2
  5651 ;;      Params:         0       0       0       0       0
  5652 ;;      Locals:         1       0       0       0       0
  5653 ;;      Temps:          1       0       0       0       0
  5654 ;;      Totals:         2       0       0       0       0
  5655 ;;Total ram usage:        2 bytes
  5656 ;; Hardware stack levels used: 1
  5657 ;; Hardware stack levels required when called: 2
  5658 ;; This function calls:
  5659 ;;		_RF24_write_register
  5660 ;; This function is called by:
  5661 ;;		_Network_begin
  5662 ;; This function uses a non-reentrant model
  5663 ;;
  5664                           
  5665  0F0F                     _RF24_setCRCLength:	
  5666                           ;psect for function _RF24_setCRCLength
  5667                           
  5668                           
  5669                           ;incstack = 0
  5670                           ; Regs used in _RF24_setCRCLength: [wreg+status,2+status,0+pclath+cstack]
  5671                           ;RF24_setCRCLength@length stored from wreg
  5672  0F0F  00F8               	movwf	RF24_setCRCLength@length
  5673  0F10                     l3088:
  5674                           
  5675                           ;C:/Users/abdal/Desktop/Embedded-shs/Embedded-shs/libs/rf24.c: 411: void RF24_setCRCLeng
      +                          th(rf24_crclength_e length);C:/Users/abdal/Desktop/Embedded-shs/Embedded-shs/libs/rf24.c
      +                          : 412: {;C:/Users/abdal/Desktop/Embedded-shs/Embedded-shs/libs/rf24.c: 413:     RF24_att
      +                          r_config = RF24_attr_config & ~((1 << (2)) | (1 << (3)));
  5676  0F10  1283               	bcf	3,5	;RP0=0, select bank0
  5677  0F11  1303               	bcf	3,6	;RP1=0, select bank0
  5678  0F12  0842               	movf	_RF24_attr_config,w
  5679  0F13  39F3               	andlw	243
  5680  0F14  00F7               	movwf	??_RF24_setCRCLength
  5681  0F15  0877               	movf	??_RF24_setCRCLength,w
  5682  0F16  00C2               	movwf	_RF24_attr_config
  5683  0F17                     l3090:
  5684                           
  5685                           ;C:/Users/abdal/Desktop/Embedded-shs/Embedded-shs/libs/rf24.c: 416:     if (length == RF
      +                          24_CRC_DISABLED)
  5686  0F17  0878               	movf	RF24_setCRCLength@length,w
  5687  0F18  1D03               	btfss	3,2
  5688  0F19  2F1B               	goto	u2141
  5689  0F1A  2F1C               	goto	u2140
  5690  0F1B                     u2141:
  5691  0F1B  2F1D               	goto	l3094
  5692  0F1C                     u2140:
  5693  0F1C  2F26               	goto	l3098
  5694  0F1D                     l3094:
  5695  0F1D  0378               	decf	RF24_setCRCLength@length,w
  5696  0F1E  1D03               	btfss	3,2
  5697  0F1F  2F21               	goto	u2151
  5698  0F20  2F22               	goto	u2150
  5699  0F21                     u2151:
  5700  0F21  2F24               	goto	l459
  5701  0F22                     u2150:
  5702  0F22                     l3096:
  5703                           
  5704                           ;C:/Users/abdal/Desktop/Embedded-shs/Embedded-shs/libs/rf24.c: 421:     {;C:/Users/abdal
      +                          /Desktop/Embedded-shs/Embedded-shs/libs/rf24.c: 422:         RF24_attr_config |= (1 << (
      +                          3));
  5705  0F22  15C2               	bsf	_RF24_attr_config,3
  5706                           
  5707                           ;C:/Users/abdal/Desktop/Embedded-shs/Embedded-shs/libs/rf24.c: 423:     }
  5708  0F23  2F26               	goto	l3098
  5709  0F24                     l459:	
  5710                           ;C:/Users/abdal/Desktop/Embedded-shs/Embedded-shs/libs/rf24.c: 424:     else
  5711                           
  5712                           
  5713                           ;C:/Users/abdal/Desktop/Embedded-shs/Embedded-shs/libs/rf24.c: 425:     {;C:/Users/abdal
      +                          /Desktop/Embedded-shs/Embedded-shs/libs/rf24.c: 426:         RF24_attr_config |= (1 << (
      +                          3));
  5714  0F24  15C2               	bsf	_RF24_attr_config,3
  5715                           
  5716                           ;C:/Users/abdal/Desktop/Embedded-shs/Embedded-shs/libs/rf24.c: 427:         RF24_attr_co
      +                          nfig |= (1 << (2));
  5717  0F25  1542               	bsf	_RF24_attr_config,2
  5718  0F26                     l3098:
  5719                           
  5720                           ;C:/Users/abdal/Desktop/Embedded-shs/Embedded-shs/libs/rf24.c: 429:     RF24_write_regis
      +                          ter(0x00, RF24_attr_config);
  5721  0F26  0842               	movf	_RF24_attr_config,w
  5722  0F27  00F7               	movwf	??_RF24_setCRCLength
  5723  0F28  0877               	movf	??_RF24_setCRCLength,w
  5724  0F29  00F4               	movwf	RF24_write_register@value
  5725  0F2A  3000               	movlw	0
  5726  0F2B  120A  158A  25CF  120A  158A  	fcall	_RF24_write_register
  5727  0F30                     l461:
  5728  0F30  0008               	return
  5729  0F31                     __end_of_RF24_setCRCLength:
  5730                           
  5731                           	psect	text35
  5732  0D9D                     __ptext35:	
  5733 ;; *************** function _RF24_setAutoAck *****************
  5734 ;; Defined at:
  5735 ;;		line 342 in file "C:/Users/abdal/Desktop/Embedded-shs/Embedded-shs/libs/rf24.c"
  5736 ;; Parameters:    Size  Location     Type
  5737 ;;  enable          1    wreg     unsigned char 
  5738 ;; Auto vars:     Size  Location     Type
  5739 ;;  enable          1    8[COMMON] unsigned char 
  5740 ;; Return value:  Size  Location     Type
  5741 ;;                  1    wreg      void 
  5742 ;; Registers used:
  5743 ;;		wreg, status,2, status,0, pclath, cstack
  5744 ;; Tracked objects:
  5745 ;;		On entry : 0/0
  5746 ;;		On exit  : 0/0
  5747 ;;		Unchanged: 0/0
  5748 ;; Data sizes:     COMMON   BANK0   BANK1   BANK3   BANK2
  5749 ;;      Params:         0       0       0       0       0
  5750 ;;      Locals:         1       0       0       0       0
  5751 ;;      Temps:          1       0       0       0       0
  5752 ;;      Totals:         2       0       0       0       0
  5753 ;;Total ram usage:        2 bytes
  5754 ;; Hardware stack levels used: 1
  5755 ;; Hardware stack levels required when called: 2
  5756 ;; This function calls:
  5757 ;;		_RF24_write_register
  5758 ;; This function is called by:
  5759 ;;		_Network_begin
  5760 ;; This function uses a non-reentrant model
  5761 ;;
  5762                           
  5763  0D9D                     _RF24_setAutoAck:	
  5764                           ;psect for function _RF24_setAutoAck
  5765                           
  5766                           
  5767                           ;incstack = 0
  5768                           ; Regs used in _RF24_setAutoAck: [wreg+status,2+status,0+pclath+cstack]
  5769                           ;RF24_setAutoAck@enable stored from wreg
  5770  0D9D  00F8               	movwf	RF24_setAutoAck@enable
  5771  0D9E                     l3100:
  5772                           
  5773                           ;C:/Users/abdal/Desktop/Embedded-shs/Embedded-shs/libs/rf24.c: 342: void RF24_setAutoAck
      +                          (uint8_t enable);C:/Users/abdal/Desktop/Embedded-shs/Embedded-shs/libs/rf24.c: 343: {;C:
      +                          /Users/abdal/Desktop/Embedded-shs/Embedded-shs/libs/rf24.c: 344:     if (enable)
  5774  0D9E  0878               	movf	RF24_setAutoAck@enable,w
  5775  0D9F  1903               	btfsc	3,2
  5776  0DA0  2DA2               	goto	u2161
  5777  0DA1  2DA3               	goto	u2160
  5778  0DA2                     u2161:
  5779  0DA2  2DAE               	goto	l3104
  5780  0DA3                     u2160:
  5781  0DA3                     l3102:
  5782                           
  5783                           ;C:/Users/abdal/Desktop/Embedded-shs/Embedded-shs/libs/rf24.c: 345:     {;C:/Users/abdal
      +                          /Desktop/Embedded-shs/Embedded-shs/libs/rf24.c: 346:         RF24_write_register(0x01, 0
      +                          x3F);
  5784  0DA3  303F               	movlw	63
  5785  0DA4  00F7               	movwf	??_RF24_setAutoAck
  5786  0DA5  0877               	movf	??_RF24_setAutoAck,w
  5787  0DA6  00F4               	movwf	RF24_write_register@value
  5788  0DA7  3001               	movlw	1
  5789  0DA8  120A  158A  25CF  120A  158A  	fcall	_RF24_write_register
  5790                           
  5791                           ;C:/Users/abdal/Desktop/Embedded-shs/Embedded-shs/libs/rf24.c: 347:     }
  5792  0DAD  2DB5               	goto	l436
  5793  0DAE                     l3104:
  5794                           
  5795                           ;C:/Users/abdal/Desktop/Embedded-shs/Embedded-shs/libs/rf24.c: 349:     {;C:/Users/abdal
      +                          /Desktop/Embedded-shs/Embedded-shs/libs/rf24.c: 350:         RF24_write_register(0x01, 0
      +                          );
  5796  0DAE  01F4               	clrf	RF24_write_register@value
  5797  0DAF  3001               	movlw	1
  5798  0DB0  120A  158A  25CF  120A  158A  	fcall	_RF24_write_register
  5799  0DB5                     l436:
  5800  0DB5  0008               	return
  5801  0DB6                     __end_of_RF24_setAutoAck:
  5802                           
  5803                           	psect	text36
  5804  0201                     __ptext36:	
  5805 ;; *************** function _RF24_openReadingPipe *****************
  5806 ;; Defined at:
  5807 ;;		line 312 in file "C:/Users/abdal/Desktop/Embedded-shs/Embedded-shs/libs/rf24.c"
  5808 ;; Parameters:    Size  Location     Type
  5809 ;;  child           1    wreg     unsigned char 
  5810 ;;  address         2    7[COMMON] PTR unsigned char 
  5811 ;;		 -> BASE_PIPE(5), networkInfo(6), 
  5812 ;; Auto vars:     Size  Location     Type
  5813 ;;  child           1   11[COMMON] unsigned char 
  5814 ;; Return value:  Size  Location     Type
  5815 ;;                  1    wreg      void 
  5816 ;; Registers used:
  5817 ;;		wreg, fsr0l, fsr0h, status,2, status,0, btemp+1, pclath, cstack
  5818 ;; Tracked objects:
  5819 ;;		On entry : 0/0
  5820 ;;		On exit  : 0/0
  5821 ;;		Unchanged: 0/0
  5822 ;; Data sizes:     COMMON   BANK0   BANK1   BANK3   BANK2
  5823 ;;      Params:         2       0       0       0       0
  5824 ;;      Locals:         1       0       0       0       0
  5825 ;;      Temps:          2       0       0       0       0
  5826 ;;      Totals:         5       0       0       0       0
  5827 ;;Total ram usage:        5 bytes
  5828 ;; Hardware stack levels used: 1
  5829 ;; Hardware stack levels required when called: 2
  5830 ;; This function calls:
  5831 ;;		_RF24_read_register
  5832 ;;		_RF24_write_n_register
  5833 ;;		_RF24_write_register
  5834 ;; This function is called by:
  5835 ;;		_internet_setNetworkPipe
  5836 ;;		_internet_relay
  5837 ;;		_Network_begin
  5838 ;; This function uses a non-reentrant model
  5839 ;;
  5840                           
  5841  0201                     _RF24_openReadingPipe:	
  5842                           ;psect for function _RF24_openReadingPipe
  5843                           
  5844                           
  5845                           ;incstack = 0
  5846                           ; Regs used in _RF24_openReadingPipe: [wreg-fsr0h+status,2+status,0+btemp+1+pclath+cstac
      +                          k]
  5847                           ;RF24_openReadingPipe@child stored from wreg
  5848  0201  00FB               	movwf	RF24_openReadingPipe@child
  5849  0202                     l2802:
  5850                           
  5851                           ;C:/Users/abdal/Desktop/Embedded-shs/Embedded-shs/libs/rf24.c: 312: void RF24_openReadin
      +                          gPipe(uint8_t child, uint8_t *address);C:/Users/abdal/Desktop/Embedded-shs/Embedded-shs/
      +                          libs/rf24.c: 313: {;C:/Users/abdal/Desktop/Embedded-shs/Embedded-shs/libs/rf24.c: 314:  
      +                             if (child < 2)
  5852  0202  3002               	movlw	2
  5853  0203  027B               	subwf	RF24_openReadingPipe@child,w
  5854  0204  1803               	skipnc
  5855  0205  2A07               	goto	u1931
  5856  0206  2A08               	goto	u1930
  5857  0207                     u1931:
  5858  0207  2A18               	goto	l2806
  5859  0208                     u1930:
  5860  0208                     l2804:
  5861                           
  5862                           ;C:/Users/abdal/Desktop/Embedded-shs/Embedded-shs/libs/rf24.c: 315:     {;C:/Users/abdal
      +                          /Desktop/Embedded-shs/Embedded-shs/libs/rf24.c: 316:         RF24_write_n_register(0x0A 
      +                          + child, address, 5);
  5863  0208  0877               	movf	RF24_openReadingPipe@address,w
  5864  0209  00F1               	movwf	RF24_write_n_register@buffer
  5865  020A  0878               	movf	RF24_openReadingPipe@address+1,w
  5866  020B  00F2               	movwf	RF24_write_n_register@buffer+1
  5867  020C  3005               	movlw	5
  5868  020D  00F9               	movwf	??_RF24_openReadingPipe
  5869  020E  0879               	movf	??_RF24_openReadingPipe,w
  5870  020F  00F3               	movwf	RF24_write_n_register@length
  5871  0210  087B               	movf	RF24_openReadingPipe@child,w
  5872  0211  3E0A               	addlw	10
  5873  0212  120A  118A  20A0  120A  118A  	fcall	_RF24_write_n_register
  5874                           
  5875                           ;C:/Users/abdal/Desktop/Embedded-shs/Embedded-shs/libs/rf24.c: 317:     }
  5876  0217  2A2D               	goto	l2808
  5877  0218                     l2806:
  5878                           
  5879                           ;C:/Users/abdal/Desktop/Embedded-shs/Embedded-shs/libs/rf24.c: 319:     {;C:/Users/abdal
      +                          /Desktop/Embedded-shs/Embedded-shs/libs/rf24.c: 320:         RF24_write_register(0x0A + 
      +                          child, *address);
  5880  0218  0878               	movf	RF24_openReadingPipe@address+1,w
  5881  0219  1283               	bcf	3,5	;RP0=0, select bank0
  5882  021A  1303               	bcf	3,6	;RP1=0, select bank0
  5883  021B  00FF               	movwf	btemp+1
  5884  021C  0877               	movf	RF24_openReadingPipe@address,w
  5885  021D  0084               	movwf	4
  5886  021E  120A  158A  2000  120A  118A  	fcall	stringtab
  5887  0223  00F9               	movwf	??_RF24_openReadingPipe
  5888  0224  0879               	movf	??_RF24_openReadingPipe,w
  5889  0225  00F4               	movwf	RF24_write_register@value
  5890  0226  087B               	movf	RF24_openReadingPipe@child,w
  5891  0227  3E0A               	addlw	10
  5892  0228  120A  158A  25CF  120A  118A  	fcall	_RF24_write_register
  5893  022D                     l2808:
  5894                           
  5895                           ;C:/Users/abdal/Desktop/Embedded-shs/Embedded-shs/libs/rf24.c: 322:     RF24_write_regis
      +                          ter(0x02, RF24_read_register(0x02) | (1 << (0 + child)));
  5896  022D  3001               	movlw	1
  5897  022E  00F9               	movwf	??_RF24_openReadingPipe
  5898  022F  0A7B               	incf	RF24_openReadingPipe@child,w
  5899  0230  2A33               	goto	u1944
  5900  0231                     u1945:
  5901  0231  1003               	clrc
  5902  0232  0DF9               	rlf	??_RF24_openReadingPipe,f
  5903  0233                     u1944:
  5904  0233  3EFF               	addlw	-1
  5905  0234  1D03               	skipz
  5906  0235  2A31               	goto	u1945
  5907  0236  3002               	movlw	2
  5908  0237  120A  158A  2652  120A  118A  	fcall	_RF24_read_register
  5909  023C  0479               	iorwf	??_RF24_openReadingPipe,w
  5910  023D  00FA               	movwf	??_RF24_openReadingPipe+1
  5911  023E  087A               	movf	??_RF24_openReadingPipe+1,w
  5912  023F  00F4               	movwf	RF24_write_register@value
  5913  0240  3002               	movlw	2
  5914  0241  120A  158A  25CF  120A  118A  	fcall	_RF24_write_register
  5915  0246                     l422:
  5916  0246  0008               	return
  5917  0247                     __end_of_RF24_openReadingPipe:
  5918                           
  5919                           	psect	text37
  5920  00A0                     __ptext37:	
  5921 ;; *************** function _RF24_write_n_register *****************
  5922 ;; Defined at:
  5923 ;;		line 29 in file "C:/Users/abdal/Desktop/Embedded-shs/Embedded-shs/libs/rf24.c"
  5924 ;; Parameters:    Size  Location     Type
  5925 ;;  mnemonic_add    1    wreg     unsigned char 
  5926 ;;  buffer          2    1[COMMON] PTR unsigned char 
  5927 ;;		 -> BASE_PIPE(5), networkInfo(6), 
  5928 ;;  length          1    3[COMMON] unsigned char 
  5929 ;; Auto vars:     Size  Location     Type
  5930 ;;  mnemonic_add    1    5[COMMON] unsigned char 
  5931 ;; Return value:  Size  Location     Type
  5932 ;;                  1    wreg      void 
  5933 ;; Registers used:
  5934 ;;		wreg, fsr0l, fsr0h, status,2, status,0, btemp+1, pclath, cstack
  5935 ;; Tracked objects:
  5936 ;;		On entry : 0/0
  5937 ;;		On exit  : 0/0
  5938 ;;		Unchanged: 0/0
  5939 ;; Data sizes:     COMMON   BANK0   BANK1   BANK3   BANK2
  5940 ;;      Params:         3       0       0       0       0
  5941 ;;      Locals:         1       0       0       0       0
  5942 ;;      Temps:          1       0       0       0       0
  5943 ;;      Totals:         5       0       0       0       0
  5944 ;;Total ram usage:        5 bytes
  5945 ;; Hardware stack levels used: 1
  5946 ;; Hardware stack levels required when called: 1
  5947 ;; This function calls:
  5948 ;;		_SPI_exchangeByte
  5949 ;; This function is called by:
  5950 ;;		_RF24_openReadingPipe
  5951 ;;		_RF24_openWritingPipe
  5952 ;; This function uses a non-reentrant model
  5953 ;;
  5954                           
  5955  00A0                     _RF24_write_n_register:	
  5956                           ;psect for function _RF24_write_n_register
  5957                           
  5958                           
  5959                           ;incstack = 0
  5960                           ; Regs used in _RF24_write_n_register: [wreg-fsr0h+status,2+status,0+btemp+1+pclath+csta
      +                          ck]
  5961                           ;RF24_write_n_register@mnemonic_addr stored from wreg
  5962  00A0  00F5               	movwf	RF24_write_n_register@mnemonic_addr
  5963  00A1                     l2746:
  5964                           
  5965                           ;C:/Users/abdal/Desktop/Embedded-shs/Embedded-shs/libs/rf24.c: 29: void RF24_write_n_reg
      +                          ister(uint8_t mnemonic_addr, uint8_t *buffer, uint8_t length);C:/Users/abdal/Desktop/Emb
      +                          edded-shs/Embedded-shs/libs/rf24.c: 30: {;C:/Users/abdal/Desktop/Embedded-shs/Embedded-s
      +                          hs/libs/rf24.c: 31:     RD3 = 0;
  5966  00A1  1283               	bcf	3,5	;RP0=0, select bank0
  5967  00A2  1303               	bcf	3,6	;RP1=0, select bank0
  5968  00A3  1188               	bcf	8,3	;volatile
  5969  00A4                     l2748:
  5970                           
  5971                           ;C:/Users/abdal/Desktop/Embedded-shs/Embedded-shs/libs/rf24.c: 32:     RF24_attr_status 
      +                          = SPI_exchangeByte(0x20 | mnemonic_addr);
  5972  00A4  0875               	movf	RF24_write_n_register@mnemonic_addr,w
  5973  00A5  3820               	iorlw	32
  5974  00A6  120A  158A  2513  120A  118A  	fcall	_SPI_exchangeByte
  5975  00AB  00F4               	movwf	??_RF24_write_n_register
  5976  00AC  0874               	movf	??_RF24_write_n_register,w
  5977  00AD  1283               	bcf	3,5	;RP0=0, select bank0
  5978  00AE  1303               	bcf	3,6	;RP1=0, select bank0
  5979  00AF  00C3               	movwf	_RF24_attr_status
  5980                           
  5981                           ;C:/Users/abdal/Desktop/Embedded-shs/Embedded-shs/libs/rf24.c: 33:     while (length)
  5982  00B0  28C9               	goto	l2756
  5983  00B1                     l2750:
  5984                           
  5985                           ;C:/Users/abdal/Desktop/Embedded-shs/Embedded-shs/libs/rf24.c: 34:     {;C:/Users/abdal/
      +                          Desktop/Embedded-shs/Embedded-shs/libs/rf24.c: 35:         SPI_exchangeByte(*buffer++);
  5986  00B1  0872               	movf	RF24_write_n_register@buffer+1,w
  5987  00B2  1283               	bcf	3,5	;RP0=0, select bank0
  5988  00B3  1303               	bcf	3,6	;RP1=0, select bank0
  5989  00B4  00FF               	movwf	btemp+1
  5990  00B5  0871               	movf	RF24_write_n_register@buffer,w
  5991  00B6  0084               	movwf	4
  5992  00B7  120A  158A  2000  120A  118A  	fcall	stringtab
  5993  00BC  120A  158A  2513  120A  118A  	fcall	_SPI_exchangeByte
  5994  00C1                     l2752:
  5995  00C1  3001               	movlw	1
  5996  00C2  07F1               	addwf	RF24_write_n_register@buffer,f
  5997  00C3  1803               	skipnc
  5998  00C4  0AF2               	incf	RF24_write_n_register@buffer+1,f
  5999  00C5  3000               	movlw	0
  6000  00C6  07F2               	addwf	RF24_write_n_register@buffer+1,f
  6001  00C7                     l2754:
  6002                           
  6003                           ;C:/Users/abdal/Desktop/Embedded-shs/Embedded-shs/libs/rf24.c: 36:         length--;
  6004  00C7  3001               	movlw	1
  6005  00C8  02F3               	subwf	RF24_write_n_register@length,f
  6006  00C9                     l2756:
  6007                           
  6008                           ;C:/Users/abdal/Desktop/Embedded-shs/Embedded-shs/libs/rf24.c: 33:     while (length)
  6009  00C9  0873               	movf	RF24_write_n_register@length,w
  6010  00CA  1D03               	btfss	3,2
  6011  00CB  28CD               	goto	u1911
  6012  00CC  28CE               	goto	u1910
  6013  00CD                     u1911:
  6014  00CD  28B1               	goto	l2750
  6015  00CE                     u1910:
  6016  00CE                     l344:
  6017                           
  6018                           ;C:/Users/abdal/Desktop/Embedded-shs/Embedded-shs/libs/rf24.c: 38:     RD3 = 1;
  6019  00CE  1283               	bcf	3,5	;RP0=0, select bank0
  6020  00CF  1303               	bcf	3,6	;RP1=0, select bank0
  6021  00D0  1588               	bsf	8,3	;volatile
  6022  00D1                     l345:
  6023  00D1  0008               	return
  6024  00D2                     __end_of_RF24_write_n_register:
  6025                           
  6026                           	psect	text38
  6027  0CE6                     __ptext38:	
  6028 ;; *************** function _RF24_getPALevel *****************
  6029 ;; Defined at:
  6030 ;;		line 465 in file "C:/Users/abdal/Desktop/Embedded-shs/Embedded-shs/libs/rf24.c"
  6031 ;; Parameters:    Size  Location     Type
  6032 ;;		None
  6033 ;; Auto vars:     Size  Location     Type
  6034 ;;		None
  6035 ;; Return value:  Size  Location     Type
  6036 ;;                  1    wreg      unsigned char 
  6037 ;; Registers used:
  6038 ;;		wreg, status,2, status,0, pclath, cstack
  6039 ;; Tracked objects:
  6040 ;;		On entry : 0/0
  6041 ;;		On exit  : 0/0
  6042 ;;		Unchanged: 0/0
  6043 ;; Data sizes:     COMMON   BANK0   BANK1   BANK3   BANK2
  6044 ;;      Params:         1       0       0       0       0
  6045 ;;      Locals:         0       0       0       0       0
  6046 ;;      Temps:          0       0       0       0       0
  6047 ;;      Totals:         1       0       0       0       0
  6048 ;;Total ram usage:        1 bytes
  6049 ;; Hardware stack levels used: 1
  6050 ;; Hardware stack levels required when called: 2
  6051 ;; This function calls:
  6052 ;;		_RF24_read_register
  6053 ;; This function is called by:
  6054 ;;		_Network_begin
  6055 ;; This function uses a non-reentrant model
  6056 ;;
  6057                           
  6058  0CE6                     _RF24_getPALevel:	
  6059                           ;psect for function _RF24_getPALevel
  6060                           
  6061  0CE6                     l3106:	
  6062                           ;incstack = 0
  6063                           ; Regs used in _RF24_getPALevel: [wreg+status,2+status,0+pclath+cstack]
  6064                           
  6065                           
  6066                           ;C:/Users/abdal/Desktop/Embedded-shs/Embedded-shs/libs/rf24.c: 467:     return ((RF24_re
      +                          ad_register(0x06) & ((1 << (1)) | (1 << (2)))) >> 1);;	Return value of _RF24_getPALevel 
      +                          is never used
  6067  0CE6  3006               	movlw	6
  6068  0CE7  120A  158A  2652  120A  158A  	fcall	_RF24_read_register
  6069  0CEC                     l488:
  6070  0CEC  0008               	return
  6071  0CED                     __end_of_RF24_getPALevel:
  6072                           
  6073                           	psect	text39
  6074  0ECD                     __ptext39:	
  6075 ;; *************** function _RF24_enableDynamicPayloads *****************
  6076 ;; Defined at:
  6077 ;;		line 330 in file "C:/Users/abdal/Desktop/Embedded-shs/Embedded-shs/libs/rf24.c"
  6078 ;; Parameters:    Size  Location     Type
  6079 ;;		None
  6080 ;; Auto vars:     Size  Location     Type
  6081 ;;		None
  6082 ;; Return value:  Size  Location     Type
  6083 ;;                  1    wreg      void 
  6084 ;; Registers used:
  6085 ;;		wreg, status,2, status,0, pclath, cstack
  6086 ;; Tracked objects:
  6087 ;;		On entry : 0/0
  6088 ;;		On exit  : 0/0
  6089 ;;		Unchanged: 0/0
  6090 ;; Data sizes:     COMMON   BANK0   BANK1   BANK3   BANK2
  6091 ;;      Params:         0       0       0       0       0
  6092 ;;      Locals:         0       0       0       0       0
  6093 ;;      Temps:          1       0       0       0       0
  6094 ;;      Totals:         1       0       0       0       0
  6095 ;;Total ram usage:        1 bytes
  6096 ;; Hardware stack levels used: 1
  6097 ;; Hardware stack levels required when called: 2
  6098 ;; This function calls:
  6099 ;;		_RF24_read_register
  6100 ;;		_RF24_write_register
  6101 ;; This function is called by:
  6102 ;;		_Network_begin
  6103 ;; This function uses a non-reentrant model
  6104 ;;
  6105                           
  6106  0ECD                     _RF24_enableDynamicPayloads:	
  6107                           ;psect for function _RF24_enableDynamicPayloads
  6108                           
  6109  0ECD                     l3086:	
  6110                           ;incstack = 0
  6111                           ; Regs used in _RF24_enableDynamicPayloads: [wreg+status,2+status,0+pclath+cstack]
  6112                           
  6113                           
  6114                           ;C:/Users/abdal/Desktop/Embedded-shs/Embedded-shs/libs/rf24.c: 332:     RF24_write_regis
      +                          ter(0x1D, RF24_read_register(0x1D) | (1 << (2)));
  6115  0ECD  301D               	movlw	29
  6116  0ECE  120A  158A  2652  120A  158A  	fcall	_RF24_read_register
  6117  0ED3  3804               	iorlw	4
  6118  0ED4  00F7               	movwf	??_RF24_enableDynamicPayloads
  6119  0ED5  0877               	movf	??_RF24_enableDynamicPayloads,w
  6120  0ED6  00F4               	movwf	RF24_write_register@value
  6121  0ED7  301D               	movlw	29
  6122  0ED8  120A  158A  25CF  120A  158A  	fcall	_RF24_write_register
  6123                           
  6124                           ;C:/Users/abdal/Desktop/Embedded-shs/Embedded-shs/libs/rf24.c: 333:     RF24_write_regis
      +                          ter(0x1C, RF24_read_register(0x1C) | (1 << (5)) | (1 << (4)) | (1 << (3)) | (1 << (2)) |
      +                           (1 << (1)) | (1 << (0)));
  6125  0EDD  301C               	movlw	28
  6126  0EDE  120A  158A  2652  120A  158A  	fcall	_RF24_read_register
  6127  0EE3  383F               	iorlw	63
  6128  0EE4  00F7               	movwf	??_RF24_enableDynamicPayloads
  6129  0EE5  0877               	movf	??_RF24_enableDynamicPayloads,w
  6130  0EE6  00F4               	movwf	RF24_write_register@value
  6131  0EE7  301C               	movlw	28
  6132  0EE8  120A  158A  25CF  120A  158A  	fcall	_RF24_write_register
  6133  0EED                     l428:
  6134  0EED  0008               	return
  6135  0EEE                     __end_of_RF24_enableDynamicPayloads:
  6136                           
  6137                           	psect	text40
  6138  0560                     __ptext40:	
  6139 ;; *************** function _RF24_begin *****************
  6140 ;; Defined at:
  6141 ;;		line 59 in file "C:/Users/abdal/Desktop/Embedded-shs/Embedded-shs/libs/rf24.c"
  6142 ;; Parameters:    Size  Location     Type
  6143 ;;		None
  6144 ;; Auto vars:     Size  Location     Type
  6145 ;;		None
  6146 ;; Return value:  Size  Location     Type
  6147 ;;                  1    wreg      unsigned char 
  6148 ;; Registers used:
  6149 ;;		wreg, status,2, status,0, pclath, cstack
  6150 ;; Tracked objects:
  6151 ;;		On entry : 0/0
  6152 ;;		On exit  : 0/0
  6153 ;;		Unchanged: 0/0
  6154 ;; Data sizes:     COMMON   BANK0   BANK1   BANK3   BANK2
  6155 ;;      Params:         0       0       0       0       0
  6156 ;;      Locals:         0       0       0       0       0
  6157 ;;      Temps:          0       3       0       0       0
  6158 ;;      Totals:         0       3       0       0       0
  6159 ;;Total ram usage:        3 bytes
  6160 ;; Hardware stack levels used: 1
  6161 ;; Hardware stack levels required when called: 3
  6162 ;; This function calls:
  6163 ;;		_RF24_flush_rx
  6164 ;;		_RF24_flush_tx
  6165 ;;		_RF24_powerUp
  6166 ;;		_RF24_read_register
  6167 ;;		_RF24_setAddressWidth
  6168 ;;		_RF24_setChannel
  6169 ;;		_RF24_setDataRate
  6170 ;;		_RF24_setPALevel
  6171 ;;		_RF24_setPayloadSize
  6172 ;;		_RF24_setRetries
  6173 ;;		_RF24_write_register
  6174 ;; This function is called by:
  6175 ;;		_Network_begin
  6176 ;; This function uses a non-reentrant model
  6177 ;;
  6178                           
  6179  0560                     _RF24_begin:	
  6180                           ;psect for function _RF24_begin
  6181                           
  6182  0560                     l3048:	
  6183                           ;incstack = 0
  6184                           ; Regs used in _RF24_begin: [wreg+status,2+status,0+pclath+cstack]
  6185                           
  6186                           
  6187                           ;C:/Users/abdal/Desktop/Embedded-shs/Embedded-shs/libs/rf24.c: 62:     TRISD2 = 0;
  6188  0560  1683               	bsf	3,5	;RP0=1, select bank1
  6189  0561  1303               	bcf	3,6	;RP1=0, select bank1
  6190  0562  1108               	bcf	8,2	;volatile
  6191                           
  6192                           ;C:/Users/abdal/Desktop/Embedded-shs/Embedded-shs/libs/rf24.c: 63:     TRISD3 = 0;
  6193  0563  1188               	bcf	8,3	;volatile
  6194                           
  6195                           ;C:/Users/abdal/Desktop/Embedded-shs/Embedded-shs/libs/rf24.c: 64:     RD2 = 0;
  6196  0564  1283               	bcf	3,5	;RP0=0, select bank0
  6197  0565  1303               	bcf	3,6	;RP1=0, select bank0
  6198  0566  1108               	bcf	8,2	;volatile
  6199                           
  6200                           ;C:/Users/abdal/Desktop/Embedded-shs/Embedded-shs/libs/rf24.c: 65:     RD3 = 1;
  6201  0567  1588               	bsf	8,3	;volatile
  6202  0568                     l3050:
  6203                           
  6204                           ;C:/Users/abdal/Desktop/Embedded-shs/Embedded-shs/libs/rf24.c: 66:     _delay((unsigned 
      +                          long)((100)*(16000000/4000.0)));
  6205  0568  3003               	movlw	3
  6206  0569  1283               	bcf	3,5	;RP0=0, select bank0
  6207  056A  1303               	bcf	3,6	;RP1=0, select bank0
  6208  056B  00A2               	movwf	??_RF24_begin+2
  6209  056C  3008               	movlw	8
  6210  056D  00A1               	movwf	??_RF24_begin+1
  6211  056E  3076               	movlw	118
  6212  056F  00A0               	movwf	??_RF24_begin
  6213  0570                     u2287:
  6214  0570  0BA0               	decfsz	??_RF24_begin,f
  6215  0571  2D70               	goto	u2287
  6216  0572  0BA1               	decfsz	??_RF24_begin+1,f
  6217  0573  2D70               	goto	u2287
  6218  0574  0BA2               	decfsz	??_RF24_begin+2,f
  6219  0575  2D70               	goto	u2287
  6220  0576  0000               	nop
  6221                           
  6222                           ;C:/Users/abdal/Desktop/Embedded-shs/Embedded-shs/libs/rf24.c: 76:     _delay((unsigned 
      +                          long)((5)*(16000000/4000.0)));
  6223  0577  301A               	movlw	26
  6224  0578  1283               	bcf	3,5	;RP0=0, select bank0
  6225  0579  1303               	bcf	3,6	;RP1=0, select bank0
  6226  057A  00A1               	movwf	??_RF24_begin+1
  6227  057B  30F7               	movlw	247
  6228  057C  00A0               	movwf	??_RF24_begin
  6229  057D                     u2297:
  6230  057D  0BA0               	decfsz	??_RF24_begin,f
  6231  057E  2D7D               	goto	u2297
  6232  057F  0BA1               	decfsz	??_RF24_begin+1,f
  6233  0580  2D7D               	goto	u2297
  6234  0581  2D82               	nop2
  6235  0582                     l3052:
  6236                           
  6237                           ;C:/Users/abdal/Desktop/Embedded-shs/Embedded-shs/libs/rf24.c: 80:     RF24_setRetries(5
      +                          , 15);
  6238  0582  300F               	movlw	15
  6239  0583  1283               	bcf	3,5	;RP0=0, select bank0
  6240  0584  1303               	bcf	3,6	;RP1=0, select bank0
  6241  0585  00A0               	movwf	??_RF24_begin
  6242  0586  0820               	movf	??_RF24_begin,w
  6243  0587  00F7               	movwf	RF24_setRetries@count
  6244  0588  3005               	movlw	5
  6245  0589  120A  158A  2603  120A  118A  	fcall	_RF24_setRetries
  6246  058E                     l3054:
  6247                           
  6248                           ;C:/Users/abdal/Desktop/Embedded-shs/Embedded-shs/libs/rf24.c: 85:     RF24_setPALevel(R
      +                          F24_PA_MAX);
  6249  058E  3003               	movlw	3
  6250  058F  120A  158A  27AA  120A  118A  	fcall	_RF24_setPALevel
  6251  0594                     l3056:
  6252                           
  6253                           ;C:/Users/abdal/Desktop/Embedded-shs/Embedded-shs/libs/rf24.c: 86:     RF24_setDataRate(
      +                          RF24_1MBPS);
  6254  0594  3000               	movlw	0
  6255  0595  120A  158A  2731  120A  118A  	fcall	_RF24_setDataRate
  6256  059A                     l3058:
  6257                           
  6258                           ;C:/Users/abdal/Desktop/Embedded-shs/Embedded-shs/libs/rf24.c: 89:     RF24_write_regist
      +                          er(0x1D, 0);
  6259  059A  01F4               	clrf	RF24_write_register@value
  6260  059B  301D               	movlw	29
  6261  059C  120A  158A  25CF  120A  118A  	fcall	_RF24_write_register
  6262  05A1                     l3060:
  6263                           
  6264                           ;C:/Users/abdal/Desktop/Embedded-shs/Embedded-shs/libs/rf24.c: 90:     RF24_write_regist
      +                          er(0x1C, 0);
  6265  05A1  01F4               	clrf	RF24_write_register@value
  6266  05A2  301C               	movlw	28
  6267  05A3  120A  158A  25CF  120A  118A  	fcall	_RF24_write_register
  6268  05A8                     l3062:
  6269                           
  6270                           ;C:/Users/abdal/Desktop/Embedded-shs/Embedded-shs/libs/rf24.c: 91:     RF24_write_regist
      +                          er(0x01, 0x3F);
  6271  05A8  303F               	movlw	63
  6272  05A9  1283               	bcf	3,5	;RP0=0, select bank0
  6273  05AA  1303               	bcf	3,6	;RP1=0, select bank0
  6274  05AB  00A0               	movwf	??_RF24_begin
  6275  05AC  0820               	movf	??_RF24_begin,w
  6276  05AD  00F4               	movwf	RF24_write_register@value
  6277  05AE  3001               	movlw	1
  6278  05AF  120A  158A  25CF  120A  118A  	fcall	_RF24_write_register
  6279  05B4                     l3064:
  6280                           
  6281                           ;C:/Users/abdal/Desktop/Embedded-shs/Embedded-shs/libs/rf24.c: 92:     RF24_write_regist
      +                          er(0x02, 3);
  6282  05B4  3003               	movlw	3
  6283  05B5  1283               	bcf	3,5	;RP0=0, select bank0
  6284  05B6  1303               	bcf	3,6	;RP1=0, select bank0
  6285  05B7  00A0               	movwf	??_RF24_begin
  6286  05B8  0820               	movf	??_RF24_begin,w
  6287  05B9  00F4               	movwf	RF24_write_register@value
  6288  05BA  3002               	movlw	2
  6289  05BB  120A  158A  25CF  120A  118A  	fcall	_RF24_write_register
  6290  05C0                     l3066:
  6291                           
  6292                           ;C:/Users/abdal/Desktop/Embedded-shs/Embedded-shs/libs/rf24.c: 93:     RF24_setPayloadSi
      +                          ze(32);
  6293  05C0  3020               	movlw	32
  6294  05C1  120A  118A  2182  120A  118A  	fcall	_RF24_setPayloadSize
  6295  05C6                     l3068:
  6296                           
  6297                           ;C:/Users/abdal/Desktop/Embedded-shs/Embedded-shs/libs/rf24.c: 94:     RF24_setAddressWi
      +                          dth(5);
  6298  05C6  3005               	movlw	5
  6299  05C7  120A  158A  2537  120A  118A  	fcall	_RF24_setAddressWidth
  6300  05CC                     l3070:
  6301                           
  6302                           ;C:/Users/abdal/Desktop/Embedded-shs/Embedded-shs/libs/rf24.c: 99:     RF24_setChannel(7
      +                          6);
  6303  05CC  304C               	movlw	76
  6304  05CD  120A  158A  251F  120A  118A  	fcall	_RF24_setChannel
  6305  05D2                     l3072:
  6306                           
  6307                           ;C:/Users/abdal/Desktop/Embedded-shs/Embedded-shs/libs/rf24.c: 103:     RF24_write_regis
      +                          ter(0x07, (1 << (6)) | (1 << (5)) | (1 << (4)));
  6308  05D2  3070               	movlw	112
  6309  05D3  1283               	bcf	3,5	;RP0=0, select bank0
  6310  05D4  1303               	bcf	3,6	;RP1=0, select bank0
  6311  05D5  00A0               	movwf	??_RF24_begin
  6312  05D6  0820               	movf	??_RF24_begin,w
  6313  05D7  00F4               	movwf	RF24_write_register@value
  6314  05D8  3007               	movlw	7
  6315  05D9  120A  158A  25CF  120A  118A  	fcall	_RF24_write_register
  6316  05DE                     l3074:
  6317                           
  6318                           ;C:/Users/abdal/Desktop/Embedded-shs/Embedded-shs/libs/rf24.c: 106:     RF24_flush_rx();
  6319  05DE  120A  158A  24FD  120A  118A  	fcall	_RF24_flush_rx
  6320  05E3                     l3076:
  6321                           
  6322                           ;C:/Users/abdal/Desktop/Embedded-shs/Embedded-shs/libs/rf24.c: 107:     RF24_flush_tx();
  6323  05E3  120A  158A  2508  120A  118A  	fcall	_RF24_flush_tx
  6324  05E8                     l3078:
  6325                           
  6326                           ;C:/Users/abdal/Desktop/Embedded-shs/Embedded-shs/libs/rf24.c: 116:     RF24_write_regis
      +                          ter(0x00, ((1 << (3)) | (1 << (2))));
  6327  05E8  300C               	movlw	12
  6328  05E9  1283               	bcf	3,5	;RP0=0, select bank0
  6329  05EA  1303               	bcf	3,6	;RP1=0, select bank0
  6330  05EB  00A0               	movwf	??_RF24_begin
  6331  05EC  0820               	movf	??_RF24_begin,w
  6332  05ED  00F4               	movwf	RF24_write_register@value
  6333  05EE  3000               	movlw	0
  6334  05EF  120A  158A  25CF  120A  118A  	fcall	_RF24_write_register
  6335  05F4                     l3080:
  6336                           
  6337                           ;C:/Users/abdal/Desktop/Embedded-shs/Embedded-shs/libs/rf24.c: 117:     RF24_powerUp();
  6338  05F4  120A  158A  25E9  120A  118A  	fcall	_RF24_powerUp
  6339  05F9                     l3082:
  6340                           
  6341                           ;C:/Users/abdal/Desktop/Embedded-shs/Embedded-shs/libs/rf24.c: 118:     RF24_attr_config
      +                           = RF24_read_register(0x00);
  6342  05F9  3000               	movlw	0
  6343  05FA  120A  158A  2652  120A  118A  	fcall	_RF24_read_register
  6344  05FF  1283               	bcf	3,5	;RP0=0, select bank0
  6345  0600  1303               	bcf	3,6	;RP1=0, select bank0
  6346  0601  00A0               	movwf	??_RF24_begin
  6347  0602  0820               	movf	??_RF24_begin,w
  6348  0603  00C2               	movwf	_RF24_attr_config
  6349  0604                     l354:
  6350  0604  0008               	return
  6351  0605                     __end_of_RF24_begin:
  6352                           
  6353                           	psect	text41
  6354  0E03                     __ptext41:	
  6355 ;; *************** function _RF24_setRetries *****************
  6356 ;; Defined at:
  6357 ;;		line 469 in file "C:/Users/abdal/Desktop/Embedded-shs/Embedded-shs/libs/rf24.c"
  6358 ;; Parameters:    Size  Location     Type
  6359 ;;  delay           1    wreg     unsigned char 
  6360 ;;  count           1    7[COMMON] unsigned char 
  6361 ;; Auto vars:     Size  Location     Type
  6362 ;;  delay           1   11[COMMON] unsigned char 
  6363 ;; Return value:  Size  Location     Type
  6364 ;;                  1    wreg      void 
  6365 ;; Registers used:
  6366 ;;		wreg, status,2, status,0, pclath, cstack
  6367 ;; Tracked objects:
  6368 ;;		On entry : 0/0
  6369 ;;		On exit  : 0/0
  6370 ;;		Unchanged: 0/0
  6371 ;; Data sizes:     COMMON   BANK0   BANK1   BANK3   BANK2
  6372 ;;      Params:         1       0       0       0       0
  6373 ;;      Locals:         1       0       0       0       0
  6374 ;;      Temps:          3       0       0       0       0
  6375 ;;      Totals:         5       0       0       0       0
  6376 ;;Total ram usage:        5 bytes
  6377 ;; Hardware stack levels used: 1
  6378 ;; Hardware stack levels required when called: 2
  6379 ;; This function calls:
  6380 ;;		_RF24_write_register
  6381 ;; This function is called by:
  6382 ;;		_RF24_begin
  6383 ;; This function uses a non-reentrant model
  6384 ;;
  6385                           
  6386  0E03                     _RF24_setRetries:	
  6387                           ;psect for function _RF24_setRetries
  6388                           
  6389                           
  6390                           ;incstack = 0
  6391                           ; Regs used in _RF24_setRetries: [wreg+status,2+status,0+pclath+cstack]
  6392                           ;RF24_setRetries@delay stored from wreg
  6393  0E03  00FB               	movwf	RF24_setRetries@delay
  6394  0E04                     l2964:
  6395                           
  6396                           ;C:/Users/abdal/Desktop/Embedded-shs/Embedded-shs/libs/rf24.c: 469: void RF24_setRetries
      +                          (uint8_t delay, uint8_t count);C:/Users/abdal/Desktop/Embedded-shs/Embedded-shs/libs/rf2
      +                          4.c: 470: {;C:/Users/abdal/Desktop/Embedded-shs/Embedded-shs/libs/rf24.c: 471:     RF24_
      +                          write_register(0x04, ((delay & 0x0f) << 4) | (count & 0x0f));
  6397  0E04  300F               	movlw	15
  6398  0E05  0577               	andwf	RF24_setRetries@count,w
  6399  0E06  00F8               	movwf	??_RF24_setRetries
  6400  0E07  087B               	movf	RF24_setRetries@delay,w
  6401  0E08  390F               	andlw	15
  6402  0E09  00F9               	movwf	??_RF24_setRetries+1
  6403  0E0A  3003               	movlw	3
  6404  0E0B                     u2095:
  6405  0E0B  1003               	clrc
  6406  0E0C  0DF9               	rlf	??_RF24_setRetries+1,f
  6407  0E0D  3EFF               	addlw	-1
  6408  0E0E  1D03               	skipz
  6409  0E0F  2E0B               	goto	u2095
  6410  0E10  1003               	clrc
  6411  0E11  0D79               	rlf	??_RF24_setRetries+1,w
  6412  0E12  0478               	iorwf	??_RF24_setRetries,w
  6413  0E13  00FA               	movwf	??_RF24_setRetries+2
  6414  0E14  087A               	movf	??_RF24_setRetries+2,w
  6415  0E15  00F4               	movwf	RF24_write_register@value
  6416  0E16  3004               	movlw	4
  6417  0E17  120A  158A  25CF  120A  158A  	fcall	_RF24_write_register
  6418  0E1C                     l491:
  6419  0E1C  0008               	return
  6420  0E1D                     __end_of_RF24_setRetries:
  6421                           
  6422                           	psect	text42
  6423  0182                     __ptext42:	
  6424 ;; *************** function _RF24_setPayloadSize *****************
  6425 ;; Defined at:
  6426 ;;		line 183 in file "C:/Users/abdal/Desktop/Embedded-shs/Embedded-shs/libs/rf24.c"
  6427 ;; Parameters:    Size  Location     Type
  6428 ;;  size            1    wreg     unsigned char 
  6429 ;; Auto vars:     Size  Location     Type
  6430 ;;  size            1    8[COMMON] unsigned char 
  6431 ;; Return value:  Size  Location     Type
  6432 ;;                  1    wreg      void 
  6433 ;; Registers used:
  6434 ;;		wreg, status,2, status,0, pclath, cstack
  6435 ;; Tracked objects:
  6436 ;;		On entry : 0/0
  6437 ;;		On exit  : 0/0
  6438 ;;		Unchanged: 0/0
  6439 ;; Data sizes:     COMMON   BANK0   BANK1   BANK3   BANK2
  6440 ;;      Params:         0       0       0       0       0
  6441 ;;      Locals:         1       0       0       0       0
  6442 ;;      Temps:          1       0       0       0       0
  6443 ;;      Totals:         2       0       0       0       0
  6444 ;;Total ram usage:        2 bytes
  6445 ;; Hardware stack levels used: 1
  6446 ;; Hardware stack levels required when called: 2
  6447 ;; This function calls:
  6448 ;;		_RF24_write_register
  6449 ;; This function is called by:
  6450 ;;		_Network_begin
  6451 ;;		_RF24_begin
  6452 ;; This function uses a non-reentrant model
  6453 ;;
  6454                           
  6455  0182                     _RF24_setPayloadSize:	
  6456                           ;psect for function _RF24_setPayloadSize
  6457                           
  6458                           
  6459                           ;incstack = 0
  6460                           ; Regs used in _RF24_setPayloadSize: [wreg+status,2+status,0+pclath+cstack]
  6461                           ;RF24_setPayloadSize@size stored from wreg
  6462  0182  00F8               	movwf	RF24_setPayloadSize@size
  6463  0183                     l2952:
  6464                           
  6465                           ;C:/Users/abdal/Desktop/Embedded-shs/Embedded-shs/libs/rf24.c: 183: void RF24_setPayload
      +                          Size(uint8_t size);C:/Users/abdal/Desktop/Embedded-shs/Embedded-shs/libs/rf24.c: 184: {;
      +                          C:/Users/abdal/Desktop/Embedded-shs/Embedded-shs/libs/rf24.c: 185:     RF24_write_regist
      +                          er(0x11, size);
  6466  0183  0878               	movf	RF24_setPayloadSize@size,w
  6467  0184  00F7               	movwf	??_RF24_setPayloadSize
  6468  0185  0877               	movf	??_RF24_setPayloadSize,w
  6469  0186  00F4               	movwf	RF24_write_register@value
  6470  0187  3011               	movlw	17
  6471  0188  120A  158A  25CF  120A  118A  	fcall	_RF24_write_register
  6472                           
  6473                           ;C:/Users/abdal/Desktop/Embedded-shs/Embedded-shs/libs/rf24.c: 186:     RF24_write_regis
      +                          ter(0x12, size);
  6474  018D  0878               	movf	RF24_setPayloadSize@size,w
  6475  018E  00F7               	movwf	??_RF24_setPayloadSize
  6476  018F  0877               	movf	??_RF24_setPayloadSize,w
  6477  0190  00F4               	movwf	RF24_write_register@value
  6478  0191  3012               	movlw	18
  6479  0192  120A  158A  25CF  120A  118A  	fcall	_RF24_write_register
  6480                           
  6481                           ;C:/Users/abdal/Desktop/Embedded-shs/Embedded-shs/libs/rf24.c: 187:     RF24_write_regis
      +                          ter(0x13, size);
  6482  0197  0878               	movf	RF24_setPayloadSize@size,w
  6483  0198  00F7               	movwf	??_RF24_setPayloadSize
  6484  0199  0877               	movf	??_RF24_setPayloadSize,w
  6485  019A  00F4               	movwf	RF24_write_register@value
  6486  019B  3013               	movlw	19
  6487  019C  120A  158A  25CF  120A  118A  	fcall	_RF24_write_register
  6488                           
  6489                           ;C:/Users/abdal/Desktop/Embedded-shs/Embedded-shs/libs/rf24.c: 188:     RF24_write_regis
      +                          ter(0x14, size);
  6490  01A1  0878               	movf	RF24_setPayloadSize@size,w
  6491  01A2  00F7               	movwf	??_RF24_setPayloadSize
  6492  01A3  0877               	movf	??_RF24_setPayloadSize,w
  6493  01A4  00F4               	movwf	RF24_write_register@value
  6494  01A5  3014               	movlw	20
  6495  01A6  120A  158A  25CF  120A  118A  	fcall	_RF24_write_register
  6496                           
  6497                           ;C:/Users/abdal/Desktop/Embedded-shs/Embedded-shs/libs/rf24.c: 189:     RF24_write_regis
      +                          ter(0x15, size);
  6498  01AB  0878               	movf	RF24_setPayloadSize@size,w
  6499  01AC  00F7               	movwf	??_RF24_setPayloadSize
  6500  01AD  0877               	movf	??_RF24_setPayloadSize,w
  6501  01AE  00F4               	movwf	RF24_write_register@value
  6502  01AF  3015               	movlw	21
  6503  01B0  120A  158A  25CF  120A  118A  	fcall	_RF24_write_register
  6504                           
  6505                           ;C:/Users/abdal/Desktop/Embedded-shs/Embedded-shs/libs/rf24.c: 190:     RF24_write_regis
      +                          ter(0x16, size);
  6506  01B5  0878               	movf	RF24_setPayloadSize@size,w
  6507  01B6  00F7               	movwf	??_RF24_setPayloadSize
  6508  01B7  0877               	movf	??_RF24_setPayloadSize,w
  6509  01B8  00F4               	movwf	RF24_write_register@value
  6510  01B9  3016               	movlw	22
  6511  01BA  120A  158A  25CF  120A  118A  	fcall	_RF24_write_register
  6512  01BF                     l380:
  6513  01BF  0008               	return
  6514  01C0                     __end_of_RF24_setPayloadSize:
  6515                           
  6516                           	psect	text43
  6517  0FAA                     __ptext43:	
  6518 ;; *************** function _RF24_setPALevel *****************
  6519 ;; Defined at:
  6520 ;;		line 122 in file "C:/Users/abdal/Desktop/Embedded-shs/Embedded-shs/libs/rf24.c"
  6521 ;; Parameters:    Size  Location     Type
  6522 ;;  level           1    wreg     unsigned char 
  6523 ;; Auto vars:     Size  Location     Type
  6524 ;;  level           1   11[COMMON] unsigned char 
  6525 ;;  setup           1    9[COMMON] unsigned char 
  6526 ;; Return value:  Size  Location     Type
  6527 ;;                  1    wreg      void 
  6528 ;; Registers used:
  6529 ;;		wreg, status,2, status,0, pclath, cstack
  6530 ;; Tracked objects:
  6531 ;;		On entry : 0/0
  6532 ;;		On exit  : 0/0
  6533 ;;		Unchanged: 0/0
  6534 ;; Data sizes:     COMMON   BANK0   BANK1   BANK3   BANK2
  6535 ;;      Params:         0       0       0       0       0
  6536 ;;      Locals:         3       0       0       0       0
  6537 ;;      Temps:          2       0       0       0       0
  6538 ;;      Totals:         5       0       0       0       0
  6539 ;;Total ram usage:        5 bytes
  6540 ;; Hardware stack levels used: 1
  6541 ;; Hardware stack levels required when called: 2
  6542 ;; This function calls:
  6543 ;;		_RF24_read_register
  6544 ;;		_RF24_write_register
  6545 ;; This function is called by:
  6546 ;;		_RF24_begin
  6547 ;; This function uses a non-reentrant model
  6548 ;;
  6549                           
  6550  0FAA                     _RF24_setPALevel:	
  6551                           ;psect for function _RF24_setPALevel
  6552                           
  6553                           
  6554                           ;incstack = 0
  6555                           ; Regs used in _RF24_setPALevel: [wreg+status,2+status,0+pclath+cstack]
  6556                           ;RF24_setPALevel@level stored from wreg
  6557  0FAA  00FB               	movwf	RF24_setPALevel@level
  6558  0FAB                     l2966:
  6559                           
  6560                           ;C:/Users/abdal/Desktop/Embedded-shs/Embedded-shs/libs/rf24.c: 122: void RF24_setPALevel
      +                          (uint8_t level);C:/Users/abdal/Desktop/Embedded-shs/Embedded-shs/libs/rf24.c: 123: {;C:/
      +                          Users/abdal/Desktop/Embedded-shs/Embedded-shs/libs/rf24.c: 124:     uint8_t setup = RF24
      +                          _read_register(0x06) & 0xF8;
  6561  0FAB  3006               	movlw	6
  6562  0FAC  120A  158A  2652  120A  158A  	fcall	_RF24_read_register
  6563  0FB1  39F8               	andlw	248
  6564  0FB2  00F7               	movwf	??_RF24_setPALevel
  6565  0FB3  0877               	movf	??_RF24_setPALevel,w
  6566  0FB4  00F9               	movwf	RF24_setPALevel@setup
  6567  0FB5                     l2968:
  6568                           
  6569                           ;C:/Users/abdal/Desktop/Embedded-shs/Embedded-shs/libs/rf24.c: 125:     setup |= (level 
      +                          > RF24_PA_MAX ? RF24_PA_MAX : level) << 1;
  6570  0FB5  3004               	movlw	4
  6571  0FB6  027B               	subwf	RF24_setPALevel@level,w
  6572  0FB7  1803               	skipnc
  6573  0FB8  2FBA               	goto	u2101
  6574  0FB9  2FBB               	goto	u2100
  6575  0FBA                     u2101:
  6576  0FBA  2FC0               	goto	l2972
  6577  0FBB                     u2100:
  6578  0FBB                     l2970:
  6579  0FBB  087B               	movf	RF24_setPALevel@level,w
  6580  0FBC  00F7               	movwf	??_RF24_setPALevel
  6581  0FBD  0877               	movf	??_RF24_setPALevel,w
  6582  0FBE  00FA               	movwf	_RF24_setPALevel$598
  6583  0FBF  2FC4               	goto	l2974
  6584  0FC0                     l2972:
  6585  0FC0  3003               	movlw	3
  6586  0FC1  00F7               	movwf	??_RF24_setPALevel
  6587  0FC2  0877               	movf	??_RF24_setPALevel,w
  6588  0FC3  00FA               	movwf	_RF24_setPALevel$598
  6589  0FC4                     l2974:
  6590  0FC4  087A               	movf	_RF24_setPALevel$598,w
  6591  0FC5  00F7               	movwf	??_RF24_setPALevel
  6592  0FC6  0777               	addwf	??_RF24_setPALevel,w
  6593  0FC7  00F8               	movwf	??_RF24_setPALevel+1
  6594  0FC8  0878               	movf	??_RF24_setPALevel+1,w
  6595  0FC9  04F9               	iorwf	RF24_setPALevel@setup,f
  6596  0FCA                     l2976:
  6597                           
  6598                           ;C:/Users/abdal/Desktop/Embedded-shs/Embedded-shs/libs/rf24.c: 126:     RF24_write_regis
      +                          ter(0x06, setup);
  6599  0FCA  0879               	movf	RF24_setPALevel@setup,w
  6600  0FCB  00F7               	movwf	??_RF24_setPALevel
  6601  0FCC  0877               	movf	??_RF24_setPALevel,w
  6602  0FCD  00F4               	movwf	RF24_write_register@value
  6603  0FCE  3006               	movlw	6
  6604  0FCF  120A  158A  25CF  120A  158A  	fcall	_RF24_write_register
  6605  0FD4                     l361:
  6606  0FD4  0008               	return
  6607  0FD5                     __end_of_RF24_setPALevel:
  6608                           
  6609                           	psect	text44
  6610  0F31                     __ptext44:	
  6611 ;; *************** function _RF24_setDataRate *****************
  6612 ;; Defined at:
  6613 ;;		line 370 in file "C:/Users/abdal/Desktop/Embedded-shs/Embedded-shs/libs/rf24.c"
  6614 ;; Parameters:    Size  Location     Type
  6615 ;;  speed           1    wreg     enum E899
  6616 ;; Auto vars:     Size  Location     Type
  6617 ;;  speed           1    8[COMMON] enum E899
  6618 ;;  setup           1    9[COMMON] unsigned char 
  6619 ;; Return value:  Size  Location     Type
  6620 ;;                  1    wreg      void 
  6621 ;; Registers used:
  6622 ;;		wreg, status,2, status,0, pclath, cstack
  6623 ;; Tracked objects:
  6624 ;;		On entry : 0/0
  6625 ;;		On exit  : 0/0
  6626 ;;		Unchanged: 0/0
  6627 ;; Data sizes:     COMMON   BANK0   BANK1   BANK3   BANK2
  6628 ;;      Params:         0       0       0       0       0
  6629 ;;      Locals:         2       0       0       0       0
  6630 ;;      Temps:          1       0       0       0       0
  6631 ;;      Totals:         3       0       0       0       0
  6632 ;;Total ram usage:        3 bytes
  6633 ;; Hardware stack levels used: 1
  6634 ;; Hardware stack levels required when called: 2
  6635 ;; This function calls:
  6636 ;;		_RF24_read_register
  6637 ;;		_RF24_write_register
  6638 ;; This function is called by:
  6639 ;;		_Network_begin
  6640 ;;		_RF24_begin
  6641 ;; This function uses a non-reentrant model
  6642 ;;
  6643                           
  6644  0F31                     _RF24_setDataRate:	
  6645                           ;psect for function _RF24_setDataRate
  6646                           
  6647                           
  6648                           ;incstack = 0
  6649                           ; Regs used in _RF24_setDataRate: [wreg+status,2+status,0+pclath+cstack]
  6650                           ;RF24_setDataRate@speed stored from wreg
  6651  0F31  00F8               	movwf	RF24_setDataRate@speed
  6652  0F32                     l2938:
  6653                           
  6654                           ;C:/Users/abdal/Desktop/Embedded-shs/Embedded-shs/libs/rf24.c: 370: void RF24_setDataRat
      +                          e(rf24_datarate_e speed);C:/Users/abdal/Desktop/Embedded-shs/Embedded-shs/libs/rf24.c: 3
      +                          71: {;C:/Users/abdal/Desktop/Embedded-shs/Embedded-shs/libs/rf24.c: 372:     uint8_t set
      +                          up = RF24_read_register(0x06);
  6655  0F32  3006               	movlw	6
  6656  0F33  120A  158A  2652  120A  158A  	fcall	_RF24_read_register
  6657  0F38  00F7               	movwf	??_RF24_setDataRate
  6658  0F39  0877               	movf	??_RF24_setDataRate,w
  6659  0F3A  00F9               	movwf	RF24_setDataRate@setup
  6660  0F3B                     l2940:
  6661                           
  6662                           ;C:/Users/abdal/Desktop/Embedded-shs/Embedded-shs/libs/rf24.c: 374:     setup = setup & 
      +                          ~((1 << (5)) | (1 << (3)));
  6663  0F3B  0879               	movf	RF24_setDataRate@setup,w
  6664  0F3C  39D7               	andlw	215
  6665  0F3D  00F7               	movwf	??_RF24_setDataRate
  6666  0F3E  0877               	movf	??_RF24_setDataRate,w
  6667  0F3F  00F9               	movwf	RF24_setDataRate@setup
  6668  0F40                     l2942:
  6669                           
  6670                           ;C:/Users/abdal/Desktop/Embedded-shs/Embedded-shs/libs/rf24.c: 375:     if (speed == RF2
      +                          4_250KBPS)
  6671  0F40  3002               	movlw	2
  6672  0F41  0678               	xorwf	RF24_setDataRate@speed,w
  6673  0F42  1D03               	btfss	3,2
  6674  0F43  2F45               	goto	u2061
  6675  0F44  2F46               	goto	u2060
  6676  0F45                     u2061:
  6677  0F45  2F48               	goto	l2946
  6678  0F46                     u2060:
  6679  0F46                     l2944:
  6680                           
  6681                           ;C:/Users/abdal/Desktop/Embedded-shs/Embedded-shs/libs/rf24.c: 376:     {;C:/Users/abdal
      +                          /Desktop/Embedded-shs/Embedded-shs/libs/rf24.c: 377:         setup |= (1 << (5));
  6682  0F46  16F9               	bsf	RF24_setDataRate@setup,5
  6683                           
  6684                           ;C:/Users/abdal/Desktop/Embedded-shs/Embedded-shs/libs/rf24.c: 378:     }
  6685  0F47  2F4E               	goto	l2950
  6686  0F48                     l2946:
  6687  0F48  0378               	decf	RF24_setDataRate@speed,w
  6688  0F49  1D03               	btfss	3,2
  6689  0F4A  2F4C               	goto	u2071
  6690  0F4B  2F4D               	goto	u2070
  6691  0F4C                     u2071:
  6692  0F4C  2F4E               	goto	l2950
  6693  0F4D                     u2070:
  6694  0F4D                     l2948:
  6695                           
  6696                           ;C:/Users/abdal/Desktop/Embedded-shs/Embedded-shs/libs/rf24.c: 380:     {;C:/Users/abdal
      +                          /Desktop/Embedded-shs/Embedded-shs/libs/rf24.c: 381:         setup |= (1 << (3));
  6697  0F4D  15F9               	bsf	RF24_setDataRate@setup,3
  6698  0F4E                     l2950:
  6699                           
  6700                           ;C:/Users/abdal/Desktop/Embedded-shs/Embedded-shs/libs/rf24.c: 383:     RF24_write_regis
      +                          ter(0x06, setup);
  6701  0F4E  0879               	movf	RF24_setDataRate@setup,w
  6702  0F4F  00F7               	movwf	??_RF24_setDataRate
  6703  0F50  0877               	movf	??_RF24_setDataRate,w
  6704  0F51  00F4               	movwf	RF24_write_register@value
  6705  0F52  3006               	movlw	6
  6706  0F53  120A  158A  25CF  120A  158A  	fcall	_RF24_write_register
  6707  0F58                     l447:
  6708  0F58  0008               	return
  6709  0F59                     __end_of_RF24_setDataRate:
  6710                           
  6711                           	psect	text45
  6712  0D1F                     __ptext45:	
  6713 ;; *************** function _RF24_setChannel *****************
  6714 ;; Defined at:
  6715 ;;		line 449 in file "C:/Users/abdal/Desktop/Embedded-shs/Embedded-shs/libs/rf24.c"
  6716 ;; Parameters:    Size  Location     Type
  6717 ;;  channel         1    wreg     unsigned char 
  6718 ;; Auto vars:     Size  Location     Type
  6719 ;;  channel         1    8[COMMON] unsigned char 
  6720 ;; Return value:  Size  Location     Type
  6721 ;;                  1    wreg      void 
  6722 ;; Registers used:
  6723 ;;		wreg, status,2, status,0, pclath, cstack
  6724 ;; Tracked objects:
  6725 ;;		On entry : 0/0
  6726 ;;		On exit  : 0/0
  6727 ;;		Unchanged: 0/0
  6728 ;; Data sizes:     COMMON   BANK0   BANK1   BANK3   BANK2
  6729 ;;      Params:         0       0       0       0       0
  6730 ;;      Locals:         1       0       0       0       0
  6731 ;;      Temps:          1       0       0       0       0
  6732 ;;      Totals:         2       0       0       0       0
  6733 ;;Total ram usage:        2 bytes
  6734 ;; Hardware stack levels used: 1
  6735 ;; Hardware stack levels required when called: 2
  6736 ;; This function calls:
  6737 ;;		_RF24_write_register
  6738 ;; This function is called by:
  6739 ;;		_internet_setChannel
  6740 ;;		_RF24_begin
  6741 ;; This function uses a non-reentrant model
  6742 ;;
  6743                           
  6744  0D1F                     _RF24_setChannel:	
  6745                           ;psect for function _RF24_setChannel
  6746                           
  6747                           
  6748                           ;incstack = 0
  6749                           ; Regs used in _RF24_setChannel: [wreg+status,2+status,0+pclath+cstack]
  6750                           ;RF24_setChannel@channel stored from wreg
  6751  0D1F  00F8               	movwf	RF24_setChannel@channel
  6752  0D20                     l2872:
  6753                           
  6754                           ;C:/Users/abdal/Desktop/Embedded-shs/Embedded-shs/libs/rf24.c: 449: void RF24_setChannel
      +                          (uint8_t channel);C:/Users/abdal/Desktop/Embedded-shs/Embedded-shs/libs/rf24.c: 450: {;C
      +                          :/Users/abdal/Desktop/Embedded-shs/Embedded-shs/libs/rf24.c: 451:     RF24_write_registe
      +                          r(0x05, channel);
  6755  0D20  0878               	movf	RF24_setChannel@channel,w
  6756  0D21  00F7               	movwf	??_RF24_setChannel
  6757  0D22  0877               	movf	??_RF24_setChannel,w
  6758  0D23  00F4               	movwf	RF24_write_register@value
  6759  0D24  3005               	movlw	5
  6760  0D25  120A  158A  25CF  120A  158A  	fcall	_RF24_write_register
  6761  0D2A                     l476:
  6762  0D2A  0008               	return
  6763  0D2B                     __end_of_RF24_setChannel:
  6764                           
  6765                           	psect	text46
  6766  0D37                     __ptext46:	
  6767 ;; *************** function _RF24_setAddressWidth *****************
  6768 ;; Defined at:
  6769 ;;		line 473 in file "C:/Users/abdal/Desktop/Embedded-shs/Embedded-shs/libs/rf24.c"
  6770 ;; Parameters:    Size  Location     Type
  6771 ;;  w               1    wreg     unsigned char 
  6772 ;; Auto vars:     Size  Location     Type
  6773 ;;  w               1    8[COMMON] unsigned char 
  6774 ;; Return value:  Size  Location     Type
  6775 ;;                  1    wreg      void 
  6776 ;; Registers used:
  6777 ;;		wreg, status,2, status,0, pclath, cstack
  6778 ;; Tracked objects:
  6779 ;;		On entry : 0/0
  6780 ;;		On exit  : 0/0
  6781 ;;		Unchanged: 0/0
  6782 ;; Data sizes:     COMMON   BANK0   BANK1   BANK3   BANK2
  6783 ;;      Params:         0       0       0       0       0
  6784 ;;      Locals:         1       0       0       0       0
  6785 ;;      Temps:          1       0       0       0       0
  6786 ;;      Totals:         2       0       0       0       0
  6787 ;;Total ram usage:        2 bytes
  6788 ;; Hardware stack levels used: 1
  6789 ;; Hardware stack levels required when called: 2
  6790 ;; This function calls:
  6791 ;;		_RF24_write_register
  6792 ;; This function is called by:
  6793 ;;		_Network_begin
  6794 ;;		_RF24_begin
  6795 ;; This function uses a non-reentrant model
  6796 ;;
  6797                           
  6798  0D37                     _RF24_setAddressWidth:	
  6799                           ;psect for function _RF24_setAddressWidth
  6800                           
  6801                           
  6802                           ;incstack = 0
  6803                           ; Regs used in _RF24_setAddressWidth: [wreg+status,2+status,0+pclath+cstack]
  6804                           ;RF24_setAddressWidth@w stored from wreg
  6805  0D37  00F8               	movwf	RF24_setAddressWidth@w
  6806  0D38                     l2936:
  6807                           
  6808                           ;C:/Users/abdal/Desktop/Embedded-shs/Embedded-shs/libs/rf24.c: 473: void RF24_setAddress
      +                          Width(uint8_t w);C:/Users/abdal/Desktop/Embedded-shs/Embedded-shs/libs/rf24.c: 474: {;C:
      +                          /Users/abdal/Desktop/Embedded-shs/Embedded-shs/libs/rf24.c: 475:     RF24_write_register
      +                          (0x03, (w - 2) & 0b11);
  6809  0D38  0878               	movf	RF24_setAddressWidth@w,w
  6810  0D39  3EFE               	addlw	254
  6811  0D3A  3903               	andlw	3
  6812  0D3B  00F7               	movwf	??_RF24_setAddressWidth
  6813  0D3C  0877               	movf	??_RF24_setAddressWidth,w
  6814  0D3D  00F4               	movwf	RF24_write_register@value
  6815  0D3E  3003               	movlw	3
  6816  0D3F  120A  158A  25CF  120A  158A  	fcall	_RF24_write_register
  6817  0D44                     l494:
  6818  0D44  0008               	return
  6819  0D45                     __end_of_RF24_setAddressWidth:
  6820                           
  6821                           	psect	text47
  6822  0DE9                     __ptext47:	
  6823 ;; *************** function _RF24_powerUp *****************
  6824 ;; Defined at:
  6825 ;;		line 177 in file "C:/Users/abdal/Desktop/Embedded-shs/Embedded-shs/libs/rf24.c"
  6826 ;; Parameters:    Size  Location     Type
  6827 ;;		None
  6828 ;; Auto vars:     Size  Location     Type
  6829 ;;		None
  6830 ;; Return value:  Size  Location     Type
  6831 ;;                  1    wreg      void 
  6832 ;; Registers used:
  6833 ;;		wreg, status,2, status,0, pclath, cstack
  6834 ;; Tracked objects:
  6835 ;;		On entry : 0/0
  6836 ;;		On exit  : 0/0
  6837 ;;		Unchanged: 0/0
  6838 ;; Data sizes:     COMMON   BANK0   BANK1   BANK3   BANK2
  6839 ;;      Params:         0       0       0       0       0
  6840 ;;      Locals:         0       0       0       0       0
  6841 ;;      Temps:          2       0       0       0       0
  6842 ;;      Totals:         2       0       0       0       0
  6843 ;;Total ram usage:        2 bytes
  6844 ;; Hardware stack levels used: 1
  6845 ;; Hardware stack levels required when called: 2
  6846 ;; This function calls:
  6847 ;;		_RF24_read_register
  6848 ;;		_RF24_write_register
  6849 ;; This function is called by:
  6850 ;;		_RF24_begin
  6851 ;; This function uses a non-reentrant model
  6852 ;;
  6853                           
  6854  0DE9                     _RF24_powerUp:	
  6855                           ;psect for function _RF24_powerUp
  6856                           
  6857  0DE9                     l2980:	
  6858                           ;incstack = 0
  6859                           ; Regs used in _RF24_powerUp: [wreg+status,2+status,0+pclath+cstack]
  6860                           
  6861                           
  6862                           ;C:/Users/abdal/Desktop/Embedded-shs/Embedded-shs/libs/rf24.c: 179:     RF24_write_regis
      +                          ter(0x00, RF24_read_register(0x00) | (1 << (1)));
  6863  0DE9  3000               	movlw	0
  6864  0DEA  120A  158A  2652  120A  158A  	fcall	_RF24_read_register
  6865  0DEF  3802               	iorlw	2
  6866  0DF0  00F7               	movwf	??_RF24_powerUp
  6867  0DF1  0877               	movf	??_RF24_powerUp,w
  6868  0DF2  00F4               	movwf	RF24_write_register@value
  6869  0DF3  3000               	movlw	0
  6870  0DF4  120A  158A  25CF  120A  158A  	fcall	_RF24_write_register
  6871  0DF9                     l2982:
  6872                           
  6873                           ;C:/Users/abdal/Desktop/Embedded-shs/Embedded-shs/libs/rf24.c: 180:     _delay((unsigned
      +                           long)((5)*(16000000/4000.0)));
  6874  0DF9  301A               	movlw	26
  6875  0DFA  00F8               	movwf	??_RF24_powerUp+1
  6876  0DFB  30F8               	movlw	248
  6877  0DFC  00F7               	movwf	??_RF24_powerUp
  6878  0DFD                     u2307:
  6879  0DFD  0BF7               	decfsz	??_RF24_powerUp,f
  6880  0DFE  2DFD               	goto	u2307
  6881  0DFF  0BF8               	decfsz	??_RF24_powerUp+1,f
  6882  0E00  2DFD               	goto	u2307
  6883  0E01  0000               	nop
  6884  0E02                     l377:
  6885  0E02  0008               	return
  6886  0E03                     __end_of_RF24_powerUp:
  6887                           
  6888                           	psect	text48
  6889  0E52                     __ptext48:	
  6890 ;; *************** function _RF24_read_register *****************
  6891 ;; Defined at:
  6892 ;;		line 18 in file "C:/Users/abdal/Desktop/Embedded-shs/Embedded-shs/libs/rf24.c"
  6893 ;; Parameters:    Size  Location     Type
  6894 ;;  mnemonic_add    1    wreg     unsigned char 
  6895 ;; Auto vars:     Size  Location     Type
  6896 ;;  mnemonic_add    1    2[COMMON] unsigned char 
  6897 ;;  result          1    3[COMMON] unsigned char 
  6898 ;; Return value:  Size  Location     Type
  6899 ;;                  1    wreg      unsigned char 
  6900 ;; Registers used:
  6901 ;;		wreg, pclath, cstack
  6902 ;; Tracked objects:
  6903 ;;		On entry : 0/0
  6904 ;;		On exit  : 0/0
  6905 ;;		Unchanged: 0/0
  6906 ;; Data sizes:     COMMON   BANK0   BANK1   BANK3   BANK2
  6907 ;;      Params:         0       0       0       0       0
  6908 ;;      Locals:         2       0       0       0       0
  6909 ;;      Temps:          1       0       0       0       0
  6910 ;;      Totals:         3       0       0       0       0
  6911 ;;Total ram usage:        3 bytes
  6912 ;; Hardware stack levels used: 1
  6913 ;; Hardware stack levels required when called: 1
  6914 ;; This function calls:
  6915 ;;		_SPI_exchangeByte
  6916 ;; This function is called by:
  6917 ;;		_RF24_begin
  6918 ;;		_RF24_setPALevel
  6919 ;;		_RF24_isChipConnected
  6920 ;;		_RF24_startListening
  6921 ;;		_RF24_stopListening
  6922 ;;		_RF24_powerUp
  6923 ;;		_RF24_getDynamicPayloadSize
  6924 ;;		_RF24_openReadingPipe
  6925 ;;		_RF24_enableDynamicPayloads
  6926 ;;		_RF24_setDataRate
  6927 ;;		_RF24_getPALevel
  6928 ;; This function uses a non-reentrant model
  6929 ;;
  6930                           
  6931  0E52                     _RF24_read_register:	
  6932                           ;psect for function _RF24_read_register
  6933                           
  6934                           
  6935                           ;incstack = 0
  6936                           ; Regs used in _RF24_read_register: [wreg+pclath+cstack]
  6937                           ;RF24_read_register@mnemonic_addr stored from wreg
  6938  0E52  00F2               	movwf	RF24_read_register@mnemonic_addr
  6939  0E53                     l2736:
  6940                           
  6941                           ;C:/Users/abdal/Desktop/Embedded-shs/Embedded-shs/libs/rf24.c: 18: uint8_t RF24_read_reg
      +                          ister(uint8_t mnemonic_addr);C:/Users/abdal/Desktop/Embedded-shs/Embedded-shs/libs/rf24.
      +                          c: 19: {;C:/Users/abdal/Desktop/Embedded-shs/Embedded-shs/libs/rf24.c: 20:     RD3 = 0;
  6942  0E53  1283               	bcf	3,5	;RP0=0, select bank0
  6943  0E54  1303               	bcf	3,6	;RP1=0, select bank0
  6944  0E55  1188               	bcf	8,3	;volatile
  6945  0E56                     l2738:
  6946                           
  6947                           ;C:/Users/abdal/Desktop/Embedded-shs/Embedded-shs/libs/rf24.c: 21:     uint8_t result;;C
      +                          :/Users/abdal/Desktop/Embedded-shs/Embedded-shs/libs/rf24.c: 22:     RF24_attr_status = 
      +                          SPI_exchangeByte(0x00 | mnemonic_addr);
  6948  0E56  0872               	movf	RF24_read_register@mnemonic_addr,w
  6949  0E57  120A  158A  2513  120A  158A  	fcall	_SPI_exchangeByte
  6950  0E5C  00F1               	movwf	??_RF24_read_register
  6951  0E5D  0871               	movf	??_RF24_read_register,w
  6952  0E5E  1283               	bcf	3,5	;RP0=0, select bank0
  6953  0E5F  1303               	bcf	3,6	;RP1=0, select bank0
  6954  0E60  00C3               	movwf	_RF24_attr_status
  6955                           
  6956                           ;C:/Users/abdal/Desktop/Embedded-shs/Embedded-shs/libs/rf24.c: 23:     result = SPI_exch
      +                          angeByte(0xFF);
  6957  0E61  30FF               	movlw	255
  6958  0E62  120A  158A  2513  120A  158A  	fcall	_SPI_exchangeByte
  6959  0E67  00F1               	movwf	??_RF24_read_register
  6960  0E68  0871               	movf	??_RF24_read_register,w
  6961  0E69  00F3               	movwf	RF24_read_register@result
  6962  0E6A                     l2740:
  6963                           
  6964                           ;C:/Users/abdal/Desktop/Embedded-shs/Embedded-shs/libs/rf24.c: 24:     RD3 = 1;
  6965  0E6A  1283               	bcf	3,5	;RP0=0, select bank0
  6966  0E6B  1303               	bcf	3,6	;RP1=0, select bank0
  6967  0E6C  1588               	bsf	8,3	;volatile
  6968  0E6D                     l2742:
  6969                           
  6970                           ;C:/Users/abdal/Desktop/Embedded-shs/Embedded-shs/libs/rf24.c: 26:     return result;
  6971  0E6D  0873               	movf	RF24_read_register@result,w
  6972  0E6E                     l339:
  6973  0E6E  0008               	return
  6974  0E6F                     __end_of_RF24_read_register:
  6975                           
  6976                           	psect	text49
  6977  0D08                     __ptext49:	
  6978 ;; *************** function _RF24_flush_tx *****************
  6979 ;; Defined at:
  6980 ;;		line 437 in file "C:/Users/abdal/Desktop/Embedded-shs/Embedded-shs/libs/rf24.c"
  6981 ;; Parameters:    Size  Location     Type
  6982 ;;		None
  6983 ;; Auto vars:     Size  Location     Type
  6984 ;;		None
  6985 ;; Return value:  Size  Location     Type
  6986 ;;                  1    wreg      void 
  6987 ;; Registers used:
  6988 ;;		wreg, status,2, status,0, pclath, cstack
  6989 ;; Tracked objects:
  6990 ;;		On entry : 0/0
  6991 ;;		On exit  : 0/0
  6992 ;;		Unchanged: 0/0
  6993 ;; Data sizes:     COMMON   BANK0   BANK1   BANK3   BANK2
  6994 ;;      Params:         0       0       0       0       0
  6995 ;;      Locals:         0       0       0       0       0
  6996 ;;      Temps:          1       0       0       0       0
  6997 ;;      Totals:         1       0       0       0       0
  6998 ;;Total ram usage:        1 bytes
  6999 ;; Hardware stack levels used: 1
  7000 ;; Hardware stack levels required when called: 2
  7001 ;; This function calls:
  7002 ;;		_RF24_write_register
  7003 ;; This function is called by:
  7004 ;;		_RF24_begin
  7005 ;;		_RF24_write
  7006 ;; This function uses a non-reentrant model
  7007 ;;
  7008                           
  7009  0D08                     _RF24_flush_tx:	
  7010                           ;psect for function _RF24_flush_tx
  7011                           
  7012  0D08                     l2768:	
  7013                           ;incstack = 0
  7014                           ; Regs used in _RF24_flush_tx: [wreg+status,2+status,0+pclath+cstack]
  7015                           
  7016                           
  7017                           ;C:/Users/abdal/Desktop/Embedded-shs/Embedded-shs/libs/rf24.c: 439:     RF24_write_regis
      +                          ter(0xE1, 0xFF);
  7018  0D08  30FF               	movlw	255
  7019  0D09  00F7               	movwf	??_RF24_flush_tx
  7020  0D0A  0877               	movf	??_RF24_flush_tx,w
  7021  0D0B  00F4               	movwf	RF24_write_register@value
  7022  0D0C  30E1               	movlw	225
  7023  0D0D  120A  158A  25CF  120A  158A  	fcall	_RF24_write_register
  7024  0D12                     l467:
  7025  0D12  0008               	return
  7026  0D13                     __end_of_RF24_flush_tx:
  7027                           
  7028                           	psect	text50
  7029  0CFD                     __ptext50:	
  7030 ;; *************** function _RF24_flush_rx *****************
  7031 ;; Defined at:
  7032 ;;		line 441 in file "C:/Users/abdal/Desktop/Embedded-shs/Embedded-shs/libs/rf24.c"
  7033 ;; Parameters:    Size  Location     Type
  7034 ;;		None
  7035 ;; Auto vars:     Size  Location     Type
  7036 ;;		None
  7037 ;; Return value:  Size  Location     Type
  7038 ;;                  1    wreg      void 
  7039 ;; Registers used:
  7040 ;;		wreg, status,2, status,0, pclath, cstack
  7041 ;; Tracked objects:
  7042 ;;		On entry : 0/0
  7043 ;;		On exit  : 0/0
  7044 ;;		Unchanged: 0/0
  7045 ;; Data sizes:     COMMON   BANK0   BANK1   BANK3   BANK2
  7046 ;;      Params:         0       0       0       0       0
  7047 ;;      Locals:         0       0       0       0       0
  7048 ;;      Temps:          1       0       0       0       0
  7049 ;;      Totals:         1       0       0       0       0
  7050 ;;Total ram usage:        1 bytes
  7051 ;; Hardware stack levels used: 1
  7052 ;; Hardware stack levels required when called: 2
  7053 ;; This function calls:
  7054 ;;		_RF24_write_register
  7055 ;; This function is called by:
  7056 ;;		_RF24_begin
  7057 ;;		_RF24_getDynamicPayloadSize
  7058 ;; This function uses a non-reentrant model
  7059 ;;
  7060                           
  7061  0CFD                     _RF24_flush_rx:	
  7062                           ;psect for function _RF24_flush_rx
  7063                           
  7064  0CFD                     l2978:	
  7065                           ;incstack = 0
  7066                           ; Regs used in _RF24_flush_rx: [wreg+status,2+status,0+pclath+cstack]
  7067                           
  7068                           
  7069                           ;C:/Users/abdal/Desktop/Embedded-shs/Embedded-shs/libs/rf24.c: 443:     RF24_write_regis
      +                          ter(0xE2, 0xFF);
  7070  0CFD  30FF               	movlw	255
  7071  0CFE  00F7               	movwf	??_RF24_flush_rx
  7072  0CFF  0877               	movf	??_RF24_flush_rx,w
  7073  0D00  00F4               	movwf	RF24_write_register@value
  7074  0D01  30E2               	movlw	226
  7075  0D02  120A  158A  25CF  120A  158A  	fcall	_RF24_write_register
  7076  0D07                     l470:
  7077  0D07  0008               	return
  7078  0D08                     __end_of_RF24_flush_rx:
  7079                           
  7080                           	psect	text51
  7081  0DCF                     __ptext51:	
  7082 ;; *************** function _RF24_write_register *****************
  7083 ;; Defined at:
  7084 ;;		line 42 in file "C:/Users/abdal/Desktop/Embedded-shs/Embedded-shs/libs/rf24.c"
  7085 ;; Parameters:    Size  Location     Type
  7086 ;;  mnemonic_add    1    wreg     unsigned char 
  7087 ;;  value           1    4[COMMON] unsigned char 
  7088 ;; Auto vars:     Size  Location     Type
  7089 ;;  mnemonic_add    1    6[COMMON] unsigned char 
  7090 ;; Return value:  Size  Location     Type
  7091 ;;                  1    wreg      void 
  7092 ;; Registers used:
  7093 ;;		wreg, status,2, status,0, pclath, cstack
  7094 ;; Tracked objects:
  7095 ;;		On entry : 0/0
  7096 ;;		On exit  : 0/0
  7097 ;;		Unchanged: 0/0
  7098 ;; Data sizes:     COMMON   BANK0   BANK1   BANK3   BANK2
  7099 ;;      Params:         1       0       0       0       0
  7100 ;;      Locals:         1       0       0       0       0
  7101 ;;      Temps:          1       0       0       0       0
  7102 ;;      Totals:         3       0       0       0       0
  7103 ;;Total ram usage:        3 bytes
  7104 ;; Hardware stack levels used: 1
  7105 ;; Hardware stack levels required when called: 1
  7106 ;; This function calls:
  7107 ;;		_SPI_exchangeByte
  7108 ;; This function is called by:
  7109 ;;		_RF24_begin
  7110 ;;		_RF24_setPALevel
  7111 ;;		_RF24_startListening
  7112 ;;		_RF24_stopListening
  7113 ;;		_RF24_powerUp
  7114 ;;		_RF24_setPayloadSize
  7115 ;;		_RF24_write
  7116 ;;		_RF24_read
  7117 ;;		_RF24_openReadingPipe
  7118 ;;		_RF24_enableDynamicPayloads
  7119 ;;		_RF24_setAutoAck
  7120 ;;		_RF24_setDataRate
  7121 ;;		_RF24_setCRCLength
  7122 ;;		_RF24_flush_tx
  7123 ;;		_RF24_flush_rx
  7124 ;;		_RF24_setChannel
  7125 ;;		_RF24_setRetries
  7126 ;;		_RF24_setAddressWidth
  7127 ;; This function uses a non-reentrant model
  7128 ;;
  7129                           
  7130  0DCF                     _RF24_write_register:	
  7131                           ;psect for function _RF24_write_register
  7132                           
  7133                           
  7134                           ;incstack = 0
  7135                           ; Regs used in _RF24_write_register: [wreg+status,2+status,0+pclath+cstack]
  7136                           ;RF24_write_register@mnemonic_addr stored from wreg
  7137  0DCF  00F6               	movwf	RF24_write_register@mnemonic_addr
  7138  0DD0                     l2594:
  7139                           
  7140                           ;C:/Users/abdal/Desktop/Embedded-shs/Embedded-shs/libs/rf24.c: 42: void RF24_write_regis
      +                          ter(uint8_t mnemonic_addr, uint8_t value);C:/Users/abdal/Desktop/Embedded-shs/Embedded-s
      +                          hs/libs/rf24.c: 43: {;C:/Users/abdal/Desktop/Embedded-shs/Embedded-shs/libs/rf24.c: 45: 
      +                              RD3 = 0;
  7141  0DD0  1283               	bcf	3,5	;RP0=0, select bank0
  7142  0DD1  1303               	bcf	3,6	;RP1=0, select bank0
  7143  0DD2  1188               	bcf	8,3	;volatile
  7144  0DD3                     l2596:
  7145                           
  7146                           ;C:/Users/abdal/Desktop/Embedded-shs/Embedded-shs/libs/rf24.c: 46:     RF24_attr_status 
      +                          = SPI_exchangeByte(0x20 | mnemonic_addr);
  7147  0DD3  0876               	movf	RF24_write_register@mnemonic_addr,w
  7148  0DD4  3820               	iorlw	32
  7149  0DD5  120A  158A  2513  120A  158A  	fcall	_SPI_exchangeByte
  7150  0DDA  00F5               	movwf	??_RF24_write_register
  7151  0DDB  0875               	movf	??_RF24_write_register,w
  7152  0DDC  1283               	bcf	3,5	;RP0=0, select bank0
  7153  0DDD  1303               	bcf	3,6	;RP1=0, select bank0
  7154  0DDE  00C3               	movwf	_RF24_attr_status
  7155  0DDF                     l2598:
  7156                           
  7157                           ;C:/Users/abdal/Desktop/Embedded-shs/Embedded-shs/libs/rf24.c: 47:     SPI_exchangeByte(
      +                          value);
  7158  0DDF  0874               	movf	RF24_write_register@value,w
  7159  0DE0  120A  158A  2513  120A  158A  	fcall	_SPI_exchangeByte
  7160  0DE5                     l2600:
  7161                           
  7162                           ;C:/Users/abdal/Desktop/Embedded-shs/Embedded-shs/libs/rf24.c: 48:     RD3 = 1;
  7163  0DE5  1283               	bcf	3,5	;RP0=0, select bank0
  7164  0DE6  1303               	bcf	3,6	;RP1=0, select bank0
  7165  0DE7  1588               	bsf	8,3	;volatile
  7166  0DE8                     l348:
  7167  0DE8  0008               	return
  7168  0DE9                     __end_of_RF24_write_register:
  7169                           
  7170                           	psect	text52
  7171  0D13                     __ptext52:	
  7172 ;; *************** function _SPI_exchangeByte *****************
  7173 ;; Defined at:
  7174 ;;		line 13 in file "C:/Users/abdal/Desktop/Embedded-shs/Embedded-shs/libs/spi_master.c"
  7175 ;; Parameters:    Size  Location     Type
  7176 ;;  byte            1    wreg     unsigned char 
  7177 ;; Auto vars:     Size  Location     Type
  7178 ;;  byte            1    0[COMMON] unsigned char 
  7179 ;; Return value:  Size  Location     Type
  7180 ;;                  1    wreg      unsigned char 
  7181 ;; Registers used:
  7182 ;;		wreg
  7183 ;; Tracked objects:
  7184 ;;		On entry : 0/0
  7185 ;;		On exit  : 0/0
  7186 ;;		Unchanged: 0/0
  7187 ;; Data sizes:     COMMON   BANK0   BANK1   BANK3   BANK2
  7188 ;;      Params:         0       0       0       0       0
  7189 ;;      Locals:         1       0       0       0       0
  7190 ;;      Temps:          0       0       0       0       0
  7191 ;;      Totals:         1       0       0       0       0
  7192 ;;Total ram usage:        1 bytes
  7193 ;; Hardware stack levels used: 1
  7194 ;; This function calls:
  7195 ;;		Nothing
  7196 ;; This function is called by:
  7197 ;;		_RF24_read_n_register
  7198 ;;		_RF24_read_register
  7199 ;;		_RF24_write_n_register
  7200 ;;		_RF24_write_register
  7201 ;;		_RF24_get_status
  7202 ;;		_RF24_write
  7203 ;; This function uses a non-reentrant model
  7204 ;;
  7205                           
  7206  0D13                     _SPI_exchangeByte:	
  7207                           ;psect for function _SPI_exchangeByte
  7208                           
  7209                           
  7210                           ;incstack = 0
  7211                           ; Regs used in _SPI_exchangeByte: [wreg]
  7212                           ;SPI_exchangeByte@byte stored from wreg
  7213  0D13  00F0               	movwf	SPI_exchangeByte@byte
  7214  0D14                     l2584:
  7215                           
  7216                           ;C:/Users/abdal/Desktop/Embedded-shs/Embedded-shs/libs/spi_master.c: 13: uint8_t SPI_exc
      +                          hangeByte(uint8_t byte);C:/Users/abdal/Desktop/Embedded-shs/Embedded-shs/libs/spi_master
      +                          .c: 14: {;C:/Users/abdal/Desktop/Embedded-shs/Embedded-shs/libs/spi_master.c: 16:     SS
      +                          PBUF = byte;
  7217  0D14  0870               	movf	SPI_exchangeByte@byte,w
  7218  0D15  1283               	bcf	3,5	;RP0=0, select bank0
  7219  0D16  1303               	bcf	3,6	;RP1=0, select bank0
  7220  0D17  0093               	movwf	19	;volatile
  7221  0D18                     l523:	
  7222                           ;C:/Users/abdal/Desktop/Embedded-shs/Embedded-shs/libs/spi_master.c: 19:         ;
  7223                           
  7224                           
  7225                           ;C:/Users/abdal/Desktop/Embedded-shs/Embedded-shs/libs/spi_master.c: 18:     while (SSPI
      +                          F == 0)
  7226  0D18  1D8C               	btfss	12,3	;volatile
  7227  0D19  2D1B               	goto	u1611
  7228  0D1A  2D1C               	goto	u1610
  7229  0D1B                     u1611:
  7230  0D1B  2D18               	goto	l523
  7231  0D1C                     u1610:
  7232  0D1C                     l525:
  7233                           
  7234                           ;C:/Users/abdal/Desktop/Embedded-shs/Embedded-shs/libs/spi_master.c: 20:     SSPIF = 0;
  7235  0D1C  118C               	bcf	12,3	;volatile
  7236  0D1D                     l2586:
  7237                           
  7238                           ;C:/Users/abdal/Desktop/Embedded-shs/Embedded-shs/libs/spi_master.c: 21:     return SSPB
      +                          UF;
  7239  0D1D  0813               	movf	19,w	;volatile
  7240  0D1E                     l526:
  7241  0D1E  0008               	return
  7242  0D1F                     __end_of_SPI_exchangeByte:
  7243  007E                     btemp	set	126	;btemp
  7244  007E                     wtemp0	set	126
  7245                           
  7246                           	psect	config
  7247                           
  7248                           ;Config register CONFIG @ 0x2007
  7249                           ;	Oscillator Selection bits
  7250                           ;	FOSC = HS, HS oscillator
  7251                           ;	Watchdog Timer Enable bit
  7252                           ;	WDTE = OFF, WDT disabled
  7253                           ;	Power-up Timer Enable bit
  7254                           ;	PWRTE = OFF, PWRT disabled
  7255                           ;	Brown-out Reset Enable bit
  7256                           ;	BOREN = ON, BOR enabled
  7257                           ;	Low-Voltage (Single-Supply) In-Circuit Serial Programming Enable bit
  7258                           ;	LVP = OFF, RB3 is digital I/O, HV on MCLR must be used for programming
  7259                           ;	Data EEPROM Memory Code Protection bit
  7260                           ;	CPD = OFF, Data EEPROM code protection off
  7261                           ;	Flash Program Memory Write Enable bits
  7262                           ;	WRT = OFF, Write protection off; all program memory may be written to by EECON control
  7263                           ;	In-Circuit Debugger Mode bit
  7264                           ;	DEBUG = 0x1, unprogrammed default
  7265                           ;	Flash Program Memory Code Protection bit
  7266                           ;	CP = OFF, Code protection off
  7267  2007                     	org	8199
  7268  2007  3F7A               	dw	16250

Data Sizes:
    Strings     214
    Constant    34
    Data        5
    BSS         77
    Persistent  0
    Stack       0

Auto Spaces:
    Space          Size  Autos    Used
    COMMON           14     14      14
    BANK0            80     29      47
    BANK1            80      0      64
    BANK3            96      0       0
    BANK2            96      0       0

Pointer List with Targets:

    transport_udp_process@payload	PTR unsigned char  size(1) Largest target is 32
		 -> buffer_rx(BANK1[32]), 

    memcpy@d1	PTR void  size(1) Largest target is 32
		 -> networkInfo(BANK0[6]), buffer_tx(BANK1[32]), 

    memcpy@d	PTR unsigned char  size(1) Largest target is 32
		 -> networkInfo(BANK0[6]), buffer_tx(BANK1[32]), 

    memcpy@s1	PTR const void  size(2) Largest target is 6
		 -> networkInfo(BANK0[6]), STR_1(CODE[3]), network_pipe(BANK0[5]), 

    memcpy@s	PTR const unsigned char  size(2) Largest target is 6
		 -> networkInfo(BANK0[6]), STR_1(CODE[3]), network_pipe(BANK0[5]), 

    _$_logline_str@string	PTR unsigned char  size(2) Largest target is 32
		 -> STR_24(CODE[23]), STR_23(CODE[3]), STR_22(CODE[6]), STR_21(CODE[6]), 
		 -> STR_20(CODE[6]), STR_19(CODE[6]), STR_18(CODE[6]), STR_17(CODE[6]), 
		 -> STR_16(CODE[11]), STR_15(CODE[7]), STR_14(CODE[9]), STR_13(CODE[6]), 
		 -> STR_12(CODE[11]), STR_11(CODE[9]), STR_10(CODE[10]), STR_9(CODE[6]), 
		 -> STR_8(CODE[7]), STR_7(CODE[23]), STR_6(CODE[10]), STR_5(CODE[8]), 
		 -> STR_4(CODE[8]), STR_3(CODE[20]), STR_2(CODE[7]), buffer_rx(BANK1[32]), 
		 -> buffer_tx(BANK1[32]), 

    transport_udp_rx@payload	PTR unsigned char  size(1) Largest target is 32
		 -> buffer_rx(BANK1[32]), 

    transport_udp_rx@packetHeader	PTR struct UDPPacket size(1) Largest target is 32
		 -> buffer_rx(BANK1[32]), 

    transport_udp_tx@payload	PTR unsigned char  size(1) Largest target is 32
		 -> buffer_tx(BANK1[32]), 

    transport_udp_tx@packetHeader	PTR struct UDPPacket size(1) Largest target is 32
		 -> buffer_tx(BANK1[32]), 

    RF24_openWritingPipe@address	PTR unsigned char  size(1) Largest target is 6
		 -> networkInfo(BANK0[6]), 

    RF24_openReadingPipe@address	PTR unsigned char  size(2) Largest target is 6
		 -> BASE_PIPE(CODE[5]), networkInfo(BANK0[6]), 

    RF24_read@buf	PTR void  size(1) Largest target is 32
		 -> buffer_rx(BANK1[32]), 

    RF24_write@buf	PTR void  size(1) Largest target is 32
		 -> buffer_rx(BANK1[32]), buffer_tx(BANK1[32]), 

    RF24_write_n_register@buffer	PTR unsigned char  size(2) Largest target is 6
		 -> BASE_PIPE(CODE[5]), networkInfo(BANK0[6]), 

    RF24_read_n_register@buf	PTR unsigned char  size(1) Largest target is 32
		 -> RF24_printDetails@buffer(COMMON[5]), buffer_rx(BANK1[32]), 

    sp__internet_getRecievingBuffer	PTR unsigned char  size(1) Largest target is 32
		 -> buffer_rx(BANK1[32]), 

    sp__internet_getTransmissionBuffer	PTR unsigned char  size(1) Largest target is 32
		 -> buffer_tx(BANK1[32]), 

    internet_relay@payload	PTR unsigned char  size(1) Largest target is 32
		 -> buffer_rx(BANK1[32]), buffer_tx(BANK1[32]), 

    internet_relay@packetHeader	PTR struct Packet size(1) Largest target is 32
		 -> buffer_rx(BANK1[32]), buffer_tx(BANK1[32]), 

    internet_rx@payload	PTR unsigned char  size(1) Largest target is 32
		 -> buffer_rx(BANK1[32]), 

    internet_rx@packetHeader	PTR struct Packet size(1) Largest target is 32
		 -> buffer_rx(BANK1[32]), 

    internet_tx@payload	PTR unsigned char  size(1) Largest target is 32
		 -> buffer_tx(BANK1[32]), 

    internet_tx@packetHeader	PTR struct Packet size(1) Largest target is 32
		 -> buffer_tx(BANK1[32]), 

    internet_setNetworkPipe@pipe	PTR unsigned char  size(1) Largest target is 6
		 -> networkInfo(BANK0[6]), network_pipe(BANK0[5]), 

    transport_udp_process@data	PTR unsigned char  size(1) Largest target is 32
		 -> buffer_rx(BANK1[32]), 

    sp__memcpy	PTR void  size(1) Largest target is 32
		 -> networkInfo(BANK0[6]), buffer_tx(BANK1[32]), 


Critical Paths under _main in COMMON

    _main->_internet_setNetworkPipe
    _transport_udp_tx->_internet_tx
    _internet_tx->_internet_relay
    _internet_setChannel->_RF24_setChannel
    _internet_setAddress->_internet_setNetworkPipe
    _internet_setNetworkPipe->_RF24_openReadingPipe
    _transport_udp_rx->_transport_udp_process
    __$_logline_int->___awmod
    ___awmod->___lbdiv
    _internet_relay->_RF24_openReadingPipe
    __$_logline_str->_Serial_write
    _RF24_write->_RF24_flush_tx
    _RF24_stopListening->_RF24_write_register
    _RF24_openWritingPipe->_RF24_write_n_register
    _RF24_read->_RF24_write_register
    _RF24_read_n_register->_SPI_exchangeByte
    _RF24_getDynamicPayloadSize->_RF24_flush_rx
    _RF24_available->_RF24_get_status
    _RF24_get_status->_SPI_exchangeByte
    _Serial_begin->___aldiv
    _RF24_isChipConnected->_RF24_read_register
    _Network_begin->_RF24_openReadingPipe
    _RF24_startListening->_RF24_write_register
    _RF24_setCRCLength->_RF24_write_register
    _RF24_setAutoAck->_RF24_write_register
    _RF24_openReadingPipe->_RF24_write_register
    _RF24_write_n_register->_SPI_exchangeByte
    _RF24_getPALevel->_RF24_read_register
    _RF24_enableDynamicPayloads->_RF24_write_register
    _RF24_begin->_RF24_setPALevel
    _RF24_begin->_RF24_setRetries
    _RF24_setRetries->_RF24_write_register
    _RF24_setPayloadSize->_RF24_write_register
    _RF24_setPALevel->_RF24_write_register
    _RF24_setDataRate->_RF24_write_register
    _RF24_setChannel->_RF24_write_register
    _RF24_setAddressWidth->_RF24_write_register
    _RF24_powerUp->_RF24_write_register
    _RF24_read_register->_SPI_exchangeByte
    _RF24_flush_tx->_RF24_write_register
    _RF24_flush_rx->_RF24_write_register
    _RF24_write_register->_RF24_read_register

Critical Paths under _main in BANK0

    _main->_internet_process
    _transport_udp_tx->_internet_tx
    _internet_tx->_internet_relay
    _internet_process->_internet_rx
    _internet_rx->_transport_udp_rx
    _transport_udp_rx->_transport_udp_process
    _transport_udp_process->__$_logline_int
    _Serial_begin->___aldiv
    _Network_begin->_RF24_begin

Critical Paths under _main in BANK1

    None.

Critical Paths under _main in BANK3

    None.

Critical Paths under _main in BANK2

    None.

Call Graph Tables:

 ---------------------------------------------------------------------------------
 (Depth) Function   	        Calls       Base Space   Used Autos Params    Refs
 ---------------------------------------------------------------------------------
 (0) _main                                                 3     3      0  146382
                                             26 BANK0      3     3      0
                      _Network_begin
               _RF24_isChipConnected
                     _SPI_initialize
                       _Serial_begin
                   _internet_process
                _internet_setAddress
                _internet_setChannel
            _internet_setNetworkPipe
                             _memcpy
                   _transport_udp_tx
 ---------------------------------------------------------------------------------
 (1) _transport_udp_tx                                     7     3      4   24740
                                              7 BANK0      7     3      4
                        _internet_tx
 ---------------------------------------------------------------------------------
 (2) _internet_tx                                          4     3      1   23981
                                             13 COMMON     1     1      0
                                              4 BANK0      3     2      1
                     _internet_relay
 ---------------------------------------------------------------------------------
 (1) _internet_setChannel                                  1     1      0    3615
                                              9 COMMON     1     1      0
                    _RF24_setChannel
 ---------------------------------------------------------------------------------
 (1) _internet_setAddress                                  3     3      0    6052
                                              0 BANK0      3     3      0
             _internet_calculateMask
            _internet_setNetworkPipe
 ---------------------------------------------------------------------------------
 (1) _internet_setNetworkPipe                              2     2      0    5888
                                             12 COMMON     2     2      0
               _RF24_openReadingPipe
                             _memcpy
 ---------------------------------------------------------------------------------
 (2) _memcpy                                              10     6      4     740
                                              0 COMMON    10     6      4
 ---------------------------------------------------------------------------------
 (1) _internet_process                                     2     2      0   37018
                                             24 BANK0      2     2      0
                     _RF24_available
         _RF24_getDynamicPayloadSize
                          _RF24_read
                        _internet_rx
 ---------------------------------------------------------------------------------
 (2) _internet_rx                                          5     4      1   28656
                                             19 BANK0      5     4      1
                     _internet_relay
                   _transport_udp_rx
 ---------------------------------------------------------------------------------
 (3) _transport_udp_rx                                     5     4      1    4613
                                             14 BANK0      5     4      1
              _transport_udp_process
 ---------------------------------------------------------------------------------
 (4) _transport_udp_process                                7     5      2    4310
                                             12 COMMON     2     2      0
                                              9 BANK0      5     3      2
                       _Serial_write
                     __$_logline_int
                     __$_logline_str
 ---------------------------------------------------------------------------------
 (5) __$_logline_int                                       9     9      0    1866
                                              0 BANK0      9     9      0
                       _Serial_write
                            ___awdiv
                            ___awmod
                            ___lbdiv
 ---------------------------------------------------------------------------------
 (6) ___lbdiv                                              5     4      1     331
                                              0 COMMON     5     4      1
 ---------------------------------------------------------------------------------
 (6) ___awmod                                              7     3      4     613
                                              5 COMMON     7     3      4
                            ___lbdiv (ARG)
 ---------------------------------------------------------------------------------
 (6) ___awdiv                                              9     5      4     625
                                              0 COMMON     9     5      4
 ---------------------------------------------------------------------------------
 (3) _internet_relay                                       6     5      1   23647
                                             12 COMMON     1     1      0
                                              0 BANK0      4     3      1
               _RF24_openReadingPipe
               _RF24_openWritingPipe
                _RF24_startListening
                 _RF24_stopListening
                         _RF24_write
                       _Serial_write
                     __$_logline_str
             _internet_calculateMask
                  _internet_hasChild
 ---------------------------------------------------------------------------------
 (4) _internet_hasChild                                    2     2      0      31
                                              0 COMMON     2     2      0
 ---------------------------------------------------------------------------------
 (4) _internet_calculateMask                               2     2      0     102
                                              0 COMMON     2     2      0
 ---------------------------------------------------------------------------------
 (4) __$_logline_str                                       4     2      2    2020
                                              1 COMMON     4     2      2
                       _Serial_write
 ---------------------------------------------------------------------------------
 (5) _Serial_write                                         1     1      0      31
                                              0 COMMON     1     1      0
 ---------------------------------------------------------------------------------
 (4) _RF24_write                                           3     2      1    7761
                                              8 COMMON     3     2      1
                      _RF24_flush_tx
                    _RF24_get_status
                _RF24_write_register
                   _SPI_exchangeByte
 ---------------------------------------------------------------------------------
 (4) _RF24_stopListening                                   1     1      0    3649
                                              7 COMMON     1     1      0
                 _RF24_read_register
                _RF24_write_register
 ---------------------------------------------------------------------------------
 (4) _RF24_openWritingPipe                                 2     2      0     629
                                              6 COMMON     2     2      0
              _RF24_write_n_register
 ---------------------------------------------------------------------------------
 (2) _RF24_read                                            4     3      1    4518
                                              7 COMMON     4     3      1
               _RF24_read_n_register
                _RF24_write_register
 ---------------------------------------------------------------------------------
 (3) _RF24_read_n_register                                 4     2      2     727
                                              1 COMMON     4     2      2
                   _SPI_exchangeByte
 ---------------------------------------------------------------------------------
 (2) _RF24_getDynamicPayloadSize                           3     3      0    3714
                                              8 COMMON     3     3      0
                      _RF24_flush_rx
                 _RF24_read_register
 ---------------------------------------------------------------------------------
 (2) _RF24_available                                       3     3      0      65
                                              2 COMMON     3     3      0
                    _RF24_get_status
 ---------------------------------------------------------------------------------
 (5) _RF24_get_status                                      1     1      0      31
                                              1 COMMON     1     1      0
                   _SPI_exchangeByte
 ---------------------------------------------------------------------------------
 (1) _Serial_begin                                        18    14      4     836
                                              9 COMMON     2     2      0
                                              6 BANK0     16    12      4
                            ___aldiv
 ---------------------------------------------------------------------------------
 (2) ___aldiv                                             15     7      8     604
                                              0 COMMON     9     1      8
                                              0 BANK0      6     6      0
 ---------------------------------------------------------------------------------
 (1) _SPI_initialize                                       0     0      0       0
 ---------------------------------------------------------------------------------
 (1) _RF24_isChipConnected                                 2     2      0     161
                                              4 COMMON     2     2      0
                 _RF24_read_register
 ---------------------------------------------------------------------------------
 (1) _Network_begin                                        1     1      0   67332
                                             12 COMMON     1     1      0
                         _RF24_begin
         _RF24_enableDynamicPayloads
                    _RF24_getPALevel
               _RF24_openReadingPipe
               _RF24_setAddressWidth
                    _RF24_setAutoAck
                  _RF24_setCRCLength
                   _RF24_setDataRate
                _RF24_setPayloadSize
                _RF24_startListening
 ---------------------------------------------------------------------------------
 (4) _RF24_startListening                                  1     1      0    3649
                                              7 COMMON     1     1      0
                 _RF24_read_register
                _RF24_write_register
 ---------------------------------------------------------------------------------
 (2) _RF24_setCRCLength                                    2     2      0    3615
                                              7 COMMON     2     2      0
                _RF24_write_register
 ---------------------------------------------------------------------------------
 (2) _RF24_setAutoAck                                      2     2      0    3584
                                              7 COMMON     2     2      0
                _RF24_write_register
 ---------------------------------------------------------------------------------
 (4) _RF24_openReadingPipe                                 5     3      2    5045
                                              7 COMMON     5     3      2
                 _RF24_read_register
              _RF24_write_n_register
                _RF24_write_register
 ---------------------------------------------------------------------------------
 (5) _RF24_write_n_register                                5     2      3     490
                                              1 COMMON     5     2      3
                   _SPI_exchangeByte
 ---------------------------------------------------------------------------------
 (2) _RF24_getPALevel                                      1     0      1      96
                                              4 COMMON     1     0      1
                 _RF24_read_register
 ---------------------------------------------------------------------------------
 (2) _RF24_enableDynamicPayloads                           1     1      0    3649
                                              7 COMMON     1     1      0
                 _RF24_read_register
                _RF24_write_register
 ---------------------------------------------------------------------------------
 (2) _RF24_begin                                           3     3      0   36586
                                              0 BANK0      3     3      0
                      _RF24_flush_rx
                      _RF24_flush_tx
                       _RF24_powerUp
                 _RF24_read_register
               _RF24_setAddressWidth
                    _RF24_setChannel
                   _RF24_setDataRate
                    _RF24_setPALevel
                _RF24_setPayloadSize
                    _RF24_setRetries
                _RF24_write_register
 ---------------------------------------------------------------------------------
 (3) _RF24_setRetries                                      5     4      1    3705
                                              7 COMMON     5     4      1
                _RF24_write_register
 ---------------------------------------------------------------------------------
 (2) _RF24_setPayloadSize                                  2     2      0    3739
                                              7 COMMON     2     2      0
                _RF24_write_register
 ---------------------------------------------------------------------------------
 (3) _RF24_setPALevel                                      5     5      0    3785
                                              7 COMMON     5     5      0
                 _RF24_read_register
                _RF24_write_register
 ---------------------------------------------------------------------------------
 (2) _RF24_setDataRate                                     3     3      0    3785
                                              7 COMMON     3     3      0
                 _RF24_read_register
                _RF24_write_register
 ---------------------------------------------------------------------------------
 (2) _RF24_setChannel                                      2     2      0    3584
                                              7 COMMON     2     2      0
                _RF24_write_register
 ---------------------------------------------------------------------------------
 (2) _RF24_setAddressWidth                                 2     2      0    3584
                                              7 COMMON     2     2      0
                _RF24_write_register
 ---------------------------------------------------------------------------------
 (3) _RF24_powerUp                                         2     2      0    3649
                                              7 COMMON     2     2      0
                 _RF24_read_register
                _RF24_write_register
 ---------------------------------------------------------------------------------
 (5) _RF24_read_register                                   3     3      0      96
                                              1 COMMON     3     3      0
                   _SPI_exchangeByte
 ---------------------------------------------------------------------------------
 (5) _RF24_flush_tx                                        1     1      0    3553
                                              7 COMMON     1     1      0
                _RF24_write_register
 ---------------------------------------------------------------------------------
 (3) _RF24_flush_rx                                        1     1      0    3553
                                              7 COMMON     1     1      0
                _RF24_write_register
 ---------------------------------------------------------------------------------
 (5) _RF24_write_register                                  3     2      1    3553
                                              4 COMMON     3     2      1
                 _RF24_read_register (ARG)
                   _SPI_exchangeByte
 ---------------------------------------------------------------------------------
 (5) _SPI_exchangeByte                                     1     1      0      31
                                              0 COMMON     1     1      0
 ---------------------------------------------------------------------------------
 Estimated maximum stack depth 6
 ---------------------------------------------------------------------------------

 Call Graph Graphs:

 _main (ROOT)
   _Network_begin
     _RF24_begin
       _RF24_flush_rx
         _RF24_write_register
           _RF24_read_register (ARG)
             _SPI_exchangeByte
           _SPI_exchangeByte (ARG)
       _RF24_flush_tx
         _RF24_write_register
       _RF24_powerUp
         _RF24_read_register
         _RF24_write_register
       _RF24_read_register
       _RF24_setAddressWidth
         _RF24_write_register
       _RF24_setChannel
         _RF24_write_register
       _RF24_setDataRate
         _RF24_read_register
         _RF24_write_register
       _RF24_setPALevel
         _RF24_read_register
         _RF24_write_register
       _RF24_setPayloadSize
         _RF24_write_register
       _RF24_setRetries
         _RF24_write_register
       _RF24_write_register
     _RF24_enableDynamicPayloads
       _RF24_read_register
       _RF24_write_register
     _RF24_getPALevel
       _RF24_read_register
     _RF24_openReadingPipe
       _RF24_read_register
       _RF24_write_n_register
         _SPI_exchangeByte
       _RF24_write_register
     _RF24_setAddressWidth
     _RF24_setAutoAck
       _RF24_write_register
     _RF24_setCRCLength
       _RF24_write_register
     _RF24_setDataRate
     _RF24_setPayloadSize
     _RF24_startListening
       _RF24_read_register
       _RF24_write_register
   _RF24_isChipConnected
     _RF24_read_register
   _SPI_initialize
   _Serial_begin
     ___aldiv
   _internet_process
     _RF24_available
       _RF24_get_status
         _SPI_exchangeByte
     _RF24_getDynamicPayloadSize
       _RF24_flush_rx
       _RF24_read_register
     _RF24_read
       _RF24_read_n_register
         _SPI_exchangeByte
       _RF24_write_register
     _internet_rx
       _internet_relay
         _RF24_openReadingPipe
         _RF24_openWritingPipe
           _RF24_write_n_register
         _RF24_startListening
         _RF24_stopListening
           _RF24_read_register
           _RF24_write_register
         _RF24_write
           _RF24_flush_tx
           _RF24_get_status
           _RF24_write_register
           _SPI_exchangeByte
         _Serial_write
         __$_logline_str
           _Serial_write
         _internet_calculateMask
         _internet_hasChild
       _transport_udp_rx
         _transport_udp_process
           _Serial_write
           __$_logline_int
             _Serial_write
             ___awdiv
             ___awmod
               ___lbdiv (ARG)
             ___lbdiv
           __$_logline_str
   _internet_setAddress
     _internet_calculateMask
     _internet_setNetworkPipe
       _RF24_openReadingPipe
       _memcpy
   _internet_setChannel
     _RF24_setChannel
   _internet_setNetworkPipe
   _memcpy
   _transport_udp_tx
     _internet_tx
       _internet_relay

 Address spaces:
Name               Size   Autos  Total    Cost      Usage
BANK3               60      0       0       9        0.0%
BITBANK3            60      0       0       8        0.0%
SFR3                 0      0       0       4        0.0%
BITSFR3              0      0       0       4        0.0%
BANK2               60      0       0      11        0.0%
BITBANK2            60      0       0      10        0.0%
SFR2                 0      0       0       5        0.0%
BITSFR2              0      0       0       5        0.0%
BANK1               50      0      40       7       80.0%
BITBANK1            50      0       0       6        0.0%
SFR1                 0      0       0       2        0.0%
BITSFR1              0      0       0       2        0.0%
BANK0               50     1D      2F       5       58.8%
BITBANK0            50      0       0       4        0.0%
SFR0                 0      0       0       1        0.0%
BITSFR0              0      0       0       1        0.0%
COMMON               E      E       E       1      100.0%
BITCOMMON            E      0       0       0        0.0%
CODE                 0      0       0       0        0.0%
DATA                 0      0      7D      12        0.0%
ABS                  0      0      7D       3        0.0%
NULL                 0      0       0       0        0.0%
STACK                0      0       0       2        0.0%
EEDATA             100      0       0       0        0.0%


Microchip Technology PIC Macro Assembler V2.35 build 20211206165544 
Symbol Table                                                                                   Wed Feb 23 10:45:54 2022

              transport_udp_tx@size 0027          internet_calculateMask@mask 0071  
                       ?_RF24_write 0078                       ?_RF24_powerUp 0070  
                                 pc 0002               ??_RF24_setPayloadSize 0077  
                                l69 0437             transport_udp_tx@payload 002C  
                      ___awdiv@sign 0076                  RF24_available@pipe 0074  
                                fsr 0004         RF24_write_n_register@buffer 0071  
              _RF24_openWritingPipe 0D45         RF24_write_n_register@length 0073  
                  _SPI_exchangeByte 0D13                                 l230 003D  
                               l240 0181                                 l224 0CF4  
                               l233 0EAC                                 l410 0F0E  
                               l250 07CC                                 l260 0011  
                               l236 0ECC                                 l422 0246  
                               l414 0D9C                                 l351 0D86  
                               l335 0FFC                                 l263 0144  
                               l344 00CE                                 l520 0D75  
                               l336 0FFF                                 l361 0FD4  
                               l345 00D1                                 l417 0E36  
                               l354 0604                                 l266 0D64  
                               l610 030C                                 l523 0D18  
                               l339 0E6E                                 l371 0F80  
                               l348 0DE8                                 l380 01BF  
                               l428 0EED                                 l436 0DB5  
                               l604 006E                                 l525 0D1C  
                               l461 0F30                                 l269 0200  
                               l365 0DCE                                 l541 009F  
                               l526 0D1E                                 l470 0D07  
                               l614 0303                                 l447 0F58  
                               l391 0279                                 l368 0E8C  
                               l544 0E51                                 l377 0E02  
                               l393 0291                                 l617 034F  
                               l482 0D54                                 l810 02EA  
                               l467 0D12                                 l491 0E1C  
                               l459 0F24                                 l476 0D2A  
                               l388 026B                                 l709 04D7  
                               l573 06DE                                 l494 0D44  
                               l719 055F                                 l488 0CEC  
                               l585 0D2C                                 l850 0FA9  
                               l588 0D36                                 l797 03B6  
                               _RD1 0041                                 _RD2 0042  
                               _RD3 0043            internet_hasChild@address 0071  
                               fsr0 0004                                 indf 0000  
                      ___awmod@sign 007B                     ?__$_logline_int 0070  
                   ?__$_logline_str 0071               RF24_setAddressWidth@w 0078  
                   ?_internet_relay 0020                                l3002 0F0D  
                              l3010 0148                                l3100 0D9E  
                              l3012 014C                                l3102 0DA3  
                              l3110 01C0                                l3030 0D93  
                              l3006 0E1E                                l3014 0156  
                              l3022 016C                                l3104 0DAE  
                              l3120 01FB                                l3112 01DC  
                              l2400 04DB                                l3032 0D99  
                              l3008 0E2C                                l3040 0EB0  
                              l3200 04BA                                l3050 0568  
                              l3106 0CE6                                l3114 01E6  
                              l2410 04FD                                l2402 04E6  
                              l3018 0161                                l1098 0109  
                              l3130 0121                                l3122 0CEE  
                              l3042 0EB4                                l3060 05A1  
                              l3052 0582                                l3116 01EC  
                              l3140 0DC5                                l2420 0537  
                              l2412 050A                                l2404 04EA  
                              l3036 0D9B                                l3028 0D87  
                              l3132 012F                                l3124 010D  
                              l3044 0EBB                                l3070 05CC  
                              l3062 05A8                                l3054 058E  
                              l3118 01F5                                l3142 0DCB  
                              l2430 0557                                l2422 0538  
                              l2414 050E                                l2406 04F2  
                              l3222 0176                                l3134 013E  
                              l3126 0111                                l3046 0EC2  
                              l3150 0072                                l2600 0DE5  
                              l3080 05F4                                l3072 05D2  
                              l3064 05B4                                l3056 0594  
                              l3048 0560                                l3136 0DB6  
                              l2424 0541                                l2416 0517  
                              l2408 04FA                                l2440 06C0  
                              l3128 011C                                l3160 0095  
                              l3152 0076                                l3082 05F9  
                              l3074 05DE                                l3066 05C0  
                              l3058 059A                                l3090 0F17  
                              l3146 0DCD                                l3138 0DC0  
                              l2418 0529                                l2426 0547  
                              l2450 06D4                                l2442 06C3  
                              l2434 0605                                l2610 035C  
                              l2602 0350                                l3170 0033  
                              l3162 0012                                l3154 007B  
                              l3076 05E3                                l3068 05C6  
                              l2460 0D65                                l2428 054C  
                              l2452 06D7                                l2444 06CC  
                              l2436 065E                                l2620 0371  
                              l2612 0360                                l2604 0351  
                              l2700 0F9F                                l3164 0013  
                              l3156 0082                                l3180 044D  
                              l3172 0438                                l3078 05E8  
                              l3086 0ECD                                l3094 0F1D  
                              l2470 0D6F                                l2462 0D68  
                              l2454 06D8                                l2446 06D0  
                              l2438 0667                                l2710 003E  
                              l2630 0394                                l2622 0374  
                              l2614 0365                                l2606 0355  
                              l2702 0FA0                                l3166 001D  
                              l3158 008A                                l3190 0469  
                              l3182 0452                                l3174 043C  
                              l3096 0F22                                l3088 0F10  
                              l2464 0D6C                                l2456 06DB  
                              l2448 06D1                                l2712 0043  
                              l2640 03AD                                l2632 039A  
                              l2624 037B                                l2616 0369  
                              l2608 035A                                l2704 0FA2  
                              l2720 02EE                                l2800 0431  
                              l3168 0027                                l3192 0478  
                              l3184 0457                                l3176 043D  
                              l2802 0202                                l3098 0F26  
                              l2466 0D6D                                l2394 04C3  
                              l2714 0051                                l2810 0004  
                              l2642 03B2                                l2634 039B  
                              l2626 037F                                l2618 036B  
                              l2650 0297                                l2706 0FA8  
                              l2730 0310                                l2722 02F4  
                              l3194 048B                                l3186 045D  
                              l3178 043E                                l2740 0E6A  
                              l2804 0208                                l2468 0D6E  
                              l2396 04C6                                l2716 0057  
                              l2812 0006                                l2900 074C  
                              l2636 03A2                                l2628 0383  
                              l2660 02AD                                l2652 029C  
                              l2732 0332                                l2724 02FA  
                              l3196 0495                                l3188 0463  
                              l2742 0E6D                                l2750 00B1  
                              l2806 0218                                l2398 04CA  
                              l2830 0F5C                                l2590 0D2C  
                              l2718 0067                                l2814 0008  
                              l2822 0D56                                l2910 0771  
                              l2902 0750                                l2638 03A8  
                              l2670 02C9                                l2662 02B0  
                              l2654 029E                                l2646 0292  
                              l2734 034A                                l2726 02FF  
                              l3198 04AB                                l2584 0D14  
                              l2736 0E53                                l2752 00C1  
                              l2808 022D                                l2760 0D79  
                              l2832 0F7C                                l2840 0260  
                              l2592 0D32                                l2816 000A  
                              l2920 0797                                l2904 075A  
                              l2912 077C                                l2680 02E6  
                              l2672 02CF                                l2664 02B7  
                              l2656 02A2                                l2648 0293  
                              l2728 0308                                l2586 0D1D  
                              l2594 0DD0                                l2738 0E56  
                              l2754 00C7                                l2746 00A1  
                              l2762 0D84                                l2826 0D46  
                              l2850 028C                                l2842 0264  
                              l2834 0248                                l2818 0010  
                              l2922 07A0                                l2914 0782  
                              l2906 0760                                l2930 07C7  
                              l2674 02D6                                l2666 02BB  
                              l2658 02A7                                l2690 0F8B  
                              l2770 03B7                internet_process@size 0039  
                              l2596 0DD3                                l2940 0F3B  
                              l2756 00C9                                l2748 00A4  
                              l2764 0D85                                l2828 0F59  
                              l2844 026F                                l2836 024B  
                              l2924 07AB                                l2916 078C  
                              l2908 0765                                l2668 02BF  
                              l2676 02DC                                l2692 0F8D  
                              l2684 0F82                                l2780 03E8  
                              l2772 03BD                                l2932 0E3A  
                              l2860 00D7                                l2598 0DDF  
                              l2950 0F4E                                l2942 0F40  
                              l2854 0E6F                                l2758 0D76  
                              l2846 027C                                l2838 0257  
                              l2926 07B1                                l2918 0792  
                              l2678 02E1                                l2694 0F91  
                              l2686 0F83                                l2790 040C  
                              l2782 03EE                                l2774 03C6  
                              l2934 0E3E                                l2862 00DC  
                              l2870 00FB                                l2768 0D08  
                              l2936 0D38                                l2872 0D20  
                              l2944 0F46                                l2952 0183  
                              l2856 0E89                                l2960 0FF1  
                              l2848 0286                                l2928 07BD  
                              l2880 06EC                                l2696 0F95  
                              l2688 0F88                                l2792 0414  
                              l2784 03F7                                l2776 03D6  
                              l2864 00EA                                l2946 0F48  
                              l2938 0F32                                l2970 0FBB  
                              l2962 0FF5                                l2954 0FD6  
                              l2890 0720                                l2882 06FB  
                              l2874 06E2                                l2698 0F9D  
                              l2794 041A                                l2786 03FD  
                              l2778 03DF                                l2866 00F0  
                              l2858 00D3                                l2980 0DE9  
                              l2948 0F4D                                l2972 0FC0  
                              l2964 0E04                                l2956 0FD9  
                              l2892 072A                                l2884 0701  
                              l2876 06E6                                l2796 0423  
                              l2788 0406                                l2868 00F7  
                              l2982 0DF9                                l2974 0FC4  
                              l2966 0FAB                                l2990 0EEE  
                              l2958 0FE5                                l2894 0730  
                              l2886 0710                                l2798 0429  
                              l2976 0FCA                                l2968 0FB5  
                              l2992 0EF7                                l2896 0735  
                              l2888 071C                                l2984 0E8E  
                              l2978 0CFD                                l2994 0EFD  
                              l2898 0741                                l2986 0E9C  
                              l2996 0F02                                l2988 0EA2  
                              l2998 0F0B                                STR_1 0907  
                              STR_2 08D0                                STR_3 0862  
                              STR_4 08B2                                STR_5 08BA  
                              STR_6 0896                                STR_7 084B  
                              STR_8 08C2                                STR_9 08FB  
                              _BRGH 04C2                                _CREN 00C4  
                              u2000 028C                                u2001 028B  
                              u2010 0109                                u2011 0108  
                              u2100 0FBB                                u2020 06EB  
                              u2101 0FBA                                u2021 06EA  
                              u2110 0EFD                                u2030 0701  
                              u2111 0EFC                                u2031 0700  
                              u2200 0DCB                                u2040 0710  
                              u2120 0156                                u2201 0DCA  
                              u2041 070F                                u2121 0155  
                              u1410 050E                                u2130 0D99  
                              u2050 071C                                u2210 003D  
                              u1411 050D                                u2131 0D98  
                              u2051 071B                                u2211 003C  
                              u2060 0F46                                u2140 0F1C  
                              u1500 0667                                u2220 0495  
                              u2061 0F45                                u2141 0F1B  
                              u1405 04FF                                u1501 0666  
                              u2221 0494                                u2070 0F4D  
                              u2150 0F22                                u1430 0529  
                              u1510 0677                                u2071 0F4C  
                              u2151 0F21                                u1431 0528  
                              u2160 0DA3                                u1520 0690  
                              u2080 0FFC                                u2161 0DA2  
                              u1425 0510                                u2081 0FFB  
                              u1610 0D1C                                u1450 0547  
                              u1370 04CA                                u1611 0D1B  
                              u2307 0DFD                                u1451 0546  
                              u1435 0525                                u1371 04C9  
                              u1531 06A2                                u1515 0672  
                              u1460 054C                                u1380 04DB  
                              u1540 06CC                                u1532 06A3  
                              u1620 0D32                                u1461 054B  
                              u1445 0539                                u1381 04DA  
                              u1541 06CB                                u1533 06A8  
                              u1525 068B                                u1621 0D31  
                              u2237 0484                                u2190 0DC5  
                              u1390 04FA                                u1534 06A9  
                              u1470 0615                                u1710 03A8  
                              u1630 0355                                u2095 0E0B  
                              u2191 0DC4                                u1391 04F9  
                              u1535 06AE                                u1711 03A7  
                              u1631 0354                                u2175 0124  
                              u2247 04B3                                u1536 06AF  
                              u1480 062E                                u1720 03AD  
                              u1640 0360                                u1800 02DC  
                              u1721 03AC                                u1705 039C  
                              u1641 035F                                u1801 02DB  
                              u2257 03D0                                u2185 0132  
                              u1650 0371                                u1810 02E1  
                              u1730 0297                                u1491 0640  
                              u1475 0610                                u2267 0F7E  
                              u1651 0370                                u1811 02E0  
                              u1731 0296                                u1492 0641  
                              u1740 02A2                                u1820 0F88  
                              u1900 034F                                u1493 0646  
                              u1485 0629                                u2277 0F06  
                              u1741 02A1                                u1821 0F87  
                              u1901 034E                                u1910 00CE  
                              u1494 0647                                u1670 0383  
                              u1750 02AD                                u1830 0F95  
                              u2287 0570                                u1911 00CD  
                              u1495 064C                                u1671 0382  
                              u1751 02AC                                u1831 0F94  
                              u1496 064D                                u1840 0F9D  
                              u1920 03C6                                u2297 057D  
                              u1665 0375                                u1841 0F9C  
                              u1921 03C5                                u1930 0208  
                              u1690 0394                                u1770 02BF  
                              u1850 0FA8                                u1931 0207  
                              u1691 0393                                u1771 02BE  
                              u1851 0FA7                                u1860 0067  
                              u1780 02C9                                u1861 0066  
                              u1685 0384                                u1781 02C8  
                              u1765 02B1                                u1870 006E  
                              u1950 0010                                u1871 006D  
                              u1951 000F                                u1695 0390  
                              u1944 0233                                u1960 0D63  
                              u1880 02F4                                u1945 0231  
                              u1961 0D61                                u1785 02C5  
                              u1881 02F3                                u1970 0D64  
                              u1890 02FA                                u1795 02D0  
                              u1891 02F9                                u1980 026B  
                              u1981 026A                                u1990 0279  
                              u1991 0278                                _SPEN 00C7  
                              _TRMT 04C1                                _TXEN 04C5  
                              _SYNC 04C4     RF24_read_register@mnemonic_addr 0072  
      __end_of_RF24_setAddressWidth 0D45                                _main 0438  
                              _node 003D                                btemp 007E  
       ?_RF24_enableDynamicPayloads 0070                        RF24_read@buf 007A  
                      RF24_read@len 0077                                start 0000  
               _internet_setAddress 010A                 _internet_setChannel 0CED  
                    ??_RF24_powerUp 0077               ?_RF24_openWritingPipe 0070  
                   __end_of___aldiv 0560                               ?_main 0070  
                   __end_of___awdiv 03B7                     __end_of___lbdiv 0FAA  
                             STR_10 088C                               STR_11 08A9  
                             STR_20 08E9                               STR_12 0876  
                             STR_13 0901                               STR_21 08EF  
                             STR_22 08F5                               STR_14 08A0  
                             STR_15 08C9                               STR_16 0881  
                             STR_24 0834                               STR_17 08D7  
                             STR_18 08DD                               STR_19 08E3  
                   __end_of___awmod 02EB                     ___awdiv@divisor 0070  
                   ___awdiv@counter 0075       __end_of_transport_udp_process 0438  
                             _SPBRG 0099                ?_internet_setAddress 0070  
                             _TRISB 0086                               _SSPEN 00A5  
                             _SSPIF 0063                               _TXREG 0019  
              ?_internet_setChannel 0070             RF24_read_n_register@buf 0071  
                             _nRBPU 040F             RF24_read_n_register@len 0072  
      ??_RF24_getDynamicPayloadSize 0078              ?_RF24_write_n_register 0071  
                 __end_of_BASE_PIPE 0834                               pclath 000A  
                   ??_RF24_flush_rx 0077                     ??_RF24_flush_tx 0077  
                             status 0003                               wtemp0 007E  
                   ___lbdiv@divisor 0070            __end_of_transport_udp_rx 0E52  
          __end_of_transport_udp_tx 00A0                     ___lbdiv@counter 0073  
                      ?_internet_rx 0033                        ?_internet_tx 0024  
                   __initialization 07CD                        __end_of_main 04C3  
       transport_udp_tx@destination 0028                   ?_internet_process 0070  
                ??_internet_process 0038          internet_relay@packetHeader 0022  
                            ??_main 003A           RF24_openReadingPipe@child 007B  
                 __end_of_RF24_read 0E37               ??_internet_setAddress 0020  
             ??_internet_setChannel 0079                      _BROADCAST_PIPE 0822  
                  ___awdiv@dividend 0072       internet_calculateMask@address 0070  
                            _TRISD1 0441                              _TRISC3 043B  
                            _TRISD2 0442                              _TRISC4 043C  
                            _TRISD3 0443                              _TRISC5 043D  
                            _TRISC6 043E                              _TRISC7 043F  
                            _SSPCON 0014                              _SSPBUF 0013  
                     RF24_write@buf 007A                       RF24_write@len 0078  
           RF24_setCRCLength@length 0078                    ??_RF24_available 0072  
                         ??___aldiv 0078                           ??___awdiv 0074  
                         ??___lbdiv 0071                           ??___awmod 0079  
            ??_RF24_openWritingPipe 0076                SPI_exchangeByte@byte 0070  
                            _memcpy 00D2                    ___awdiv@quotient 0077  
                   ___awmod@divisor 0075                     ___awmod@counter 007A  
              _RF24_setAddressWidth 0D37              __end_of_BROADCAST_PIPE 0827  
                 _internet_hasChild 0D55                __end_of_RF24_powerUp 0E03  
                  ___lbdiv@dividend 0072                  ?_internet_hasChild 0070  
      __end_of_RF24_isChipConnected 0DCF          __end_of_RF24_stopListening 0F81  
           __end_of__initialization 07FC               RF24_setDataRate@speed 0078  
             RF24_setDataRate@setup 0079            __end_of_SPI_exchangeByte 0D1F  
       __end_of_RF24_startListening 0E8D            ??_internet_calculateMask 0070  
             RF24_setAutoAck@enable 0078                        ??_RF24_begin 0020  
               ??_internet_hasChild 0070                        ??_RF24_write 0079  
                    __pcstackCOMMON 0070  RF24_write_n_register@mnemonic_addr 0075  
                      __pidataBANK0 0CE1     transport_udp_tx@destinationPort 002A  
                    _SPI_initialize 0D65                    ??__$_logline_int 0020  
                  ??__$_logline_str 0073                    ___lbdiv@quotient 0074  
                  ??_internet_relay 007C               ?_RF24_setAddressWidth 0070  
           _internet_setNetworkPipe 0E8D           __end_of_internet_hasChild 0D65  
__end_of_RF24_getDynamicPayloadSize 0F0F          _RF24_getDynamicPayloadSize 0EEE  
                __end_of_RF24_begin 0605                  __end_of_RF24_write 0292  
                        __pbssBANK0 003D                          __pbssBANK1 00A0  
                     ?_Serial_begin 0026             internet_tx@packetHeader 0025  
                     ?_Serial_write 0070         __end_of_RF24_setPayloadSize 01C0  
                        __pmaintext 0438              __end_of_SPI_initialize 0D76  
                __end_of_LOGLINE_OK 082F                             ?_memcpy 0070  
              __end_of_LOGLINE_FAIL 082C                RF24_setPALevel@level 007B  
              RF24_setPALevel@setup 0079             ??_RF24_write_n_register 0074  
                 ??_RF24_getPALevel 0075                    _RF24_attr_config 0042  
                           _SSPSTAT 0094                          __stringtab 0800  
                    ??_Serial_begin 002A                    _RF24_attr_status 0043  
                    ??_Serial_write 0070                           _BASE_PIPE 082F  
                 ?_transport_udp_rx 002E                   ?_transport_udp_tx 0027  
                ??_transport_udp_rx 002F                  ??_transport_udp_tx 002B  
                   ?_SPI_initialize 0070                             ___aldiv 04C3  
                     Serial_begin@x 0079                             ___awdiv 0350  
                           ___lbdiv 0F81                             ___awmod 0292  
         ??_internet_setNetworkPipe 007C          __end_of_RF24_read_register 0E6F  
            ??_RF24_setAddressWidth 0077                _RF24_isChipConnected 0DB6  
                           __ptext1 006F                             __ptext2 0EAD  
                           __ptext3 0CED                             __ptext4 010A  
                           __ptext5 0E8D                             __ptext6 00D2  
                           __ptext7 0012                             __ptext8 0145  
                           __ptext9 0E37                   ??_RF24_get_status 0071  
      transport_udp_tx@packetHeader 002D                    ___awmod@dividend 0077  
                  ___aldiv@dividend 0074                           _RF24_read 0E1D  
             _transport_udp_process 03B7                 _RF24_setPALevel$598 007A  
                           clrloop0 0CF6                  __$_logline_int$765 0023  
                __$_logline_int$766 0025                end_of_initialization 07FC  
              RF24_setRetries@delay 007B                RF24_setRetries@count 0077  
      transport_udp_process@payload 007C                             memcpy@d 0078  
                           memcpy@n 0072                             memcpy@s 0076  
             __end_of_RF24_flush_rx 0D08               __end_of_RF24_flush_tx 0D13  
                  _RF24_setDataRate 0F31    RF24_getDynamicPayloadSize@result 007A  
                     _Network_begin 01C0                    ___aldiv@quotient 0022  
                 ??_RF24_setPALevel 0077                        _RF24_powerUp 0DE9  
       __end_of_internet_setAddress 0145                        __pstringtext 0800  
       __end_of_internet_setChannel 0CF5               ?_RF24_isChipConnected 0070  
                 ??_RF24_setChannel 0077                    Serial_write@data 0070  
                 ??_RF24_setAutoAck 0077              _internet_calculateMask 0003  
                        ?_RF24_read 0077                   ??_RF24_setRetries 0078  
               _RF24_write_register 0DCF     __end_of_internet_setNetworkPipe 0EAD  
                 ?_SPI_exchangeByte 0070                      ?_Network_begin 0070  
                ??_SPI_exchangeByte 0070                ?_RF24_write_register 0074  
                _RF24_stopListening 0F59           RF24_isChipConnected@width 0075  
              __end_of_Serial_begin 06DF                      __end_of_memcpy 010A  
        internet_setChannel@channel 0079                __end_of_Serial_write 0D37  
               ?_RF24_stopListening 0070              ?_transport_udp_process 0029  
               start_initialization 07CD   RF24_read_n_register@mnemonic_addr 0074  
       ?_RF24_getDynamicPayloadSize 0070            RF24_write_register@value 0074  
                      _LOGLINE_FAIL 0827        __end_of_RF24_openReadingPipe 0247  
              ??_RF24_stopListening 0077        ??_RF24_enableDynamicPayloads 0077  
             ??_RF24_write_register 0075              ??_RF24_isChipConnected 0074  
       RF24_openReadingPipe@address 0077                         __pdataBANK0 004A  
      __end_of_RF24_read_n_register 1000                    __$_logline_int@t 0028  
                  __$_logline_int@v 0027                            ??_memcpy 0074  
                   _RF24_getPALevel 0CE6    RF24_write_register@mnemonic_addr 0076  
                         ___latbits 0002                       __pcstackBANK0 0020  
                       ??_RF24_read 0078       __end_of_RF24_write_n_register 00D2  
                  _internet_process 0012                     ??_Network_begin 007C  
                  ??_SPI_initialize 0070                       ??_internet_rx 0034  
                     ??_internet_tx 007D                     _RF24_get_status 0D76  
                          ?___aldiv 0070                            ?___awdiv 0070  
                          ?___lbdiv 0070                            ?___awmod 0075  
                         _buffer_rx 00A0                           _buffer_tx 00C0  
          __end_of_RF24_setDataRate 0F59            RF24_read_register@result 0073  
             internet_relay@dstMask 0021               internet_relay@payload 0023  
                _RF24_read_register 0E52                  internet_relay@size 0020  
                   internet_rx@size 0033                     _RF24_setPALevel 0FAA  
                   ___aldiv@divisor 0070                     internet_tx@size 0024  
                internet_rx@payload 0037                     ___aldiv@counter 0020  
               ?_RF24_read_register 0070                           clear_ram0 0CF5  
             __$_logline_str@string 0071                     _RF24_setChannel 0D1F  
           __end_of_RF24_getPALevel 0CED                  internet_tx@payload 0026  
                   _RF24_setAutoAck 0D9D           transport_udp_process@data 007D  
         transport_udp_process@port 002A           transport_udp_process@size 0029  
               __end_of_internet_rx 0182                 __end_of_internet_tx 0ECD  
           ?_internet_calculateMask 0070                     _RF24_setRetries 0E03  
                       __stringbase 0812                _RF24_openReadingPipe 0201  
              ??_RF24_read_register 0071              RF24_setChannel@channel 0078  
       internet_setNetworkPipe@pipe 007D             internet_rx@packetHeader 0036  
       RF24_openWritingPipe@address 0077                _RF24_read_n_register 0FD5  
           __end_of_RF24_get_status 0D87                        _Serial_begin 0605  
           RF24_setPayloadSize@size 0078  __end_of_RF24_enableDynamicPayloads 0EEE  
        _RF24_enableDynamicPayloads 0ECD                        _Serial_write 0D2B  
          ?_internet_setNetworkPipe 0070                           memcpy@tmp 0075  
        internet_setAddress@address 0022    __end_of_LOGLINE_CONVERSION_TABLE 0822  
    __end_of_internet_calculateMask 0012                        _network_pipe 004A  
                 _RF24_setCRCLength 0F0F             ??_transport_udp_process 002B  
                __end_of__stringtab 0812               ?_RF24_openReadingPipe 0077  
                    _RF24_available 0D87                  ?_RF24_setCRCLength 0070  
           __end_of_RF24_setPALevel 0FD5                            __ptext10 03B7  
                          __ptext11 02EB                            __ptext20 0247  
                          __ptext12 0F81                            __ptext21 0F59  
                          __ptext13 0292                            __ptext30 0D65  
                          __ptext22 0D45                            __ptext14 0350  
                          __ptext31 0DB6                            __ptext23 0E1D  
                          __ptext15 06DF                            __ptext40 0560  
                          __ptext32 01C0                            __ptext24 0FD5  
                          __ptext16 0D55                            __ptext41 0E03  
                          __ptext33 0E6F                            __ptext25 0EEE  
                          __ptext17 0003                            __ptext50 0CFD  
                          __ptext42 0182                            __ptext34 0F0F  
                          __ptext26 0D87                            __ptext18 003E  
                          __ptext51 0DCF                            __ptext43 0FAA  
                          __ptext35 0D9D                            __ptext27 0D76  
                          __ptext19 0D2B                            __ptext52 0D13  
                          __ptext44 0F31                            __ptext36 0201  
                          __ptext28 0605                            __ptext45 0D1F  
                          __ptext37 00A0                            __ptext29 04C3  
                          __ptext46 0D37                            __ptext38 0CE6  
                          __ptext47 0DE9                            __ptext39 0ECD  
                          __ptext48 0E52                            __ptext49 0D08  
               ??_RF24_setCRCLength 0077                 _RF24_startListening 0E6F  
           __end_of_RF24_setChannel 0D2B        __end_of_RF24_openWritingPipe 0D55  
             ?_RF24_read_n_register 0071             __end_of_RF24_setAutoAck 0DB6  
              __$_logline_str@limit 0074                          _RF24_begin 0560  
                       _internet_rx 0145                         _internet_tx 0EAD  
           __end_of_RF24_setRetries 0E1D                    ?_RF24_getPALevel 0074  
                        _RF24_write 0247            __end_of_internet_process 003E  
              ?_RF24_startListening 0070           __end_of_RF24_setCRCLength 0F31  
            __end_of_RF24_available 0D9D        transport_udp_rx@packetHeader 0031  
                  _transport_udp_rx 0E37                    _transport_udp_tx 006F  
                        _LOGLINE_OK 082C                            memcpy@d1 0079  
                          memcpy@s1 0070                      __$_logline_int 02EB  
                    __$_logline_str 003E                         _networkInfo 0044  
                    _internet_relay 06DF                Serial_begin@baudrate 0026  
               _RF24_setPayloadSize 0182                    ?_RF24_get_status 0070  
       __end_of_RF24_write_register 0DE9                       _RF24_flush_rx 0CFD  
                     _RF24_flush_tx 0D08                           stringcode 080A  
             ??_RF24_startListening 0077          transport_udp_tx@sourcePort 0029  
              ?_RF24_setPayloadSize 0070              ??_RF24_openReadingPipe 0079  
                   ?_RF24_available 0070            _LOGLINE_CONVERSION_TABLE 0812  
                 ?_RF24_setDataRate 0070              __end_of__$_logline_int 0350  
            __end_of__$_logline_str 006F                            stringtab 0800  
                      ___aldiv@sign 0021                  ??_RF24_setDataRate 0077  
            __end_of_internet_relay 07CD                    ?_RF24_setPALevel 0070  
            ??_RF24_read_n_register 0073                    ?_RF24_setChannel 0070  
             _RF24_write_n_register 00A0                    ?_RF24_setAutoAck 0070  
                    ?_RF24_flush_rx 0070                      ?_RF24_flush_tx 0070  
             __end_of_Network_begin 0201             transport_udp_rx@payload 0032  
                       ?_RF24_begin 0070                transport_udp_rx@size 002E  
                  ?_RF24_setRetries 0077  
