

Microchip MPLAB XC8 Assembler V2.35 build 20211206165544 
                                                                                               Fri Mar 18 16:05:42 2022

Microchip MPLAB XC8 C Compiler v2.35 (Free license) build 20211206165544 Og1 
     1                           	processor	16F877A
     2                           	pagewidth 120
     3                           	opt	flic
     4                           	psect	idataBANK1,global,class=CODE,delta=2,noexec
     5                           	psect	stringtext,global,reloc=256,class=STRCODE,delta=2,noexec
     6                           	psect	cinit,global,class=CODE,merge=1,delta=2
     7                           	psect	bssCOMMON,global,class=COMMON,space=1,delta=1,noexec
     8                           	psect	bssBANK0,global,class=BANK0,space=1,delta=1,noexec
     9                           	psect	bssBANK1,global,class=BANK1,space=1,delta=1,noexec
    10                           	psect	dataBANK1,global,class=BANK1,space=1,delta=1,noexec
    11                           	psect	clrtext,global,class=CODE,delta=2
    12                           	psect	cstackCOMMON,global,class=COMMON,space=1,delta=1,noexec
    13                           	psect	cstackBANK0,global,class=BANK0,space=1,delta=1,noexec
    14                           	psect	maintext,global,class=CODE,split=1,delta=2
    15                           	psect	text1,local,class=CODE,merge=1,delta=2,group=1
    16                           	psect	text2,local,class=CODE,merge=1,delta=2,group=1
    17                           	psect	text3,local,class=CODE,merge=1,delta=2,group=1
    18                           	psect	text4,local,class=CODE,merge=1,delta=2,group=1
    19                           	psect	text5,local,class=CODE,merge=1,delta=2,group=1
    20                           	psect	text6,local,class=CODE,merge=1,delta=2,group=1
    21                           	psect	text7,local,class=CODE,merge=1,delta=2,group=1
    22                           	psect	text8,local,class=CODE,merge=1,delta=2,group=1
    23                           	psect	text9,local,class=CODE,merge=1,delta=2,group=1
    24                           	psect	text10,local,class=CODE,merge=1,delta=2,group=1
    25                           	psect	text11,local,class=CODE,merge=1,delta=2
    26                           	psect	text12,local,class=CODE,merge=1,delta=2,group=3
    27                           	psect	text13,local,class=CODE,merge=1,delta=2,group=1
    28                           	psect	text14,local,class=CODE,merge=1,delta=2,group=2
    29                           	psect	text15,local,class=CODE,merge=1,delta=2,group=2
    30                           	psect	text16,local,class=CODE,merge=1,delta=2,group=2
    31                           	psect	text17,local,class=CODE,merge=1,delta=2,group=1
    32                           	psect	text18,local,class=CODE,merge=1,delta=2,group=1
    33                           	psect	text19,local,class=CODE,merge=1,delta=2,group=1
    34                           	psect	text20,local,class=CODE,merge=1,delta=2,group=1
    35                           	psect	text21,local,class=CODE,merge=1,delta=2,group=1
    36                           	psect	text22,local,class=CODE,merge=1,delta=2,group=1
    37                           	psect	text23,local,class=CODE,merge=1,delta=2,group=1
    38                           	psect	text24,local,class=CODE,merge=1,delta=2,group=1
    39                           	psect	text25,local,class=CODE,merge=1,delta=2,group=1
    40                           	psect	text26,local,class=CODE,merge=1,delta=2,group=1
    41                           	psect	text27,local,class=CODE,merge=1,delta=2,group=1
    42                           	psect	text28,local,class=CODE,merge=1,delta=2,group=1
    43                           	psect	text29,local,class=CODE,merge=1,delta=2,group=1
    44                           	psect	text30,local,class=CODE,merge=1,delta=2
    45                           	psect	text31,local,class=CODE,merge=1,inline,delta=2,group=1
    46                           	psect	text32,local,class=CODE,merge=1,delta=2,group=1
    47                           	psect	text33,local,class=CODE,merge=1,delta=2,group=2
    48                           	psect	text34,local,class=CODE,merge=1,delta=2,group=1
    49                           	psect	text35,local,class=CODE,merge=1,delta=2,group=1
    50                           	psect	text36,local,class=CODE,merge=1,delta=2,group=1
    51                           	psect	text37,local,class=CODE,merge=1,delta=2,group=1
    52                           	psect	text38,local,class=CODE,merge=1,delta=2,group=1
    53                           	psect	text39,local,class=CODE,merge=1,delta=2,group=1
    54                           	psect	text40,local,class=CODE,merge=1,delta=2,group=1
    55                           	psect	text41,local,class=CODE,merge=1,delta=2,group=1
    56                           	psect	text42,local,class=CODE,merge=1,delta=2,group=1
    57                           	psect	text43,local,class=CODE,merge=1,delta=2,group=1
    58                           	psect	text44,local,class=CODE,merge=1,delta=2,group=1
    59                           	psect	text45,local,class=CODE,merge=1,delta=2,group=1
    60                           	psect	text46,local,class=CODE,merge=1,delta=2,group=1
    61                           	psect	text47,local,class=CODE,merge=1,delta=2,group=1
    62                           	psect	text48,local,class=CODE,merge=1,delta=2,group=1
    63                           	psect	text49,local,class=CODE,merge=1,delta=2,group=1
    64                           	psect	text50,local,class=CODE,merge=1,delta=2,group=1
    65                           	psect	text51,local,class=CODE,merge=1,delta=2,group=1
    66                           	psect	text52,local,class=CODE,merge=1,delta=2,group=1
    67                           	psect	text53,local,class=CODE,merge=1,delta=2,group=1
    68                           	psect	text54,local,class=CODE,merge=1,delta=2,group=1
    69                           	psect	text55,local,class=CODE,merge=1,delta=2,group=1
    70                           	psect	text56,local,class=CODE,merge=1,delta=2
    71                           	psect	intentry,global,class=CODE,delta=2
    72                           	psect	text57,local,class=CODE,merge=1,delta=2,group=1
    73                           	psect	config,global,abs,ovrld,class=CONFIG,space=4,delta=2,noexec
    74                           	dabs	1,0x7E,2
    75  0000                     
    76                           ; Version 2.35
    77                           ; Generated 06/12/2021 GMT
    78                           ; 
    79                           ; Copyright © 2021, Microchip Technology Inc. and its subsidiaries ("Microchip")
    80                           ; All rights reserved.
    81                           ; 
    82                           ; This software is developed by Microchip Technology Inc. and its subsidiaries ("Microch
      +                          ip").
    83                           ; 
    84                           ; Redistribution and use in source and binary forms, with or without modification, are
    85                           ; permitted provided that the following conditions are met:
    86                           ; 
    87                           ;     1. Redistributions of source code must retain the above copyright notice, this lis
      +                          t of
    88                           ;        conditions and the following disclaimer.
    89                           ; 
    90                           ;     2. Redistributions in binary form must reproduce the above copyright notice, this 
      +                          list
    91                           ;        of conditions and the following disclaimer in the documentation and/or other
    92                           ;        materials provided with the distribution. Publication is not required when
    93                           ;        this file is used in an embedded application.
    94                           ; 
    95                           ;     3. Microchip's name may not be used to endorse or promote products derived from th
      +                          is
    96                           ;        software without specific prior written permission.
    97                           ; 
    98                           ; THIS SOFTWARE IS PROVIDED BY MICROCHIP "AS IS" AND ANY EXPRESS OR IMPLIED WARRANTIES,
    99                           ; INCLUDING, BUT NOT LIMITED TO, THE IMPLIED WARRANTIES OF MERCHANTABILITY AND FITNESS F
      +                          OR
   100                           ; PURPOSE ARE DISCLAIMED.  IN NO EVENT SHALL MICROCHIP BE LIABLE FOR ANY DIRECT, INDIREC
      +                          T,
   101                           ; INCIDENTAL, SPECIAL, EXEMPLARY, OR CONSEQUENTIAL DAMAGES (INCLUDING BUT NOT LIMITED TO
   102                           ; PROCUREMENT OF SUBSTITUTE GOODS OR SERVICES; LOSS OF USE, DATA OR PROFITS; OR BUSINESS
   103                           ; INTERRUPTION) HOWSOEVER CAUSED AND ON ANY THEORY OF LIABILITY, WHETHER IN CONTRACT, ST
      +                          RICT
   104                           ; LIABILITY, OR TORT (INCLUDING NEGLIGENCE OR OTHERWISE) ARISING IN ANY WAY OUT OF THE U
      +                          SE OF
   105                           ; THIS SOFTWARE, EVEN IF ADVISED OF THE POSSIBILITY OF SUCH DAMAGE.
   106                           ; 
   107                           ; 
   108                           ; Code-generator required, PIC16F877A Definitions
   109                           ; 
   110                           ; SFR Addresses
   111  0000                     	;# 
   112  0001                     	;# 
   113  0002                     	;# 
   114  0003                     	;# 
   115  0004                     	;# 
   116  0005                     	;# 
   117  0006                     	;# 
   118  0007                     	;# 
   119  0008                     	;# 
   120  0009                     	;# 
   121  000A                     	;# 
   122  000B                     	;# 
   123  000C                     	;# 
   124  000D                     	;# 
   125  000E                     	;# 
   126  000E                     	;# 
   127  000F                     	;# 
   128  0010                     	;# 
   129  0011                     	;# 
   130  0012                     	;# 
   131  0013                     	;# 
   132  0014                     	;# 
   133  0015                     	;# 
   134  0015                     	;# 
   135  0016                     	;# 
   136  0017                     	;# 
   137  0018                     	;# 
   138  0019                     	;# 
   139  001A                     	;# 
   140  001B                     	;# 
   141  001B                     	;# 
   142  001C                     	;# 
   143  001D                     	;# 
   144  001E                     	;# 
   145  001F                     	;# 
   146  0081                     	;# 
   147  0085                     	;# 
   148  0086                     	;# 
   149  0087                     	;# 
   150  0088                     	;# 
   151  0089                     	;# 
   152  008C                     	;# 
   153  008D                     	;# 
   154  008E                     	;# 
   155  0091                     	;# 
   156  0092                     	;# 
   157  0093                     	;# 
   158  0094                     	;# 
   159  0098                     	;# 
   160  0099                     	;# 
   161  009C                     	;# 
   162  009D                     	;# 
   163  009E                     	;# 
   164  009F                     	;# 
   165  010C                     	;# 
   166  010D                     	;# 
   167  010E                     	;# 
   168  010F                     	;# 
   169  018C                     	;# 
   170  018D                     	;# 
   171  0000                     	;# 
   172  0001                     	;# 
   173  0002                     	;# 
   174  0003                     	;# 
   175  0004                     	;# 
   176  0005                     	;# 
   177  0006                     	;# 
   178  0007                     	;# 
   179  0008                     	;# 
   180  0009                     	;# 
   181  000A                     	;# 
   182  000B                     	;# 
   183  000C                     	;# 
   184  000D                     	;# 
   185  000E                     	;# 
   186  000E                     	;# 
   187  000F                     	;# 
   188  0010                     	;# 
   189  0011                     	;# 
   190  0012                     	;# 
   191  0013                     	;# 
   192  0014                     	;# 
   193  0015                     	;# 
   194  0015                     	;# 
   195  0016                     	;# 
   196  0017                     	;# 
   197  0018                     	;# 
   198  0019                     	;# 
   199  001A                     	;# 
   200  001B                     	;# 
   201  001B                     	;# 
   202  001C                     	;# 
   203  001D                     	;# 
   204  001E                     	;# 
   205  001F                     	;# 
   206  0081                     	;# 
   207  0085                     	;# 
   208  0086                     	;# 
   209  0087                     	;# 
   210  0088                     	;# 
   211  0089                     	;# 
   212  008C                     	;# 
   213  008D                     	;# 
   214  008E                     	;# 
   215  0091                     	;# 
   216  0092                     	;# 
   217  0093                     	;# 
   218  0094                     	;# 
   219  0098                     	;# 
   220  0099                     	;# 
   221  009C                     	;# 
   222  009D                     	;# 
   223  009E                     	;# 
   224  009F                     	;# 
   225  010C                     	;# 
   226  010D                     	;# 
   227  010E                     	;# 
   228  010F                     	;# 
   229  018C                     	;# 
   230  018D                     	;# 
   231  0000                     	;# 
   232  0001                     	;# 
   233  0002                     	;# 
   234  0003                     	;# 
   235  0004                     	;# 
   236  0005                     	;# 
   237  0006                     	;# 
   238  0007                     	;# 
   239  0008                     	;# 
   240  0009                     	;# 
   241  000A                     	;# 
   242  000B                     	;# 
   243  000C                     	;# 
   244  000D                     	;# 
   245  000E                     	;# 
   246  000E                     	;# 
   247  000F                     	;# 
   248  0010                     	;# 
   249  0011                     	;# 
   250  0012                     	;# 
   251  0013                     	;# 
   252  0014                     	;# 
   253  0015                     	;# 
   254  0015                     	;# 
   255  0016                     	;# 
   256  0017                     	;# 
   257  0018                     	;# 
   258  0019                     	;# 
   259  001A                     	;# 
   260  001B                     	;# 
   261  001B                     	;# 
   262  001C                     	;# 
   263  001D                     	;# 
   264  001E                     	;# 
   265  001F                     	;# 
   266  0081                     	;# 
   267  0085                     	;# 
   268  0086                     	;# 
   269  0087                     	;# 
   270  0088                     	;# 
   271  0089                     	;# 
   272  008C                     	;# 
   273  008D                     	;# 
   274  008E                     	;# 
   275  0091                     	;# 
   276  0092                     	;# 
   277  0093                     	;# 
   278  0094                     	;# 
   279  0098                     	;# 
   280  0099                     	;# 
   281  009C                     	;# 
   282  009D                     	;# 
   283  009E                     	;# 
   284  009F                     	;# 
   285  010C                     	;# 
   286  010D                     	;# 
   287  010E                     	;# 
   288  010F                     	;# 
   289  018C                     	;# 
   290  018D                     	;# 
   291  0000                     	;# 
   292  0001                     	;# 
   293  0002                     	;# 
   294  0003                     	;# 
   295  0004                     	;# 
   296  0005                     	;# 
   297  0006                     	;# 
   298  0007                     	;# 
   299  0008                     	;# 
   300  0009                     	;# 
   301  000A                     	;# 
   302  000B                     	;# 
   303  000C                     	;# 
   304  000D                     	;# 
   305  000E                     	;# 
   306  000E                     	;# 
   307  000F                     	;# 
   308  0010                     	;# 
   309  0011                     	;# 
   310  0012                     	;# 
   311  0013                     	;# 
   312  0014                     	;# 
   313  0015                     	;# 
   314  0015                     	;# 
   315  0016                     	;# 
   316  0017                     	;# 
   317  0018                     	;# 
   318  0019                     	;# 
   319  001A                     	;# 
   320  001B                     	;# 
   321  001B                     	;# 
   322  001C                     	;# 
   323  001D                     	;# 
   324  001E                     	;# 
   325  001F                     	;# 
   326  0081                     	;# 
   327  0085                     	;# 
   328  0086                     	;# 
   329  0087                     	;# 
   330  0088                     	;# 
   331  0089                     	;# 
   332  008C                     	;# 
   333  008D                     	;# 
   334  008E                     	;# 
   335  0091                     	;# 
   336  0092                     	;# 
   337  0093                     	;# 
   338  0094                     	;# 
   339  0098                     	;# 
   340  0099                     	;# 
   341  009C                     	;# 
   342  009D                     	;# 
   343  009E                     	;# 
   344  009F                     	;# 
   345  010C                     	;# 
   346  010D                     	;# 
   347  010E                     	;# 
   348  010F                     	;# 
   349  018C                     	;# 
   350  018D                     	;# 
   351  0000                     	;# 
   352  0001                     	;# 
   353  0002                     	;# 
   354  0003                     	;# 
   355  0004                     	;# 
   356  0005                     	;# 
   357  0006                     	;# 
   358  0007                     	;# 
   359  0008                     	;# 
   360  0009                     	;# 
   361  000A                     	;# 
   362  000B                     	;# 
   363  000C                     	;# 
   364  000D                     	;# 
   365  000E                     	;# 
   366  000E                     	;# 
   367  000F                     	;# 
   368  0010                     	;# 
   369  0011                     	;# 
   370  0012                     	;# 
   371  0013                     	;# 
   372  0014                     	;# 
   373  0015                     	;# 
   374  0015                     	;# 
   375  0016                     	;# 
   376  0017                     	;# 
   377  0018                     	;# 
   378  0019                     	;# 
   379  001A                     	;# 
   380  001B                     	;# 
   381  001B                     	;# 
   382  001C                     	;# 
   383  001D                     	;# 
   384  001E                     	;# 
   385  001F                     	;# 
   386  0081                     	;# 
   387  0085                     	;# 
   388  0086                     	;# 
   389  0087                     	;# 
   390  0088                     	;# 
   391  0089                     	;# 
   392  008C                     	;# 
   393  008D                     	;# 
   394  008E                     	;# 
   395  0091                     	;# 
   396  0092                     	;# 
   397  0093                     	;# 
   398  0094                     	;# 
   399  0098                     	;# 
   400  0099                     	;# 
   401  009C                     	;# 
   402  009D                     	;# 
   403  009E                     	;# 
   404  009F                     	;# 
   405  010C                     	;# 
   406  010D                     	;# 
   407  010E                     	;# 
   408  010F                     	;# 
   409  018C                     	;# 
   410  018D                     	;# 
   411  0000                     	;# 
   412  0001                     	;# 
   413  0002                     	;# 
   414  0003                     	;# 
   415  0004                     	;# 
   416  0005                     	;# 
   417  0006                     	;# 
   418  0007                     	;# 
   419  0008                     	;# 
   420  0009                     	;# 
   421  000A                     	;# 
   422  000B                     	;# 
   423  000C                     	;# 
   424  000D                     	;# 
   425  000E                     	;# 
   426  000E                     	;# 
   427  000F                     	;# 
   428  0010                     	;# 
   429  0011                     	;# 
   430  0012                     	;# 
   431  0013                     	;# 
   432  0014                     	;# 
   433  0015                     	;# 
   434  0015                     	;# 
   435  0016                     	;# 
   436  0017                     	;# 
   437  0018                     	;# 
   438  0019                     	;# 
   439  001A                     	;# 
   440  001B                     	;# 
   441  001B                     	;# 
   442  001C                     	;# 
   443  001D                     	;# 
   444  001E                     	;# 
   445  001F                     	;# 
   446  0081                     	;# 
   447  0085                     	;# 
   448  0086                     	;# 
   449  0087                     	;# 
   450  0088                     	;# 
   451  0089                     	;# 
   452  008C                     	;# 
   453  008D                     	;# 
   454  008E                     	;# 
   455  0091                     	;# 
   456  0092                     	;# 
   457  0093                     	;# 
   458  0094                     	;# 
   459  0098                     	;# 
   460  0099                     	;# 
   461  009C                     	;# 
   462  009D                     	;# 
   463  009E                     	;# 
   464  009F                     	;# 
   465  010C                     	;# 
   466  010D                     	;# 
   467  010E                     	;# 
   468  010F                     	;# 
   469  018C                     	;# 
   470  018D                     	;# 
   471  0000                     	;# 
   472  0001                     	;# 
   473  0002                     	;# 
   474  0003                     	;# 
   475  0004                     	;# 
   476  0005                     	;# 
   477  0006                     	;# 
   478  0007                     	;# 
   479  0008                     	;# 
   480  0009                     	;# 
   481  000A                     	;# 
   482  000B                     	;# 
   483  000C                     	;# 
   484  000D                     	;# 
   485  000E                     	;# 
   486  000E                     	;# 
   487  000F                     	;# 
   488  0010                     	;# 
   489  0011                     	;# 
   490  0012                     	;# 
   491  0013                     	;# 
   492  0014                     	;# 
   493  0015                     	;# 
   494  0015                     	;# 
   495  0016                     	;# 
   496  0017                     	;# 
   497  0018                     	;# 
   498  0019                     	;# 
   499  001A                     	;# 
   500  001B                     	;# 
   501  001B                     	;# 
   502  001C                     	;# 
   503  001D                     	;# 
   504  001E                     	;# 
   505  001F                     	;# 
   506  0081                     	;# 
   507  0085                     	;# 
   508  0086                     	;# 
   509  0087                     	;# 
   510  0088                     	;# 
   511  0089                     	;# 
   512  008C                     	;# 
   513  008D                     	;# 
   514  008E                     	;# 
   515  0091                     	;# 
   516  0092                     	;# 
   517  0093                     	;# 
   518  0094                     	;# 
   519  0098                     	;# 
   520  0099                     	;# 
   521  009C                     	;# 
   522  009D                     	;# 
   523  009E                     	;# 
   524  009F                     	;# 
   525  010C                     	;# 
   526  010D                     	;# 
   527  010E                     	;# 
   528  010F                     	;# 
   529  018C                     	;# 
   530  018D                     	;# 
   531  0000                     	;# 
   532  0001                     	;# 
   533  0002                     	;# 
   534  0003                     	;# 
   535  0004                     	;# 
   536  0005                     	;# 
   537  0006                     	;# 
   538  0007                     	;# 
   539  0008                     	;# 
   540  0009                     	;# 
   541  000A                     	;# 
   542  000B                     	;# 
   543  000C                     	;# 
   544  000D                     	;# 
   545  000E                     	;# 
   546  000E                     	;# 
   547  000F                     	;# 
   548  0010                     	;# 
   549  0011                     	;# 
   550  0012                     	;# 
   551  0013                     	;# 
   552  0014                     	;# 
   553  0015                     	;# 
   554  0015                     	;# 
   555  0016                     	;# 
   556  0017                     	;# 
   557  0018                     	;# 
   558  0019                     	;# 
   559  001A                     	;# 
   560  001B                     	;# 
   561  001B                     	;# 
   562  001C                     	;# 
   563  001D                     	;# 
   564  001E                     	;# 
   565  001F                     	;# 
   566  0081                     	;# 
   567  0085                     	;# 
   568  0086                     	;# 
   569  0087                     	;# 
   570  0088                     	;# 
   571  0089                     	;# 
   572  008C                     	;# 
   573  008D                     	;# 
   574  008E                     	;# 
   575  0091                     	;# 
   576  0092                     	;# 
   577  0093                     	;# 
   578  0094                     	;# 
   579  0098                     	;# 
   580  0099                     	;# 
   581  009C                     	;# 
   582  009D                     	;# 
   583  009E                     	;# 
   584  009F                     	;# 
   585  010C                     	;# 
   586  010D                     	;# 
   587  010E                     	;# 
   588  010F                     	;# 
   589  018C                     	;# 
   590  018D                     	;# 
   591  0000                     	;# 
   592  0001                     	;# 
   593  0002                     	;# 
   594  0003                     	;# 
   595  0004                     	;# 
   596  0005                     	;# 
   597  0006                     	;# 
   598  0007                     	;# 
   599  0008                     	;# 
   600  0009                     	;# 
   601  000A                     	;# 
   602  000B                     	;# 
   603  000C                     	;# 
   604  000D                     	;# 
   605  000E                     	;# 
   606  000E                     	;# 
   607  000F                     	;# 
   608  0010                     	;# 
   609  0011                     	;# 
   610  0012                     	;# 
   611  0013                     	;# 
   612  0014                     	;# 
   613  0015                     	;# 
   614  0015                     	;# 
   615  0016                     	;# 
   616  0017                     	;# 
   617  0018                     	;# 
   618  0019                     	;# 
   619  001A                     	;# 
   620  001B                     	;# 
   621  001B                     	;# 
   622  001C                     	;# 
   623  001D                     	;# 
   624  001E                     	;# 
   625  001F                     	;# 
   626  0081                     	;# 
   627  0085                     	;# 
   628  0086                     	;# 
   629  0087                     	;# 
   630  0088                     	;# 
   631  0089                     	;# 
   632  008C                     	;# 
   633  008D                     	;# 
   634  008E                     	;# 
   635  0091                     	;# 
   636  0092                     	;# 
   637  0093                     	;# 
   638  0094                     	;# 
   639  0098                     	;# 
   640  0099                     	;# 
   641  009C                     	;# 
   642  009D                     	;# 
   643  009E                     	;# 
   644  009F                     	;# 
   645  010C                     	;# 
   646  010D                     	;# 
   647  010E                     	;# 
   648  010F                     	;# 
   649  018C                     	;# 
   650  018D                     	;# 
   651  0000                     	;# 
   652  0001                     	;# 
   653  0002                     	;# 
   654  0003                     	;# 
   655  0004                     	;# 
   656  0005                     	;# 
   657  0006                     	;# 
   658  0007                     	;# 
   659  0008                     	;# 
   660  0009                     	;# 
   661  000A                     	;# 
   662  000B                     	;# 
   663  000C                     	;# 
   664  000D                     	;# 
   665  000E                     	;# 
   666  000E                     	;# 
   667  000F                     	;# 
   668  0010                     	;# 
   669  0011                     	;# 
   670  0012                     	;# 
   671  0013                     	;# 
   672  0014                     	;# 
   673  0015                     	;# 
   674  0015                     	;# 
   675  0016                     	;# 
   676  0017                     	;# 
   677  0018                     	;# 
   678  0019                     	;# 
   679  001A                     	;# 
   680  001B                     	;# 
   681  001B                     	;# 
   682  001C                     	;# 
   683  001D                     	;# 
   684  001E                     	;# 
   685  001F                     	;# 
   686  0081                     	;# 
   687  0085                     	;# 
   688  0086                     	;# 
   689  0087                     	;# 
   690  0088                     	;# 
   691  0089                     	;# 
   692  008C                     	;# 
   693  008D                     	;# 
   694  008E                     	;# 
   695  0091                     	;# 
   696  0092                     	;# 
   697  0093                     	;# 
   698  0094                     	;# 
   699  0098                     	;# 
   700  0099                     	;# 
   701  009C                     	;# 
   702  009D                     	;# 
   703  009E                     	;# 
   704  009F                     	;# 
   705  010C                     	;# 
   706  010D                     	;# 
   707  010E                     	;# 
   708  010F                     	;# 
   709  018C                     	;# 
   710  018D                     	;# 
   711                           
   712                           	psect	idataBANK1
   713  07FB                     __pidataBANK1:
   714                           
   715                           ;initializer for _network_pipe
   716  07FB  3400               	retlw	0
   717  07FC  34FC               	retlw	252
   718  07FD  34B0               	retlw	176
   719  07FE  34E8               	retlw	232
   720  07FF  34F5               	retlw	245
   721                           
   722                           	psect	stringtext
   723  0100                     __pstringtext:
   724  0100                     stringtab:
   725  0100                     __stringtab:
   726                           
   727                           ;	String table - string pointers are 2 bytes each
   728  0100  1BFF               	btfsc	btemp+1,7
   729  0101  290A               	ljmp	stringcode
   730  0102  1383               	bcf	3,7
   731  0103  187F               	btfsc	btemp+1,0
   732  0104  1783               	bsf	3,7
   733  0105  0800               	movf	0,w
   734  0106  0A84               	incf	4,f
   735  0107  1903               	skipnz
   736  0108  0AFF               	incf	btemp+1,f
   737  0109  0008               	return
   738  010A                     stringcode:
   739  010A  087F               	movf	btemp+1,w
   740  010B  397F               	andlw	127
   741  010C  008A               	movwf	10
   742  010D  0804               	movf	4,w
   743  010E  0A84               	incf	4,f
   744  010F  1903               	skipnz
   745  0110  0AFF               	incf	btemp+1,f
   746  0111  0082               	movwf	2
   747  0112                     __stringbase:
   748  0112                     __end_of__stringtab:
   749  0112                     _LOGLINE_CONVERSION_TABLE:
   750  0112  3430               	retlw	48
   751  0113  3431               	retlw	49
   752  0114  3432               	retlw	50
   753  0115  3433               	retlw	51
   754  0116  3434               	retlw	52
   755  0117  3435               	retlw	53
   756  0118  3436               	retlw	54
   757  0119  3437               	retlw	55
   758  011A  3438               	retlw	56
   759  011B  3439               	retlw	57
   760  011C  3441               	retlw	65
   761  011D  3442               	retlw	66
   762  011E  3443               	retlw	67
   763  011F  3444               	retlw	68
   764  0120  3445               	retlw	69
   765  0121  3446               	retlw	70
   766  0122                     __end_of_LOGLINE_CONVERSION_TABLE:
   767  0122                     _BROADCAST_PIPE:
   768  0122  34F9               	retlw	249
   769  0123  3436               	retlw	54
   770  0124  34CD               	retlw	205
   771  0125  34AC               	retlw	172
   772  0126  34E7               	retlw	231
   773  0127                     __end_of_BROADCAST_PIPE:
   774  0127                     _LOGLINE_FAIL:
   775  0127  3446               	retlw	70
   776  0128  3441               	retlw	65
   777  0129  3449               	retlw	73
   778  012A  344C               	retlw	76
   779  012B  3400               	retlw	0
   780  012C                     __end_of_LOGLINE_FAIL:
   781  012C                     _LOGLINE_OK:
   782  012C  344F               	retlw	79
   783  012D  344B               	retlw	75
   784  012E  3400               	retlw	0
   785  012F                     __end_of_LOGLINE_OK:
   786  012F                     main@packet:
   787  012F  34C0               	retlw	low (_buffer_tx| 0)
   788  0130                     __end_ofmain@packet:
   789  0130                     _BASE_PIPE:
   790  0130  3459               	retlw	89
   791  0131  34EC               	retlw	236
   792  0132  34AD               	retlw	173
   793  0133  34FC               	retlw	252
   794  0134  3484               	retlw	132
   795  0135                     __end_of_BASE_PIPE:
   796  000E                     _TMR1	set	14
   797  0019                     _TXREG	set	25
   798  0013                     _SSPBUF	set	19
   799  0014                     _SSPCON	set	20
   800  00C4                     _CREN	set	196
   801  00C7                     _SPEN	set	199
   802  0060                     _TMR1IF	set	96
   803  0080                     _TMR1ON	set	128
   804  0084                     _T1CKPS0	set	132
   805  0085                     _T1CKPS1	set	133
   806  0083                     _T1OSCEN	set	131
   807  0081                     _TMR1CS	set	129
   808  005F                     _GIE	set	95
   809  005E                     _PEIE	set	94
   810  0063                     _SSPIF	set	99
   811  00A5                     _SSPEN	set	165
   812  0042                     _RD2	set	66
   813  0043                     _RD3	set	67
   814  0040                     _RD0	set	64
   815  0041                     _RD1	set	65
   816  0099                     _SPBRG	set	153
   817  0094                     _SSPSTAT	set	148
   818  0086                     _TRISB	set	134
   819  04C1                     _TRMT	set	1217
   820  04C5                     _TXEN	set	1221
   821  043E                     _TRISC6	set	1086
   822  043F                     _TRISC7	set	1087
   823  04C4                     _SYNC	set	1220
   824  04C2                     _BRGH	set	1218
   825  0460                     _TMR1IE	set	1120
   826  043B                     _TRISC3	set	1083
   827  043C                     _TRISC4	set	1084
   828  043D                     _TRISC5	set	1085
   829  0443                     _TRISD3	set	1091
   830  0442                     _TRISD2	set	1090
   831  0440                     _TRISD0	set	1088
   832  040F                     _nRBPU	set	1039
   833  0441                     _TRISD1	set	1089
   834  0135                     STR_1:
   835  0135  343D               	retlw	61	;'='
   836  0136  343D               	retlw	61	;'='
   837  0137  343D               	retlw	61	;'='
   838  0138  343D               	retlw	61	;'='
   839  0139  343D               	retlw	61	;'='
   840  013A  343D               	retlw	61	;'='
   841  013B  343D               	retlw	61	;'='
   842  013C  343D               	retlw	61	;'='
   843  013D  343D               	retlw	61	;'='
   844  013E  343D               	retlw	61	;'='
   845  013F  343D               	retlw	61	;'='
   846  0140  343D               	retlw	61	;'='
   847  0141  343D               	retlw	61	;'='
   848  0142  343D               	retlw	61	;'='
   849  0143  343D               	retlw	61	;'='
   850  0144  343D               	retlw	61	;'='
   851  0145  3453               	retlw	83	;'S'
   852  0146  3454               	retlw	84	;'T'
   853  0147  3441               	retlw	65	;'A'
   854  0148  3452               	retlw	82	;'R'
   855  0149  3454               	retlw	84	;'T'
   856  014A  3420               	retlw	32	;' '
   857  014B  343D               	retlw	61	;'='
   858  014C  343D               	retlw	61	;'='
   859  014D  343D               	retlw	61	;'='
   860  014E  343D               	retlw	61	;'='
   861  014F  343D               	retlw	61	;'='
   862  0150  343D               	retlw	61	;'='
   863  0151  343D               	retlw	61	;'='
   864  0152  343D               	retlw	61	;'='
   865  0153  343D               	retlw	61	;'='
   866  0154  343D               	retlw	61	;'='
   867  0155  343D               	retlw	61	;'='
   868  0156  343D               	retlw	61	;'='
   869  0157  343D               	retlw	61	;'='
   870  0158  343D               	retlw	61	;'='
   871  0159  343D               	retlw	61	;'='
   872  015A  343D               	retlw	61	;'='
   873  015B  343D               	retlw	61	;'='
   874  015C  343D               	retlw	61	;'='
   875  015D  343D               	retlw	61	;'='
   876  015E  343D               	retlw	61	;'='
   877  015F  343D               	retlw	61	;'='
   878  0160  343D               	retlw	61	;'='
   879  0161  343D               	retlw	61	;'='
   880  0162  343D               	retlw	61	;'='
   881  0163  343D               	retlw	61	;'='
   882  0164  343D               	retlw	61	;'='
   883  0165  343D               	retlw	61	;'='
   884  0166  343D               	retlw	61	;'='
   885  0167  343D               	retlw	61	;'='
   886  0168  3400               	retlw	0
   887  0169                     STR_27:
   888  0169  343D               	retlw	61	;'='
   889  016A  343D               	retlw	61	;'='
   890  016B  343D               	retlw	61	;'='
   891  016C  343D               	retlw	61	;'='
   892  016D  3445               	retlw	69	;'E'
   893  016E  344E               	retlw	78	;'N'
   894  016F  3444               	retlw	68	;'D'
   895  0170  3420               	retlw	32	;' '
   896  0171  344F               	retlw	79	;'O'
   897  0172  3446               	retlw	70	;'F'
   898  0173  3420               	retlw	32	;' '
   899  0174  3444               	retlw	68	;'D'
   900  0175  3445               	retlw	69	;'E'
   901  0176  3454               	retlw	84	;'T'
   902  0177  3441               	retlw	65	;'A'
   903  0178  3449               	retlw	73	;'I'
   904  0179  344C               	retlw	76	;'L'
   905  017A  3453               	retlw	83	;'S'
   906  017B  343D               	retlw	61	;'='
   907  017C  343D               	retlw	61	;'='
   908  017D  343D               	retlw	61	;'='
   909  017E  343D               	retlw	61	;'='
   910  017F  3400               	retlw	0
   911  0180                     STR_10:
   912  0180  343D               	retlw	61	;'='
   913  0181  343D               	retlw	61	;'='
   914  0182  343D               	retlw	61	;'='
   915  0183  3453               	retlw	83	;'S'
   916  0184  3454               	retlw	84	;'T'
   917  0185  3441               	retlw	65	;'A'
   918  0186  3452               	retlw	82	;'R'
   919  0187  3454               	retlw	84	;'T'
   920  0188  3420               	retlw	32	;' '
   921  0189  344F               	retlw	79	;'O'
   922  018A  3446               	retlw	70	;'F'
   923  018B  3420               	retlw	32	;' '
   924  018C  3444               	retlw	68	;'D'
   925  018D  3445               	retlw	69	;'E'
   926  018E  3454               	retlw	84	;'T'
   927  018F  3441               	retlw	65	;'A'
   928  0190  3449               	retlw	73	;'I'
   929  0191  344C               	retlw	76	;'L'
   930  0192  3453               	retlw	83	;'S'
   931  0193  343D               	retlw	61	;'='
   932  0194  343D               	retlw	61	;'='
   933  0195  343D               	retlw	61	;'='
   934  0196  3400               	retlw	0
   935  0197                     STR_3:
   936  0197  3453               	retlw	83	;'S'
   937  0198  3477               	retlw	119	;'w'
   938  0199  3469               	retlw	105	;'i'
   939  019A  3474               	retlw	116	;'t'
   940  019B  3463               	retlw	99	;'c'
   941  019C  3468               	retlw	104	;'h'
   942  019D  3420               	retlw	32	;' '
   943  019E  344E               	retlw	78	;'N'
   944  019F  346F               	retlw	111	;'o'
   945  01A0  3474               	retlw	116	;'t'
   946  01A1  3420               	retlw	32	;' '
   947  01A2  3470               	retlw	112	;'p'
   948  01A3  3472               	retlw	114	;'r'
   949  01A4  3465               	retlw	101	;'e'
   950  01A5  3473               	retlw	115	;'s'
   951  01A6  3473               	retlw	115	;'s'
   952  01A7  3465               	retlw	101	;'e'
   953  01A8  3464               	retlw	100	;'d'
   954  01A9  3400               	retlw	0
   955  01AA                     STR_5:
   956  01AA  3452               	retlw	82	;'R'
   957  01AB  3465               	retlw	101	;'e'
   958  01AC  3463               	retlw	99	;'c'
   959  01AD  3469               	retlw	105	;'i'
   960  01AE  3476               	retlw	118	;'v'
   961  01AF  3465               	retlw	101	;'e'
   962  01B0  3464               	retlw	100	;'d'
   963  01B1  3420               	retlw	32	;' '
   964  01B2  3444               	retlw	68	;'D'
   965  01B3  3461               	retlw	97	;'a'
   966  01B4  3474               	retlw	116	;'t'
   967  01B5  3461               	retlw	97	;'a'
   968  01B6  3420               	retlw	32	;' '
   969  01B7  343D               	retlw	61	;'='
   970  01B8  3400               	retlw	0
   971  01B9                     STR_2:
   972  01B9  3453               	retlw	83	;'S'
   973  01BA  3477               	retlw	119	;'w'
   974  01BB  3469               	retlw	105	;'i'
   975  01BC  3474               	retlw	116	;'t'
   976  01BD  3463               	retlw	99	;'c'
   977  01BE  3468               	retlw	104	;'h'
   978  01BF  3420               	retlw	32	;' '
   979  01C0  3470               	retlw	112	;'p'
   980  01C1  3472               	retlw	114	;'r'
   981  01C2  3465               	retlw	101	;'e'
   982  01C3  3473               	retlw	115	;'s'
   983  01C4  3473               	retlw	115	;'s'
   984  01C5  3465               	retlw	101	;'e'
   985  01C6  3464               	retlw	100	;'d'
   986  01C7  3400               	retlw	0
   987  01C8                     STR_4:
   988  01C8  3452               	retlw	82	;'R'
   989  01C9  3465               	retlw	101	;'e'
   990  01CA  3463               	retlw	99	;'c'
   991  01CB  3469               	retlw	105	;'i'
   992  01CC  3476               	retlw	118	;'v'
   993  01CD  3465               	retlw	101	;'e'
   994  01CE  3464               	retlw	100	;'d'
   995  01CF  3420               	retlw	32	;' '
   996  01D0  3444               	retlw	68	;'D'
   997  01D1  3461               	retlw	97	;'a'
   998  01D2  3474               	retlw	116	;'t'
   999  01D3  3461               	retlw	97	;'a'
  1000  01D4  3400               	retlw	0
  1001  01D5                     STR_15:
  1002  01D5  3453               	retlw	83	;'S'
  1003  01D6  3445               	retlw	69	;'E'
  1004  01D7  3454               	retlw	84	;'T'
  1005  01D8  3455               	retlw	85	;'U'
  1006  01D9  3450               	retlw	80	;'P'
  1007  01DA  345F               	retlw	95	;'_'
  1008  01DB  3452               	retlw	82	;'R'
  1009  01DC  3445               	retlw	69	;'E'
  1010  01DD  3454               	retlw	84	;'T'
  1011  01DE  3452               	retlw	82	;'R'
  1012  01DF  3400               	retlw	0
  1013  01E0                     STR_19:
  1014  01E0  344F               	retlw	79	;'O'
  1015  01E1  3442               	retlw	66	;'B'
  1016  01E2  3453               	retlw	83	;'S'
  1017  01E3  3445               	retlw	69	;'E'
  1018  01E4  3452               	retlw	82	;'R'
  1019  01E5  3456               	retlw	86	;'V'
  1020  01E6  3445               	retlw	69	;'E'
  1021  01E7  345F               	retlw	95	;'_'
  1022  01E8  3454               	retlw	84	;'T'
  1023  01E9  3458               	retlw	88	;'X'
  1024  01EA  3400               	retlw	0
  1025  01EB                     STR_13:
  1026  01EB  3445               	retlw	69	;'E'
  1027  01EC  344E               	retlw	78	;'N'
  1028  01ED  345F               	retlw	95	;'_'
  1029  01EE  3452               	retlw	82	;'R'
  1030  01EF  3458               	retlw	88	;'X'
  1031  01F0  3441               	retlw	65	;'A'
  1032  01F1  3444               	retlw	68	;'D'
  1033  01F2  3444               	retlw	68	;'D'
  1034  01F3  3452               	retlw	82	;'R'
  1035  01F4  3400               	retlw	0
  1036  01F5                     STR_9:
  1037  01F5  3470               	retlw	112	;'p'
  1038  01F6  3461               	retlw	97	;'a'
  1039  01F7  3479               	retlw	121	;'y'
  1040  01F8  346C               	retlw	108	;'l'
  1041  01F9  346F               	retlw	111	;'o'
  1042  01FA  3461               	retlw	97	;'a'
  1043  01FB  3464               	retlw	100	;'d'
  1044  01FC  3420               	retlw	32	;' '
  1045  01FD  343D               	retlw	61	;'='
  1046  01FE  3400               	retlw	0
  1047  01FF                     STR_17:
  1048  01FF  3452               	retlw	82	;'R'
  1049  0200  3446               	retlw	70	;'F'
  1050  0201  345F               	retlw	95	;'_'
  1051  0202  3453               	retlw	83	;'S'
  1052  0203  3445               	retlw	69	;'E'
  1053  0204  3454               	retlw	84	;'T'
  1054  0205  3455               	retlw	85	;'U'
  1055  0206  3450               	retlw	80	;'P'
  1056  0207  3400               	retlw	0
  1057  0208                     STR_14:
  1058  0208  3453               	retlw	83	;'S'
  1059  0209  3445               	retlw	69	;'E'
  1060  020A  3454               	retlw	84	;'T'
  1061  020B  3455               	retlw	85	;'U'
  1062  020C  3450               	retlw	80	;'P'
  1063  020D  345F               	retlw	95	;'_'
  1064  020E  3441               	retlw	65	;'A'
  1065  020F  3457               	retlw	87	;'W'
  1066  0210  3400               	retlw	0
  1067  0211                     STR_11:
  1068  0211  3443               	retlw	67	;'C'
  1069  0212  344F               	retlw	79	;'O'
  1070  0213  344E               	retlw	78	;'N'
  1071  0214  3446               	retlw	70	;'F'
  1072  0215  3449               	retlw	73	;'I'
  1073  0216  3447               	retlw	71	;'G'
  1074  0217  3400               	retlw	0
  1075  0218                     STR_18:
  1076  0218  3453               	retlw	83	;'S'
  1077  0219  3454               	retlw	84	;'T'
  1078  021A  3441               	retlw	65	;'A'
  1079  021B  3454               	retlw	84	;'T'
  1080  021C  3455               	retlw	85	;'U'
  1081  021D  3453               	retlw	83	;'S'
  1082  021E  3400               	retlw	0
  1083  021F                     STR_6:
  1084  021F  3464               	retlw	100	;'d'
  1085  0220  3461               	retlw	97	;'a'
  1086  0221  3474               	retlw	116	;'t'
  1087  0222  3461               	retlw	97	;'a'
  1088  0223  3420               	retlw	32	;' '
  1089  0224  343D               	retlw	61	;'='
  1090  0225  3400               	retlw	0
  1091  0226                     STR_20:
  1092  0226  3452               	retlw	82	;'R'
  1093  0227  3458               	retlw	88	;'X'
  1094  0228  345F               	retlw	95	;'_'
  1095  0229  3450               	retlw	80	;'P'
  1096  022A  3430               	retlw	48	;'0'
  1097  022B  3400               	retlw	0
  1098  022C                     STR_21:
  1099  022C  3452               	retlw	82	;'R'
  1100  022D  3458               	retlw	88	;'X'
  1101  022E  345F               	retlw	95	;'_'
  1102  022F  3450               	retlw	80	;'P'
  1103  0230  3431               	retlw	49	;'1'
  1104  0231  3400               	retlw	0
  1105  0232                     STR_22:
  1106  0232  3452               	retlw	82	;'R'
  1107  0233  3458               	retlw	88	;'X'
  1108  0234  345F               	retlw	95	;'_'
  1109  0235  3450               	retlw	80	;'P'
  1110  0236  3432               	retlw	50	;'2'
  1111  0237  3400               	retlw	0
  1112  0238                     STR_23:
  1113  0238  3452               	retlw	82	;'R'
  1114  0239  3458               	retlw	88	;'X'
  1115  023A  345F               	retlw	95	;'_'
  1116  023B  3450               	retlw	80	;'P'
  1117  023C  3433               	retlw	51	;'3'
  1118  023D  3400               	retlw	0
  1119  023E                     STR_24:
  1120  023E  3452               	retlw	82	;'R'
  1121  023F  3458               	retlw	88	;'X'
  1122  0240  345F               	retlw	95	;'_'
  1123  0241  3450               	retlw	80	;'P'
  1124  0242  3434               	retlw	52	;'4'
  1125  0243  3400               	retlw	0
  1126  0244                     STR_25:
  1127  0244  3452               	retlw	82	;'R'
  1128  0245  3458               	retlw	88	;'X'
  1129  0246  345F               	retlw	95	;'_'
  1130  0247  3450               	retlw	80	;'P'
  1131  0248  3435               	retlw	53	;'5'
  1132  0249  3400               	retlw	0
  1133  024A                     STR_12:
  1134  024A  3445               	retlw	69	;'E'
  1135  024B  344E               	retlw	78	;'N'
  1136  024C  345F               	retlw	95	;'_'
  1137  024D  3441               	retlw	65	;'A'
  1138  024E  3441               	retlw	65	;'A'
  1139  024F  3400               	retlw	0
  1140  0250                     STR_16:
  1141  0250  3452               	retlw	82	;'R'
  1142  0251  3446               	retlw	70	;'F'
  1143  0252  345F               	retlw	95	;'_'
  1144  0253  3443               	retlw	67	;'C'
  1145  0254  3448               	retlw	72	;'H'
  1146  0255  3400               	retlw	0
  1147  0256                     STR_8:
  1148  0256  3476               	retlw	118	;'v'
  1149  0257  3461               	retlw	97	;'a'
  1150  0258  346C               	retlw	108	;'l'
  1151  0259  3475               	retlw	117	;'u'
  1152  025A  3465               	retlw	101	;'e'
  1153  025B  3400               	retlw	0
  1154  025C                     STR_7:
  1155  025C  3469               	retlw	105	;'i'
  1156  025D  3464               	retlw	100	;'d'
  1157  025E  3400               	retlw	0
  1158  01E8                     
  1159                           	psect	cinit
  1160  000F                     start_initialization:	
  1161                           ; #config settings
  1162                           
  1163  000F                     __initialization:
  1164                           
  1165                           ; Initialize objects allocated to BANK1
  1166  000F  1683               	bsf	3,5	;RP0=1, select bank1
  1167  0010  1303               	bcf	3,6	;RP1=0, select bank1
  1168  0011  120A  118A  27FB  120A  118A  	fcall	__pidataBANK1	;fetch initializer
  1169  0016  00E0               	movwf	__pdataBANK1& (0+127)
  1170  0017  120A  118A  27FC  120A  118A  	fcall	__pidataBANK1+1	;fetch initializer
  1171  001C  00E1               	movwf	(__pdataBANK1+1)& (0+127)
  1172  001D  120A  118A  27FD  120A  118A  	fcall	__pidataBANK1+2	;fetch initializer
  1173  0022  00E2               	movwf	(__pdataBANK1+2)& (0+127)
  1174  0023  120A  118A  27FE  120A  118A  	fcall	__pidataBANK1+3	;fetch initializer
  1175  0028  00E3               	movwf	(__pdataBANK1+3)& (0+127)
  1176  0029  120A  118A  27FF  120A  118A  	fcall	__pidataBANK1+4	;fetch initializer
  1177  002E  00E4               	movwf	(__pdataBANK1+4)& (0+127)
  1178                           
  1179                           ; Clear objects allocated to BANK1
  1180  002F  1383               	bcf	3,7	;select IRP bank0
  1181  0030  30A0               	movlw	low __pbssBANK1
  1182  0031  0084               	movwf	4
  1183  0032  30E0               	movlw	low (__pbssBANK1+64)
  1184  0033  120A  158A  21D0  120A  118A  	fcall	clear_ram0
  1185                           
  1186                           ; Clear objects allocated to BANK0
  1187  0038  3044               	movlw	low __pbssBANK0
  1188  0039  0084               	movwf	4
  1189  003A  3063               	movlw	low (__pbssBANK0+31)
  1190  003B  120A  158A  21D0  120A  118A  	fcall	clear_ram0
  1191                           
  1192                           ; Clear objects allocated to COMMON
  1193  0040  01FB               	clrf	__pbssCOMMON& (0+127)
  1194  0041                     end_of_initialization:	
  1195                           ;End of C runtime variable initialization code
  1196                           
  1197  0041                     __end_of__initialization:
  1198  0041  0183               	clrf	3
  1199  0042  120A  118A  2A5F   	ljmp	_main	;jump to C main() function
  1200                           
  1201                           	psect	bssCOMMON
  1202  007B                     __pbssCOMMON:
  1203  007B                     _RF24_attr_config:
  1204  007B                     	ds	1
  1205                           
  1206                           	psect	bssBANK0
  1207  0044                     __pbssBANK0:
  1208  0044                     _node:
  1209  0044                     	ds	5
  1210  0049                     __microsMSB:
  1211  0049                     	ds	4
  1212  004D                     _startTime:
  1213  004D                     	ds	4
  1214  0051                     _stopTime:
  1215  0051                     	ds	4
  1216  0055                     _RF24_attr_status:
  1217  0055                     	ds	1
  1218  0056                     _networkInfo:
  1219  0056                     	ds	6
  1220  005C                     _btn1:
  1221  005C                     	ds	5
  1222  0061                     _prop:
  1223  0061                     	ds	2
  1224                           
  1225                           	psect	bssBANK1
  1226  00A0                     __pbssBANK1:
  1227  00A0                     _buffer_rx:
  1228  00A0                     	ds	32
  1229  00C0                     _buffer_tx:
  1230  00C0                     	ds	32
  1231                           
  1232                           	psect	dataBANK1
  1233  00E0                     __pdataBANK1:
  1234  00E0                     _network_pipe:
  1235  00E0                     	ds	5
  1236                           
  1237                           	psect	clrtext
  1238  09D0                     clear_ram0:	
  1239                           ;	Called with FSR containing the base address, and
  1240                           ;	W with the last address+1
  1241                           
  1242  09D0  0064               	clrwdt	;clear the watchdog before getting into this loop
  1243  09D1                     clrloop0:
  1244  09D1  0180               	clrf	0	;clear RAM location pointed to by FSR
  1245  09D2  0A84               	incf	4,f	;increment pointer
  1246  09D3  0604               	xorwf	4,w	;XOR with final address
  1247  09D4  1903               	btfsc	3,2	;have we reached the end yet?
  1248  09D5  3400               	retlw	0	;all done for this memory range, return
  1249  09D6  0604               	xorwf	4,w	;XOR again to restore value
  1250  09D7  29D1               	goto	clrloop0	;do the next byte
  1251                           
  1252                           	psect	cstackCOMMON
  1253  0070                     __pcstackCOMMON:
  1254  0070                     ?_wait_init:
  1255  0070                     ?_SPI_initialize:	
  1256                           ; 1 bytes @ 0x0
  1257                           
  1258  0070                     ?_Network_begin:	
  1259                           ; 1 bytes @ 0x0
  1260                           
  1261  0070                     ?_internet_setChannel:	
  1262                           ; 1 bytes @ 0x0
  1263                           
  1264  0070                     ?_internet_setNetworkPipe:	
  1265                           ; 1 bytes @ 0x0
  1266                           
  1267  0070                     ?_internet_setAddress:	
  1268                           ; 1 bytes @ 0x0
  1269                           
  1270  0070                     ?_Serial_write:	
  1271                           ; 1 bytes @ 0x0
  1272                           
  1273  0070                     ?_internet_process:	
  1274                           ; 1 bytes @ 0x0
  1275                           
  1276  0070                     ?__$_logline_int:	
  1277                           ; 1 bytes @ 0x0
  1278                           
  1279  0070                     ?_timeISR:	
  1280                           ; 1 bytes @ 0x0
  1281                           
  1282  0070                     ??_timeISR:	
  1283                           ; 1 bytes @ 0x0
  1284                           
  1285  0070                     ?_RF24_setChannel:	
  1286                           ; 1 bytes @ 0x0
  1287                           
  1288  0070                     ?_RF24_getDynamicPayloadSize:	
  1289                           ; 1 bytes @ 0x0
  1290                           
  1291  0070                     ?_RF24_available:	
  1292                           ; 1 bytes @ 0x0
  1293                           
  1294  0070                     ?_internet_calculateMask:	
  1295                           ; 1 bytes @ 0x0
  1296                           
  1297  0070                     ?_internet_hasChild:	
  1298                           ; 1 bytes @ 0x0
  1299                           
  1300  0070                     ?_RF24_openWritingPipe:	
  1301                           ; 1 bytes @ 0x0
  1302                           
  1303  0070                     ?_RF24_stopListening:	
  1304                           ; 1 bytes @ 0x0
  1305                           
  1306  0070                     ?_RF24_startListening:	
  1307                           ; 1 bytes @ 0x0
  1308                           
  1309  0070                     ?_RF24_begin:	
  1310                           ; 1 bytes @ 0x0
  1311                           
  1312  0070                     ?_RF24_setAddressWidth:	
  1313                           ; 1 bytes @ 0x0
  1314                           
  1315  0070                     ?_RF24_enableDynamicPayloads:	
  1316                           ; 1 bytes @ 0x0
  1317                           
  1318  0070                     ?_RF24_setDataRate:	
  1319                           ; 1 bytes @ 0x0
  1320                           
  1321  0070                     ?_RF24_setCRCLength:	
  1322                           ; 1 bytes @ 0x0
  1323                           
  1324  0070                     ?_RF24_setAutoAck:	
  1325                           ; 1 bytes @ 0x0
  1326                           
  1327  0070                     ?_RF24_setPayloadSize:	
  1328                           ; 1 bytes @ 0x0
  1329                           
  1330  0070                     ?_SPI_exchangeByte:	
  1331                           ; 1 bytes @ 0x0
  1332                           
  1333  0070                     ?_RF24_setPALevel:	
  1334                           ; 1 bytes @ 0x0
  1335                           
  1336  0070                     ?_RF24_flush_rx:	
  1337                           ; 1 bytes @ 0x0
  1338                           
  1339  0070                     ?_RF24_flush_tx:	
  1340                           ; 1 bytes @ 0x0
  1341                           
  1342  0070                     ?_RF24_powerUp:	
  1343                           ; 1 bytes @ 0x0
  1344                           
  1345  0070                     ?_main:	
  1346                           ; 1 bytes @ 0x0
  1347                           
  1348  0070                     ?_ISR:	
  1349                           ; 1 bytes @ 0x0
  1350                           
  1351  0070                     ??_ISR:	
  1352                           ; 1 bytes @ 0x0
  1353                           
  1354  0070                     ?_RF24_read_register:	
  1355                           ; 1 bytes @ 0x0
  1356                           
  1357  0070                     ?_RF24_get_status:	
  1358                           ; 1 bytes @ 0x0
  1359                           
  1360  0070                     ?_timerInit:	
  1361                           ; 1 bytes @ 0x0
  1362                           
  1363                           
  1364                           ; 1 bytes @ 0x0
  1365  0070                     	ds	2
  1366  0072                     ??_SPI_initialize:
  1367  0072                     ??_Serial_write:	
  1368                           ; 1 bytes @ 0x2
  1369                           
  1370  0072                     ?_memcpy:	
  1371                           ; 1 bytes @ 0x2
  1372                           
  1373  0072                     ??_internet_calculateMask:	
  1374                           ; 1 bytes @ 0x2
  1375                           
  1376  0072                     ??_internet_hasChild:	
  1377                           ; 1 bytes @ 0x2
  1378                           
  1379  0072                     ??_SPI_exchangeByte:	
  1380                           ; 1 bytes @ 0x2
  1381                           
  1382  0072                     ??_timerInit:	
  1383                           ; 1 bytes @ 0x2
  1384                           
  1385  0072                     ?___lbdiv:	
  1386                           ; 1 bytes @ 0x2
  1387                           
  1388  0072                     ?___awdiv:	
  1389                           ; 1 bytes @ 0x2
  1390                           
  1391  0072                     ?_micros:	
  1392                           ; 2 bytes @ 0x2
  1393                           
  1394  0072                     ?___aldiv:	
  1395                           ; 4 bytes @ 0x2
  1396                           
  1397  0072                     internet_calculateMask@address:	
  1398                           ; 4 bytes @ 0x2
  1399                           
  1400  0072                     SPI_exchangeByte@byte:	
  1401                           ; 1 bytes @ 0x2
  1402                           
  1403  0072                     Serial_write@data:	
  1404                           ; 1 bytes @ 0x2
  1405                           
  1406  0072                     ___lbdiv@divisor:	
  1407                           ; 1 bytes @ 0x2
  1408                           
  1409  0072                     memcpy@s1:	
  1410                           ; 1 bytes @ 0x2
  1411                           
  1412  0072                     ___awdiv@divisor:	
  1413                           ; 1 bytes @ 0x2
  1414                           
  1415  0072                     ___aldiv@divisor:	
  1416                           ; 2 bytes @ 0x2
  1417                           
  1418                           
  1419                           ; 4 bytes @ 0x2
  1420  0072                     	ds	1
  1421  0073                     ?__$_logline_str:
  1422  0073                     ?_RF24_read_n_register:	
  1423                           ; 1 bytes @ 0x3
  1424                           
  1425  0073                     ??_RF24_read_register:	
  1426                           ; 1 bytes @ 0x3
  1427                           
  1428  0073                     ?_RF24_write_n_register:	
  1429                           ; 1 bytes @ 0x3
  1430                           
  1431  0073                     ??_RF24_get_status:	
  1432                           ; 1 bytes @ 0x3
  1433                           
  1434  0073                     ??___lbdiv:	
  1435                           ; 1 bytes @ 0x3
  1436                           
  1437  0073                     internet_calculateMask@mask:	
  1438                           ; 1 bytes @ 0x3
  1439                           
  1440  0073                     internet_hasChild@address:	
  1441                           ; 1 bytes @ 0x3
  1442                           
  1443  0073                     RF24_read_n_register@buf:	
  1444                           ; 1 bytes @ 0x3
  1445                           
  1446  0073                     timerInit@mhz:	
  1447                           ; 1 bytes @ 0x3
  1448                           
  1449  0073                     RF24_write_n_register@buffer:	
  1450                           ; 1 bytes @ 0x3
  1451                           
  1452  0073                     __$_logline_str@string:	
  1453                           ; 2 bytes @ 0x3
  1454                           
  1455  0073                     memcpy@n:	
  1456                           ; 2 bytes @ 0x3
  1457                           
  1458                           
  1459                           ; 2 bytes @ 0x3
  1460  0073                     	ds	1
  1461  0074                     ??_RF24_available:
  1462  0074                     RF24_read_n_register@len:	
  1463                           ; 1 bytes @ 0x4
  1464                           
  1465  0074                     RF24_read_register@mnemonic_addr:	
  1466                           ; 1 bytes @ 0x4
  1467                           
  1468  0074                     timerInit@prescaler:	
  1469                           ; 1 bytes @ 0x4
  1470                           
  1471  0074                     ___lbdiv@dividend:	
  1472                           ; 1 bytes @ 0x4
  1473                           
  1474  0074                     ___awdiv@dividend:	
  1475                           ; 1 bytes @ 0x4
  1476                           
  1477                           
  1478                           ; 2 bytes @ 0x4
  1479  0074                     	ds	1
  1480  0075                     ??_wait_init:
  1481  0075                     ??__$_logline_str:	
  1482                           ; 1 bytes @ 0x5
  1483                           
  1484  0075                     ??_memcpy:	
  1485                           ; 1 bytes @ 0x5
  1486                           
  1487  0075                     ??_RF24_read_n_register:	
  1488                           ; 1 bytes @ 0x5
  1489                           
  1490  0075                     RF24_read_register@result:	
  1491                           ; 1 bytes @ 0x5
  1492                           
  1493  0075                     RF24_write_n_register@length:	
  1494                           ; 1 bytes @ 0x5
  1495                           
  1496  0075                     wait_init@megaHertez:	
  1497                           ; 1 bytes @ 0x5
  1498                           
  1499  0075                     ___lbdiv@counter:	
  1500                           ; 1 bytes @ 0x5
  1501                           
  1502                           
  1503                           ; 1 bytes @ 0x5
  1504  0075                     	ds	1
  1505  0076                     ??_micros:
  1506  0076                     ?_RF24_getPALevel:	
  1507                           ; 1 bytes @ 0x6
  1508                           
  1509  0076                     ??_RF24_write_n_register:	
  1510                           ; 1 bytes @ 0x6
  1511                           
  1512  0076                     ?_RF24_write_register:	
  1513                           ; 1 bytes @ 0x6
  1514                           
  1515  0076                     ??___awdiv:	
  1516                           ; 1 bytes @ 0x6
  1517                           
  1518  0076                     RF24_read_n_register@mnemonic_addr:	
  1519                           ; 1 bytes @ 0x6
  1520                           
  1521  0076                     RF24_write_register@value:	
  1522                           ; 1 bytes @ 0x6
  1523                           
  1524  0076                     RF24_available@pipe:	
  1525                           ; 1 bytes @ 0x6
  1526                           
  1527  0076                     __$_logline_str@limit:	
  1528                           ; 1 bytes @ 0x6
  1529                           
  1530  0076                     ___lbdiv@quotient:	
  1531                           ; 1 bytes @ 0x6
  1532                           
  1533  0076                     memcpy@tmp:	
  1534                           ; 1 bytes @ 0x6
  1535                           
  1536  0076                     ___aldiv@dividend:	
  1537                           ; 1 bytes @ 0x6
  1538                           
  1539                           
  1540                           ; 4 bytes @ 0x6
  1541  0076                     	ds	1
  1542  0077                     ??_RF24_getPALevel:
  1543  0077                     ??_RF24_write_register:	
  1544                           ; 1 bytes @ 0x7
  1545                           
  1546  0077                     ?___awmod:	
  1547                           ; 1 bytes @ 0x7
  1548                           
  1549  0077                     RF24_write_n_register@mnemonic_addr:	
  1550                           ; 2 bytes @ 0x7
  1551                           
  1552  0077                     ___awdiv@counter:	
  1553                           ; 1 bytes @ 0x7
  1554                           
  1555  0077                     memcpy@d:	
  1556                           ; 1 bytes @ 0x7
  1557                           
  1558  0077                     ___awmod@divisor:	
  1559                           ; 1 bytes @ 0x7
  1560                           
  1561                           
  1562                           ; 2 bytes @ 0x7
  1563  0077                     	ds	1
  1564  0078                     ??_RF24_openWritingPipe:
  1565  0078                     RF24_write_register@mnemonic_addr:	
  1566                           ; 1 bytes @ 0x8
  1567                           
  1568  0078                     ___awdiv@sign:	
  1569                           ; 1 bytes @ 0x8
  1570                           
  1571  0078                     memcpy@s:	
  1572                           ; 1 bytes @ 0x8
  1573                           
  1574                           
  1575                           ; 1 bytes @ 0x8
  1576  0078                     	ds	1
  1577  0079                     ??_RF24_setChannel:
  1578  0079                     ?_RF24_read:	
  1579                           ; 1 bytes @ 0x9
  1580                           
  1581  0079                     ?_RF24_openReadingPipe:	
  1582                           ; 1 bytes @ 0x9
  1583                           
  1584  0079                     ??_RF24_stopListening:	
  1585                           ; 1 bytes @ 0x9
  1586                           
  1587  0079                     ??_RF24_startListening:	
  1588                           ; 1 bytes @ 0x9
  1589                           
  1590  0079                     ??_RF24_setAddressWidth:	
  1591                           ; 1 bytes @ 0x9
  1592                           
  1593  0079                     ??_RF24_enableDynamicPayloads:	
  1594                           ; 1 bytes @ 0x9
  1595                           
  1596  0079                     ??_RF24_setDataRate:	
  1597                           ; 1 bytes @ 0x9
  1598                           
  1599  0079                     ??_RF24_setCRCLength:	
  1600                           ; 1 bytes @ 0x9
  1601                           
  1602  0079                     ??_RF24_setAutoAck:	
  1603                           ; 1 bytes @ 0x9
  1604                           
  1605  0079                     ??_RF24_setPayloadSize:	
  1606                           ; 1 bytes @ 0x9
  1607                           
  1608  0079                     ?_RF24_setRetries:	
  1609                           ; 1 bytes @ 0x9
  1610                           
  1611  0079                     ??_RF24_setPALevel:	
  1612                           ; 1 bytes @ 0x9
  1613                           
  1614  0079                     ??_RF24_flush_rx:	
  1615                           ; 1 bytes @ 0x9
  1616                           
  1617  0079                     ??_RF24_flush_tx:	
  1618                           ; 1 bytes @ 0x9
  1619                           
  1620  0079                     ??_RF24_powerUp:	
  1621                           ; 1 bytes @ 0x9
  1622                           
  1623  0079                     RF24_read@len:	
  1624                           ; 1 bytes @ 0x9
  1625                           
  1626  0079                     RF24_openWritingPipe@address:	
  1627                           ; 1 bytes @ 0x9
  1628                           
  1629  0079                     RF24_setRetries@count:	
  1630                           ; 1 bytes @ 0x9
  1631                           
  1632  0079                     memcpy@d1:	
  1633                           ; 1 bytes @ 0x9
  1634                           
  1635  0079                     RF24_openReadingPipe@address:	
  1636                           ; 1 bytes @ 0x9
  1637                           
  1638  0079                     ___awdiv@quotient:	
  1639                           ; 2 bytes @ 0x9
  1640                           
  1641  0079                     ___awmod@dividend:	
  1642                           ; 2 bytes @ 0x9
  1643                           
  1644                           
  1645                           ; 2 bytes @ 0x9
  1646  0079                     	ds	1
  1647  007A                     ??_RF24_write:
  1648  007A                     ?_checkButton:	
  1649                           ; 1 bytes @ 0xA
  1650                           
  1651  007A                     ??___aldiv:	
  1652                           ; 1 bytes @ 0xA
  1653                           
  1654  007A                     checkButton@pinState:	
  1655                           ; 1 bytes @ 0xA
  1656                           
  1657  007A                     RF24_setPayloadSize@size:	
  1658                           ; 1 bytes @ 0xA
  1659                           
  1660  007A                     RF24_getDynamicPayloadSize@result:	
  1661                           ; 1 bytes @ 0xA
  1662                           
  1663  007A                     RF24_read@buf:	
  1664                           ; 1 bytes @ 0xA
  1665                           
  1666  007A                     RF24_setAutoAck@enable:	
  1667                           ; 1 bytes @ 0xA
  1668                           
  1669  007A                     RF24_setCRCLength@length:	
  1670                           ; 1 bytes @ 0xA
  1671                           
  1672  007A                     RF24_setChannel@channel:	
  1673                           ; 1 bytes @ 0xA
  1674                           
  1675  007A                     RF24_setRetries@delay:	
  1676                           ; 1 bytes @ 0xA
  1677                           
  1678  007A                     RF24_setAddressWidth@w:	
  1679                           ; 1 bytes @ 0xA
  1680                           
  1681                           
  1682                           ; 1 bytes @ 0xA
  1683  007A                     	ds	1
  1684  007B                     ??_internet_setChannel:
  1685                           
  1686                           	psect	cstackBANK0
  1687  0020                     __pcstackBANK0:	
  1688                           ; 1 bytes @ 0xB
  1689                           
  1690  0020                     ??_RF24_getDynamicPayloadSize:
  1691  0020                     ??_RF24_read:	
  1692                           ; 1 bytes @ 0x0
  1693                           
  1694  0020                     ??_RF24_openReadingPipe:	
  1695                           ; 1 bytes @ 0x0
  1696                           
  1697  0020                     ?_RF24_write:	
  1698                           ; 1 bytes @ 0x0
  1699                           
  1700  0020                     ??_RF24_setRetries:	
  1701                           ; 1 bytes @ 0x0
  1702                           
  1703  0020                     ??_checkButton:	
  1704                           ; 1 bytes @ 0x0
  1705                           
  1706  0020                     ??___awmod:	
  1707                           ; 1 bytes @ 0x0
  1708                           
  1709  0020                     internet_setChannel@channel:	
  1710                           ; 1 bytes @ 0x0
  1711                           
  1712  0020                     RF24_setPALevel@setup:	
  1713                           ; 1 bytes @ 0x0
  1714                           
  1715  0020                     RF24_write@len:	
  1716                           ; 1 bytes @ 0x0
  1717                           
  1718  0020                     RF24_setDataRate@speed:	
  1719                           ; 1 bytes @ 0x0
  1720                           
  1721  0020                     ___aldiv@counter:	
  1722                           ; 1 bytes @ 0x0
  1723                           
  1724                           
  1725                           ; 1 bytes @ 0x0
  1726  0020                     	ds	1
  1727  0021                     _RF24_setPALevel$675:
  1728  0021                     RF24_write@buf:	
  1729                           ; 1 bytes @ 0x1
  1730                           
  1731  0021                     RF24_setDataRate@setup:	
  1732                           ; 1 bytes @ 0x1
  1733                           
  1734  0021                     ___aldiv@sign:	
  1735                           ; 1 bytes @ 0x1
  1736                           
  1737  0021                     ___awmod@counter:	
  1738                           ; 1 bytes @ 0x1
  1739                           
  1740                           
  1741                           ; 1 bytes @ 0x1
  1742  0021                     	ds	1
  1743  0022                     RF24_setPALevel@level:
  1744  0022                     RF24_openReadingPipe@child:	
  1745                           ; 1 bytes @ 0x2
  1746                           
  1747  0022                     ___awmod@sign:	
  1748                           ; 1 bytes @ 0x2
  1749                           
  1750  0022                     ___aldiv@quotient:	
  1751                           ; 1 bytes @ 0x2
  1752                           
  1753                           
  1754                           ; 4 bytes @ 0x2
  1755  0022                     	ds	1
  1756  0023                     ??_internet_setNetworkPipe:
  1757  0023                     ??__$_logline_int:	
  1758                           ; 1 bytes @ 0x3
  1759                           
  1760  0023                     ?_internet_relay:	
  1761                           ; 1 bytes @ 0x3
  1762                           
  1763  0023                     ??_RF24_begin:	
  1764                           ; 1 bytes @ 0x3
  1765                           
  1766  0023                     internet_relay@size:	
  1767                           ; 1 bytes @ 0x3
  1768                           
  1769                           
  1770                           ; 1 bytes @ 0x3
  1771  0023                     	ds	1
  1772  0024                     ??_internet_relay:
  1773  0024                     _checkButton$149:	
  1774                           ; 1 bytes @ 0x4
  1775                           
  1776  0024                     internet_setNetworkPipe@pipe:	
  1777                           ; 1 bytes @ 0x4
  1778                           
  1779                           
  1780                           ; 1 bytes @ 0x4
  1781  0024                     	ds	1
  1782  0025                     ??_internet_setAddress:
  1783  0025                     checkButton@isPressed:	
  1784                           ; 1 bytes @ 0x5
  1785                           
  1786  0025                     internet_relay@dstMask:	
  1787                           ; 1 bytes @ 0x5
  1788                           
  1789                           
  1790                           ; 1 bytes @ 0x5
  1791  0025                     	ds	1
  1792  0026                     ?_Serial_begin:
  1793  0026                     ??_Network_begin:	
  1794                           ; 1 bytes @ 0x6
  1795                           
  1796  0026                     checkButton@btn:	
  1797                           ; 1 bytes @ 0x6
  1798                           
  1799  0026                     internet_relay@packetHeader:	
  1800                           ; 1 bytes @ 0x6
  1801                           
  1802  0026                     __$_logline_int$871:	
  1803                           ; 1 bytes @ 0x6
  1804                           
  1805  0026                     Serial_begin@baudrate:	
  1806                           ; 2 bytes @ 0x6
  1807                           
  1808                           
  1809                           ; 4 bytes @ 0x6
  1810  0026                     	ds	1
  1811  0027                     internet_relay@payload:
  1812  0027                     internet_setAddress@address:	
  1813                           ; 1 bytes @ 0x7
  1814                           
  1815                           
  1816                           ; 1 bytes @ 0x7
  1817  0027                     	ds	1
  1818  0028                     ?_internet_tx:
  1819  0028                     internet_tx@size:	
  1820                           ; 1 bytes @ 0x8
  1821                           
  1822  0028                     __$_logline_int$872:	
  1823                           ; 1 bytes @ 0x8
  1824                           
  1825                           
  1826                           ; 2 bytes @ 0x8
  1827  0028                     	ds	1
  1828  0029                     ??_internet_tx:
  1829                           
  1830                           ; 1 bytes @ 0x9
  1831  0029                     	ds	1
  1832  002A                     ??_Serial_begin:
  1833  002A                     internet_tx@packetHeader:	
  1834                           ; 1 bytes @ 0xA
  1835                           
  1836  002A                     __$_logline_int@v:	
  1837                           ; 1 bytes @ 0xA
  1838                           
  1839                           
  1840                           ; 1 bytes @ 0xA
  1841  002A                     	ds	1
  1842  002B                     internet_tx@payload:
  1843  002B                     __$_logline_int@t:	
  1844                           ; 1 bytes @ 0xB
  1845                           
  1846                           
  1847                           ; 1 bytes @ 0xB
  1848  002B                     	ds	1
  1849  002C                     ?_transport_udp_tx:
  1850  002C                     ?_transport_udp_process:	
  1851                           ; 1 bytes @ 0xC
  1852                           
  1853  002C                     transport_udp_process@size:	
  1854                           ; 1 bytes @ 0xC
  1855                           
  1856  002C                     transport_udp_tx@size:	
  1857                           ; 1 bytes @ 0xC
  1858                           
  1859                           
  1860                           ; 1 bytes @ 0xC
  1861  002C                     	ds	1
  1862  002D                     transport_udp_process@port:
  1863  002D                     transport_udp_tx@destination:	
  1864                           ; 1 bytes @ 0xD
  1865                           
  1866                           
  1867                           ; 1 bytes @ 0xD
  1868  002D                     	ds	1
  1869  002E                     ??_transport_udp_process:
  1870  002E                     transport_udp_tx@sourcePort:	
  1871                           ; 1 bytes @ 0xE
  1872                           
  1873                           
  1874                           ; 1 bytes @ 0xE
  1875  002E                     	ds	1
  1876  002F                     transport_udp_process@count:
  1877  002F                     transport_udp_tx@destinationPort:	
  1878                           ; 1 bytes @ 0xF
  1879                           
  1880                           
  1881                           ; 1 bytes @ 0xF
  1882  002F                     	ds	1
  1883  0030                     ??_transport_udp_tx:
  1884  0030                     transport_udp_process@payload:	
  1885                           ; 1 bytes @ 0x10
  1886                           
  1887                           
  1888                           ; 1 bytes @ 0x10
  1889  0030                     	ds	1
  1890  0031                     transport_udp_process@packet:
  1891  0031                     transport_udp_tx@payload:	
  1892                           ; 1 bytes @ 0x11
  1893                           
  1894                           
  1895                           ; 1 bytes @ 0x11
  1896  0031                     	ds	1
  1897  0032                     transport_udp_process@ppnt:
  1898  0032                     transport_udp_tx@packetHeader:	
  1899                           ; 1 bytes @ 0x12
  1900                           
  1901                           
  1902                           ; 1 bytes @ 0x12
  1903  0032                     	ds	1
  1904  0033                     ?_transport_udp_rx:
  1905  0033                     transport_udp_rx@size:	
  1906                           ; 1 bytes @ 0x13
  1907                           
  1908                           
  1909                           ; 1 bytes @ 0x13
  1910  0033                     	ds	1
  1911  0034                     ??_transport_udp_rx:
  1912                           
  1913                           ; 1 bytes @ 0x14
  1914  0034                     	ds	2
  1915  0036                     transport_udp_rx@packetHeader:
  1916  0036                     Serial_begin@x:	
  1917                           ; 1 bytes @ 0x16
  1918                           
  1919                           
  1920                           ; 2 bytes @ 0x16
  1921  0036                     	ds	1
  1922  0037                     transport_udp_rx@payload:
  1923                           
  1924                           ; 1 bytes @ 0x17
  1925  0037                     	ds	1
  1926  0038                     ?_internet_rx:
  1927  0038                     internet_rx@size:	
  1928                           ; 1 bytes @ 0x18
  1929                           
  1930                           
  1931                           ; 1 bytes @ 0x18
  1932  0038                     	ds	1
  1933  0039                     ??_internet_rx:
  1934                           
  1935                           ; 1 bytes @ 0x19
  1936  0039                     	ds	2
  1937  003B                     internet_rx@packetHeader:
  1938                           
  1939                           ; 1 bytes @ 0x1B
  1940  003B                     	ds	1
  1941  003C                     internet_rx@payload:
  1942                           
  1943                           ; 1 bytes @ 0x1C
  1944  003C                     	ds	1
  1945  003D                     ??_internet_process:
  1946                           
  1947                           ; 1 bytes @ 0x1D
  1948  003D                     	ds	1
  1949  003E                     internet_process@size:
  1950                           
  1951                           ; 1 bytes @ 0x1E
  1952  003E                     	ds	1
  1953  003F                     ??_main:
  1954                           
  1955                           ; 1 bytes @ 0x1F
  1956  003F                     	ds	4
  1957  0043                     main@var1:
  1958                           
  1959                           ; 1 bytes @ 0x23
  1960  0043                     	ds	1
  1961                           
  1962                           	psect	maintext
  1963  025F                     __pmaintext:	
  1964 ;;
  1965 ;;Main: autosize = 0, tempsize = 4, incstack = 0, save=0
  1966 ;;
  1967 ;; *************** function _main *****************
  1968 ;; Defined at:
  1969 ;;		line 77 in file "F:/GitHub/Graduation-Project/Lib-test/Embedded-shs/app/src/main.c"
  1970 ;; Parameters:    Size  Location     Type
  1971 ;;		None
  1972 ;; Auto vars:     Size  Location     Type
  1973 ;;  var1            1   35[BANK0 ] unsigned char 
  1974 ;; Return value:  Size  Location     Type
  1975 ;;                  1    wreg      void 
  1976 ;; Registers used:
  1977 ;;		wreg, fsr0l, fsr0h, status,2, status,0, btemp+1, pclath, cstack
  1978 ;; Tracked objects:
  1979 ;;		On entry : B00/0
  1980 ;;		On exit  : 0/0
  1981 ;;		Unchanged: 0/0
  1982 ;; Data sizes:     COMMON   BANK0   BANK1   BANK3   BANK2
  1983 ;;      Params:         0       0       0       0       0
  1984 ;;      Locals:         0       1       0       0       0
  1985 ;;      Temps:          0       4       0       0       0
  1986 ;;      Totals:         0       5       0       0       0
  1987 ;;Total ram usage:        5 bytes
  1988 ;; Hardware stack levels required when called: 9
  1989 ;; This function calls:
  1990 ;;		_Network_begin
  1991 ;;		_SPI_initialize
  1992 ;;		_Serial_begin
  1993 ;;		_Serial_write
  1994 ;;		__$_logline_str
  1995 ;;		_checkButton
  1996 ;;		_internet_process
  1997 ;;		_internet_setAddress
  1998 ;;		_internet_setChannel
  1999 ;;		_internet_setNetworkPipe
  2000 ;;		_micros
  2001 ;;		_transport_udp_tx
  2002 ;;		_wait_init
  2003 ;; This function is called by:
  2004 ;;		Startup code after reset
  2005 ;; This function uses a non-reentrant model
  2006 ;;
  2007                           
  2008  025F                     _main:	
  2009                           ;psect for function _main
  2010                           
  2011  025F                     l3339:	
  2012                           ;incstack = 0
  2013 ;; hardware stack exceeded
  2014                           ; Regs used in _main: [wreg-fsr0h+status,2+status,0+btemp+1+pclath+cstack]
  2015                           
  2016  025F  30FF               	movlw	255
  2017  0260  1683               	bsf	3,5	;RP0=1, select bank1
  2018  0261  1303               	bcf	3,6	;RP1=0, select bank1
  2019  0262  0086               	movwf	6	;volatile
  2020  0263                     l3341:
  2021  0263  1088               	bcf	8,1	;volatile
  2022  0264                     l3343:
  2023  0264  1381               	bcf	1,7	;volatile
  2024  0265                     l3345:
  2025  0265  1408               	bsf	8,0	;volatile
  2026  0266                     l3347:
  2027  0266  3000               	movlw	0
  2028  0267  1283               	bcf	3,5	;RP0=0, select bank0
  2029  0268  1303               	bcf	3,6	;RP1=0, select bank0
  2030  0269  00A9               	movwf	Serial_begin@baudrate+3
  2031  026A  3000               	movlw	0
  2032  026B  00A8               	movwf	Serial_begin@baudrate+2
  2033  026C  3025               	movlw	37
  2034  026D  00A7               	movwf	Serial_begin@baudrate+1
  2035  026E  3080               	movlw	128
  2036  026F  00A6               	movwf	Serial_begin@baudrate
  2037  0270  120A  118A  244F  120A  118A  	fcall	_Serial_begin
  2038  0275                     l3349:
  2039  0275  3010               	movlw	16
  2040  0276  120A  158A  21C8  120A  118A  	fcall	_wait_init
  2041  027B                     l3351:
  2042  027B  120A  158A  225B  120A  118A  	fcall	_SPI_initialize
  2043  0280                     l3353:
  2044  0280  120A  158A  26FD  120A  118A  	fcall	_Network_begin
  2045  0285                     l3355:
  2046  0285  3073               	movlw	115
  2047  0286  120A  118A  20F6  120A  118A  	fcall	_internet_setChannel
  2048  028B                     l3357:
  2049  028B  30E0               	movlw	(low (_network_pipe| 0))& (0+255)
  2050  028C  120A  158A  23FC  120A  118A  	fcall	_internet_setNetworkPipe
  2051  0291                     l3359:
  2052  0291  3002               	movlw	2
  2053  0292  120A  158A  2608  120A  118A  	fcall	_internet_setAddress
  2054  0297                     l3361:
  2055  0297  3035               	movlw	low (STR_1| (0+32768))
  2056  0298  00F3               	movwf	__$_logline_str@string
  2057  0299  3081               	movlw	high (STR_1| (0+32768))
  2058  029A  00F4               	movwf	__$_logline_str@string+1
  2059  029B  120A  158A  2574  120A  118A  	fcall	__$_logline_str
  2060  02A0                     l3363:
  2061  02A0  300A               	movlw	10
  2062  02A1  120A  158A  2212  120A  118A  	fcall	_Serial_write
  2063  02A6                     l3365:
  2064  02A6  120A  158A  24EB  120A  118A  	fcall	_internet_process
  2065  02AB                     l3367:
  2066  02AB  120A  158A  227D  120A  118A  	fcall	_micros
  2067  02B0  0875               	movf	?_micros+3,w
  2068  02B1  1283               	bcf	3,5	;RP0=0, select bank0
  2069  02B2  1303               	bcf	3,6	;RP1=0, select bank0
  2070  02B3  00D0               	movwf	_startTime+3
  2071  02B4  0874               	movf	?_micros+2,w
  2072  02B5  00CF               	movwf	_startTime+2
  2073  02B6  0873               	movf	?_micros+1,w
  2074  02B7  00CE               	movwf	_startTime+1
  2075  02B8  0872               	movf	?_micros,w
  2076  02B9  00CD               	movwf	_startTime
  2077  02BA                     l3369:
  2078  02BA  084D               	movf	_startTime,w
  2079  02BB  00BF               	movwf	??_main
  2080  02BC  084E               	movf	_startTime+1,w
  2081  02BD  00C0               	movwf	??_main+1
  2082  02BE  084F               	movf	_startTime+2,w
  2083  02BF  00C1               	movwf	??_main+2
  2084  02C0  0850               	movf	_startTime+3,w
  2085  02C1  00C2               	movwf	??_main+3
  2086  02C2  0851               	movf	_stopTime,w
  2087  02C3  02BF               	subwf	??_main,f
  2088  02C4  0852               	movf	_stopTime+1,w
  2089  02C5  1C03               	skipc
  2090  02C6  0F52               	incfsz	_stopTime+1,w
  2091  02C7  2AC9               	goto	u2421
  2092  02C8  2ACA               	goto	u2422
  2093  02C9                     u2421:
  2094  02C9  02C0               	subwf	??_main+1,f
  2095  02CA                     u2422:
  2096  02CA  0853               	movf	_stopTime+2,w
  2097  02CB  1C03               	skipc
  2098  02CC  0F53               	incfsz	_stopTime+2,w
  2099  02CD  2ACF               	goto	u2423
  2100  02CE  2AD0               	goto	u2424
  2101  02CF                     u2423:
  2102  02CF  02C1               	subwf	??_main+2,f
  2103  02D0                     u2424:
  2104  02D0  0854               	movf	_stopTime+3,w
  2105  02D1  1C03               	skipc
  2106  02D2  0F54               	incfsz	_stopTime+3,w
  2107  02D3  2AD5               	goto	u2425
  2108  02D4  2AD6               	goto	u2426
  2109  02D5                     u2425:
  2110  02D5  02C2               	subwf	??_main+3,f
  2111  02D6                     u2426:
  2112  02D6  0842               	movf	??_main+3,w
  2113  02D7  1D03               	btfss	3,2
  2114  02D8  2AE7               	goto	u2430
  2115  02D9  0841               	movf	??_main+2,w
  2116  02DA  1D03               	btfss	3,2
  2117  02DB  2AE7               	goto	u2430
  2118  02DC  0840               	movf	??_main+1,w
  2119  02DD  1D03               	btfss	3,2
  2120  02DE  2AE7               	goto	u2430
  2121  02DF  3097               	movlw	151
  2122  02E0  023F               	subwf	??_main,w
  2123  02E1  1D03               	skipz
  2124  02E2  2AE3               	goto	u2433
  2125  02E3                     u2433:
  2126  02E3  1C03               	btfss	3,0
  2127  02E4  2AE6               	goto	u2431
  2128  02E5  2AE7               	goto	u2430
  2129  02E6                     u2431:
  2130  02E6  2AFB               	goto	l3375
  2131  02E7                     u2430:
  2132  02E7                     l3371:
  2133  02E7  1283               	bcf	3,5	;RP0=0, select bank0
  2134  02E8  1303               	bcf	3,6	;RP1=0, select bank0
  2135  02E9  0850               	movf	_startTime+3,w
  2136  02EA  00D4               	movwf	_stopTime+3
  2137  02EB  084F               	movf	_startTime+2,w
  2138  02EC  00D3               	movwf	_stopTime+2
  2139  02ED  084E               	movf	_startTime+1,w
  2140  02EE  00D2               	movwf	_stopTime+1
  2141  02EF  084D               	movf	_startTime,w
  2142  02F0  00D1               	movwf	_stopTime
  2143  02F1                     l3373:
  2144  02F1  1861               	btfsc	_prop,0
  2145  02F2  2AF4               	goto	u2441
  2146  02F3  2AF8               	goto	u2440
  2147  02F4                     u2441:
  2148  02F4  1283               	bcf	3,5	;RP0=0, select bank0
  2149  02F5  1303               	bcf	3,6	;RP1=0, select bank0
  2150  02F6  1488               	bsf	8,1	;volatile
  2151  02F7  2AFB               	goto	u2454
  2152  02F8                     u2440:
  2153  02F8  1283               	bcf	3,5	;RP0=0, select bank0
  2154  02F9  1303               	bcf	3,6	;RP1=0, select bank0
  2155  02FA  1088               	bcf	8,1	;volatile
  2156  02FB                     u2454:
  2157  02FB                     l3375:
  2158  02FB  3000               	movlw	0
  2159  02FC  1283               	bcf	3,5	;RP0=0, select bank0
  2160  02FD  1303               	bcf	3,6	;RP1=0, select bank0
  2161  02FE  1808               	btfsc	8,0	;volatile
  2162  02FF  3001               	movlw	1
  2163  0300  00FA               	movwf	checkButton@pinState
  2164  0301  305C               	movlw	(low (_btn1| 0))& (0+255)
  2165  0302  120A  118A  2734  120A  118A  	fcall	_checkButton
  2166  0307  1283               	bcf	3,5	;RP0=0, select bank0
  2167  0308  1303               	bcf	3,6	;RP1=0, select bank0
  2168  0309  00BF               	movwf	??_main
  2169  030A  083F               	movf	??_main,w
  2170  030B  00C3               	movwf	main@var1
  2171  030C                     l3377:
  2172  030C  0343               	decf	main@var1,w
  2173  030D  1D03               	btfss	3,2
  2174  030E  2B10               	goto	u2461
  2175  030F  2B11               	goto	u2460
  2176  0310                     u2461:
  2177  0310  2B4E               	goto	l3395
  2178  0311                     u2460:
  2179  0311                     l3379:
  2180  0311  30B9               	movlw	low (STR_2| (0+32768))
  2181  0312  00F3               	movwf	__$_logline_str@string
  2182  0313  3081               	movlw	high (STR_2| (0+32768))
  2183  0314  00F4               	movwf	__$_logline_str@string+1
  2184  0315  120A  158A  2574  120A  118A  	fcall	__$_logline_str
  2185  031A                     l3381:
  2186  031A  300A               	movlw	10
  2187  031B  120A  158A  2212  120A  118A  	fcall	_Serial_write
  2188  0320                     l3383:
  2189  0320  1283               	bcf	3,5	;RP0=0, select bank0
  2190  0321  1303               	bcf	3,6	;RP1=0, select bank0
  2191  0322  09E1               	comf	_prop,f
  2192  0323                     l3385:
  2193  0323  1683               	bsf	3,5	;RP0=1, select bank1
  2194  0324  1303               	bcf	3,6	;RP1=0, select bank1
  2195  0325  01C7               	clrf	(_buffer_tx^(0+128)+7)
  2196  0326                     l3387:
  2197  0326  1283               	bcf	3,5	;RP0=0, select bank0
  2198  0327  1303               	bcf	3,6	;RP1=0, select bank0
  2199  0328  0861               	movf	_prop,w
  2200  0329  00BF               	movwf	??_main
  2201  032A  083F               	movf	??_main,w
  2202  032B  1683               	bsf	3,5	;RP0=1, select bank1
  2203  032C  1303               	bcf	3,6	;RP1=0, select bank1
  2204  032D  00C8               	movwf	(_buffer_tx^(0+128)+8)
  2205  032E                     l3389:
  2206  032E  01C6               	clrf	(_buffer_tx^(0+128)+6)
  2207  032F  0AC6               	incf	(_buffer_tx^(0+128)+6),f
  2208  0330                     l3391:
  2209  0330  3003               	movlw	3
  2210  0331  1283               	bcf	3,5	;RP0=0, select bank0
  2211  0332  1303               	bcf	3,6	;RP1=0, select bank0
  2212  0333  00BF               	movwf	??_main
  2213  0334  083F               	movf	??_main,w
  2214  0335  1683               	bsf	3,5	;RP0=1, select bank1
  2215  0336  1303               	bcf	3,6	;RP1=0, select bank1
  2216  0337  00C5               	movwf	(_buffer_tx^(0+128)+5)
  2217  0338                     l3393:
  2218  0338  3020               	movlw	32
  2219  0339  1283               	bcf	3,5	;RP0=0, select bank0
  2220  033A  1303               	bcf	3,6	;RP1=0, select bank0
  2221  033B  00BF               	movwf	??_main
  2222  033C  083F               	movf	??_main,w
  2223  033D  00AC               	movwf	transport_udp_tx@size
  2224  033E  01AD               	clrf	transport_udp_tx@destination
  2225  033F  0AAD               	incf	transport_udp_tx@destination,f
  2226  0340  3006               	movlw	6
  2227  0341  00C0               	movwf	??_main+1
  2228  0342  0840               	movf	??_main+1,w
  2229  0343  00AE               	movwf	transport_udp_tx@sourcePort
  2230  0344  3006               	movlw	6
  2231  0345  00C1               	movwf	??_main+2
  2232  0346  0841               	movf	??_main+2,w
  2233  0347  00AF               	movwf	transport_udp_tx@destinationPort
  2234  0348  30C0               	movlw	(low (_buffer_tx| 0))& (0+255)
  2235  0349  120A  158A  25A5  120A  118A  	fcall	_transport_udp_tx
  2236  034E                     l3395:
  2237  034E  3097               	movlw	low (STR_3| (0+32768))
  2238  034F  00F3               	movwf	__$_logline_str@string
  2239  0350  3081               	movlw	high (STR_3| (0+32768))
  2240  0351  00F4               	movwf	__$_logline_str@string+1
  2241  0352  120A  158A  2574  120A  118A  	fcall	__$_logline_str
  2242  0357                     l3397:
  2243  0357  300A               	movlw	10
  2244  0358  120A  158A  2212  120A  118A  	fcall	_Serial_write
  2245  035D  2A97               	goto	l3361
  2246  035E  120A  118A  280C   	ljmp	start
  2247  0361                     __end_of_main:
  2248                           
  2249                           	psect	text1
  2250  09C8                     __ptext1:	
  2251 ;; *************** function _wait_init *****************
  2252 ;; Defined at:
  2253 ;;		line 3 in file "F:/GitHub/Graduation-Project/Lib-test/Embedded-shs/libs/wait.c"
  2254 ;; Parameters:    Size  Location     Type
  2255 ;;  megaHertez      1    wreg     unsigned char 
  2256 ;; Auto vars:     Size  Location     Type
  2257 ;;  megaHertez      1    5[COMMON] unsigned char 
  2258 ;; Return value:  Size  Location     Type
  2259 ;;                  1    wreg      void 
  2260 ;; Registers used:
  2261 ;;		wreg, status,2, status,0, pclath, cstack
  2262 ;; Tracked objects:
  2263 ;;		On entry : 0/0
  2264 ;;		On exit  : 0/0
  2265 ;;		Unchanged: 0/0
  2266 ;; Data sizes:     COMMON   BANK0   BANK1   BANK3   BANK2
  2267 ;;      Params:         0       0       0       0       0
  2268 ;;      Locals:         1       0       0       0       0
  2269 ;;      Temps:          0       0       0       0       0
  2270 ;;      Totals:         1       0       0       0       0
  2271 ;;Total ram usage:        1 bytes
  2272 ;; Hardware stack levels used: 1
  2273 ;; Hardware stack levels required when called: 3
  2274 ;; This function calls:
  2275 ;;		_timerInit
  2276 ;; This function is called by:
  2277 ;;		_main
  2278 ;; This function uses a non-reentrant model
  2279 ;;
  2280                           
  2281  09C8                     _wait_init:	
  2282                           ;psect for function _wait_init
  2283                           
  2284                           
  2285                           ;incstack = 0
  2286                           ; Regs used in _wait_init: [wreg+status,2+status,0+pclath+cstack]
  2287                           ;wait_init@megaHertez stored from wreg
  2288  09C8  00F5               	movwf	wait_init@megaHertez
  2289  09C9                     l2701:
  2290                           
  2291                           ;F:/GitHub/Graduation-Project/Lib-test/Embedded-shs/libs/wait.c: 3: void wait_init(uint8
      +                          _t megaHertez);F:/GitHub/Graduation-Project/Lib-test/Embedded-shs/libs/wait.c: 4: {;F:/G
      +                          itHub/Graduation-Project/Lib-test/Embedded-shs/libs/wait.c: 5:     timerInit(megaHertez)
      +                          ;
  2292  09C9  0875               	movf	wait_init@megaHertez,w
  2293  09CA  120A  158A  26BE  120A  158A  	fcall	_timerInit
  2294  09CF                     l619:
  2295  09CF  0008               	return
  2296  09D0                     __end_of_wait_init:
  2297                           
  2298                           	psect	text2
  2299  0EBE                     __ptext2:	
  2300 ;; *************** function _timerInit *****************
  2301 ;; Defined at:
  2302 ;;		line 3 in file "F:/GitHub/Graduation-Project/Lib-test/Embedded-shs/libs/time.c"
  2303 ;; Parameters:    Size  Location     Type
  2304 ;;  mhz             1    wreg     unsigned char 
  2305 ;; Auto vars:     Size  Location     Type
  2306 ;;  mhz             1    3[COMMON] unsigned char 
  2307 ;;  prescaler       1    4[COMMON] unsigned char 
  2308 ;; Return value:  Size  Location     Type
  2309 ;;                  1    wreg      void 
  2310 ;; Registers used:
  2311 ;;		wreg, status,2, status,0
  2312 ;; Tracked objects:
  2313 ;;		On entry : 0/0
  2314 ;;		On exit  : 0/0
  2315 ;;		Unchanged: 0/0
  2316 ;; Data sizes:     COMMON   BANK0   BANK1   BANK3   BANK2
  2317 ;;      Params:         0       0       0       0       0
  2318 ;;      Locals:         2       0       0       0       0
  2319 ;;      Temps:          1       0       0       0       0
  2320 ;;      Totals:         3       0       0       0       0
  2321 ;;Total ram usage:        3 bytes
  2322 ;; Hardware stack levels used: 1
  2323 ;; Hardware stack levels required when called: 2
  2324 ;; This function calls:
  2325 ;;		Nothing
  2326 ;; This function is called by:
  2327 ;;		_wait_init
  2328 ;; This function uses a non-reentrant model
  2329 ;;
  2330                           
  2331  0EBE                     _timerInit:	
  2332                           ;psect for function _timerInit
  2333                           
  2334                           
  2335                           ;incstack = 0
  2336                           ; Regs used in _timerInit: [wreg+status,2+status,0]
  2337                           ;timerInit@mhz stored from wreg
  2338  0EBE  00F3               	movwf	timerInit@mhz
  2339  0EBF                     l2593:
  2340                           
  2341                           ;F:/GitHub/Graduation-Project/Lib-test/Embedded-shs/libs/time.c: 3: void timerInit(uint8
      +                          _t mhz);F:/GitHub/Graduation-Project/Lib-test/Embedded-shs/libs/time.c: 4: {;F:/GitHub/G
      +                          raduation-Project/Lib-test/Embedded-shs/libs/time.c: 5:     mhz >>= 2;
  2342  0EBF  1003               	clrc
  2343  0EC0  0CF3               	rrf	timerInit@mhz,f
  2344  0EC1  1003               	clrc
  2345  0EC2  0CF3               	rrf	timerInit@mhz,f
  2346  0EC3                     l2595:
  2347                           
  2348                           ;F:/GitHub/Graduation-Project/Lib-test/Embedded-shs/libs/time.c: 6:     uint8_t prescale
      +                          r = 0;
  2349  0EC3  01F4               	clrf	timerInit@prescaler
  2350                           
  2351                           ;F:/GitHub/Graduation-Project/Lib-test/Embedded-shs/libs/time.c: 7:     while (mhz && !(
      +                          mhz & 1))
  2352  0EC4  2ECB               	goto	l2601
  2353  0EC5                     l2597:
  2354                           
  2355                           ;F:/GitHub/Graduation-Project/Lib-test/Embedded-shs/libs/time.c: 8:     {;F:/GitHub/Grad
      +                          uation-Project/Lib-test/Embedded-shs/libs/time.c: 9:         prescaler++;
  2356  0EC5  3001               	movlw	1
  2357  0EC6  00F2               	movwf	??_timerInit
  2358  0EC7  0872               	movf	??_timerInit,w
  2359  0EC8  07F4               	addwf	timerInit@prescaler,f
  2360  0EC9                     l2599:
  2361                           
  2362                           ;F:/GitHub/Graduation-Project/Lib-test/Embedded-shs/libs/time.c: 10:         mhz >>= 1;
  2363  0EC9  1003               	clrc
  2364  0ECA  0CF3               	rrf	timerInit@mhz,f
  2365  0ECB                     l2601:
  2366                           
  2367                           ;F:/GitHub/Graduation-Project/Lib-test/Embedded-shs/libs/time.c: 7:     while (mhz && !(
      +                          mhz & 1))
  2368  0ECB  0873               	movf	timerInit@mhz,w
  2369  0ECC  1903               	btfsc	3,2
  2370  0ECD  2ECF               	goto	u1601
  2371  0ECE  2ED0               	goto	u1600
  2372  0ECF                     u1601:
  2373  0ECF  2ED4               	goto	l586
  2374  0ED0                     u1600:
  2375  0ED0                     l2603:
  2376  0ED0  1C73               	btfss	timerInit@mhz,0
  2377  0ED1  2ED3               	goto	u1611
  2378  0ED2  2ED4               	goto	u1610
  2379  0ED3                     u1611:
  2380  0ED3  2EC5               	goto	l2597
  2381  0ED4                     u1610:
  2382  0ED4                     l586:
  2383                           
  2384                           ;F:/GitHub/Graduation-Project/Lib-test/Embedded-shs/libs/time.c: 16:     PEIE = 1;
  2385  0ED4  170B               	bsf	11,6	;volatile
  2386                           
  2387                           ;F:/GitHub/Graduation-Project/Lib-test/Embedded-shs/libs/time.c: 17:     GIE = 1;
  2388  0ED5  178B               	bsf	11,7	;volatile
  2389                           
  2390                           ;F:/GitHub/Graduation-Project/Lib-test/Embedded-shs/libs/time.c: 18:     TMR1IE = 1;
  2391  0ED6  1683               	bsf	3,5	;RP0=1, select bank1
  2392  0ED7  1303               	bcf	3,6	;RP1=0, select bank1
  2393  0ED8  140C               	bsf	12,0	;volatile
  2394                           
  2395                           ;F:/GitHub/Graduation-Project/Lib-test/Embedded-shs/libs/time.c: 19:     TMR1CS = 0;
  2396  0ED9  1283               	bcf	3,5	;RP0=0, select bank0
  2397  0EDA  1303               	bcf	3,6	;RP1=0, select bank0
  2398  0EDB  1090               	bcf	16,1	;volatile
  2399                           
  2400                           ;F:/GitHub/Graduation-Project/Lib-test/Embedded-shs/libs/time.c: 20:     T1OSCEN = 1;
  2401  0EDC  1590               	bsf	16,3	;volatile
  2402  0EDD                     l2605:
  2403                           
  2404                           ;F:/GitHub/Graduation-Project/Lib-test/Embedded-shs/libs/time.c: 21:     T1CKPS1 = (pres
      +                          caler >> 1);
  2405  0EDD  0874               	movf	timerInit@prescaler,w
  2406  0EDE  00F2               	movwf	??_timerInit
  2407  0EDF  3001               	movlw	1
  2408  0EE0                     u1625:
  2409  0EE0  1003               	clrc
  2410  0EE1  0CF2               	rrf	??_timerInit,f
  2411  0EE2  3EFF               	addlw	-1
  2412  0EE3  1D03               	skipz
  2413  0EE4  2EE0               	goto	u1625
  2414  0EE5  1872               	btfsc	??_timerInit,0
  2415  0EE6  2EE8               	goto	u1631
  2416  0EE7  2EEC               	goto	u1630
  2417  0EE8                     u1631:
  2418  0EE8  1283               	bcf	3,5	;RP0=0, select bank0
  2419  0EE9  1303               	bcf	3,6	;RP1=0, select bank0
  2420  0EEA  1690               	bsf	16,5	;volatile
  2421  0EEB  2EEF               	goto	u1644
  2422  0EEC                     u1630:
  2423  0EEC  1283               	bcf	3,5	;RP0=0, select bank0
  2424  0EED  1303               	bcf	3,6	;RP1=0, select bank0
  2425  0EEE  1290               	bcf	16,5	;volatile
  2426  0EEF                     u1644:
  2427  0EEF                     l2607:
  2428                           
  2429                           ;F:/GitHub/Graduation-Project/Lib-test/Embedded-shs/libs/time.c: 22:     T1CKPS0 = (pres
      +                          caler & 1);
  2430  0EEF  1874               	btfsc	timerInit@prescaler,0
  2431  0EF0  2EF2               	goto	u1651
  2432  0EF1  2EF6               	goto	u1650
  2433  0EF2                     u1651:
  2434  0EF2  1283               	bcf	3,5	;RP0=0, select bank0
  2435  0EF3  1303               	bcf	3,6	;RP1=0, select bank0
  2436  0EF4  1610               	bsf	16,4	;volatile
  2437  0EF5  2EF9               	goto	u1664
  2438  0EF6                     u1650:
  2439  0EF6  1283               	bcf	3,5	;RP0=0, select bank0
  2440  0EF7  1303               	bcf	3,6	;RP1=0, select bank0
  2441  0EF8  1210               	bcf	16,4	;volatile
  2442  0EF9                     u1664:
  2443  0EF9                     l2609:
  2444                           
  2445                           ;F:/GitHub/Graduation-Project/Lib-test/Embedded-shs/libs/time.c: 23:     TMR1ON = 1;
  2446  0EF9  1410               	bsf	16,0	;volatile
  2447  0EFA                     l2611:
  2448                           
  2449                           ;F:/GitHub/Graduation-Project/Lib-test/Embedded-shs/libs/time.c: 24:     TMR1 = 0;
  2450  0EFA  018E               	clrf	14	;volatile
  2451  0EFB  018F               	clrf	15	;volatile
  2452  0EFC                     l587:
  2453  0EFC  0008               	return
  2454  0EFD                     __end_of_timerInit:
  2455                           
  2456                           	psect	text3
  2457  0DA5                     __ptext3:	
  2458 ;; *************** function _transport_udp_tx *****************
  2459 ;; Defined at:
  2460 ;;		line 3 in file "F:/GitHub/Graduation-Project/Lib-test/Embedded-shs/libs/transport.c"
  2461 ;; Parameters:    Size  Location     Type
  2462 ;;  payload         1    wreg     PTR unsigned char 
  2463 ;;		 -> buffer_tx(32), 
  2464 ;;  size            1   12[BANK0 ] unsigned char 
  2465 ;;  destination     1   13[BANK0 ] unsigned char 
  2466 ;;  sourcePort      1   14[BANK0 ] unsigned char 
  2467 ;;  destinationP    1   15[BANK0 ] unsigned char 
  2468 ;; Auto vars:     Size  Location     Type
  2469 ;;  payload         1   17[BANK0 ] PTR unsigned char 
  2470 ;;		 -> buffer_tx(32), 
  2471 ;;  packetHeader    1   18[BANK0 ] PTR struct UDPPacket
  2472 ;;		 -> buffer_tx(32), 
  2473 ;; Return value:  Size  Location     Type
  2474 ;;                  1    wreg      void 
  2475 ;; Registers used:
  2476 ;;		wreg, fsr0l, fsr0h, status,2, status,0, btemp+1, pclath, cstack
  2477 ;; Tracked objects:
  2478 ;;		On entry : 0/0
  2479 ;;		On exit  : 0/0
  2480 ;;		Unchanged: 0/0
  2481 ;; Data sizes:     COMMON   BANK0   BANK1   BANK3   BANK2
  2482 ;;      Params:         0       4       0       0       0
  2483 ;;      Locals:         0       2       0       0       0
  2484 ;;      Temps:          0       1       0       0       0
  2485 ;;      Totals:         0       7       0       0       0
  2486 ;;Total ram usage:        7 bytes
  2487 ;; Hardware stack levels used: 1
  2488 ;; Hardware stack levels required when called: 8
  2489 ;; This function calls:
  2490 ;;		_internet_tx
  2491 ;; This function is called by:
  2492 ;;		_main
  2493 ;; This function uses a non-reentrant model
  2494 ;;
  2495                           
  2496  0DA5                     _transport_udp_tx:	
  2497                           ;psect for function _transport_udp_tx
  2498                           
  2499                           
  2500                           ;incstack = 0
  2501 ;; hardware stack exceeded
  2502                           ; Regs used in _transport_udp_tx: [wreg-fsr0h+status,2+status,0+btemp+1+pclath+cstack]
  2503                           ;transport_udp_tx@payload stored from wreg
  2504  0DA5  1283               	bcf	3,5	;RP0=0, select bank0
  2505  0DA6  1303               	bcf	3,6	;RP1=0, select bank0
  2506  0DA7  00B1               	movwf	transport_udp_tx@payload
  2507  0DA8                     l3327:
  2508                           
  2509                           ;F:/GitHub/Graduation-Project/Lib-test/Embedded-shs/libs/transport.c: 3: void transport_
      +                          udp_tx(uint8_t *payload, uint8_t size, uint8_t destination, uint8_t sourcePort, uint8_t 
      +                          destinationPort);F:/GitHub/Graduation-Project/Lib-test/Embedded-shs/libs/transport.c: 4:
      +                           {;F:/GitHub/Graduation-Project/Lib-test/Embedded-shs/libs/transport.c: 5:     struct UD
      +                          PPacket *packetHeader = (struct UDPPacket *)payload;
  2510  0DA8  0831               	movf	transport_udp_tx@payload,w
  2511  0DA9  00B0               	movwf	??_transport_udp_tx
  2512  0DAA  0830               	movf	??_transport_udp_tx,w
  2513  0DAB  00B2               	movwf	transport_udp_tx@packetHeader
  2514  0DAC                     l3329:
  2515                           
  2516                           ;F:/GitHub/Graduation-Project/Lib-test/Embedded-shs/libs/transport.c: 6:     packetHeade
      +                          r->protocol = 1;
  2517  0DAC  0A32               	incf	transport_udp_tx@packetHeader,w
  2518  0DAD  0084               	movwf	4
  2519  0DAE  1383               	bcf	3,7	;select IRP bank0
  2520  0DAF  0180               	clrf	0
  2521  0DB0  0A80               	incf	0,f
  2522  0DB1                     l3331:
  2523                           
  2524                           ;F:/GitHub/Graduation-Project/Lib-test/Embedded-shs/libs/transport.c: 7:     packetHeade
      +                          r->destination = destination;
  2525  0DB1  082D               	movf	transport_udp_tx@destination,w
  2526  0DB2  00B0               	movwf	??_transport_udp_tx
  2527  0DB3  0832               	movf	transport_udp_tx@packetHeader,w
  2528  0DB4  3E03               	addlw	3
  2529  0DB5  0084               	movwf	4
  2530  0DB6  0830               	movf	??_transport_udp_tx,w
  2531  0DB7  0080               	movwf	0
  2532  0DB8                     l3333:
  2533                           
  2534                           ;F:/GitHub/Graduation-Project/Lib-test/Embedded-shs/libs/transport.c: 8:     packetHeade
      +                          r->sourcePort = sourcePort;
  2535  0DB8  0832               	movf	transport_udp_tx@packetHeader,w
  2536  0DB9  3E04               	addlw	4
  2537  0DBA  0084               	movwf	4
  2538  0DBB  0800               	movf	0,w
  2539  0DBC  062E               	xorwf	transport_udp_tx@sourcePort,w
  2540  0DBD  39F0               	andlw	-16
  2541  0DBE  062E               	xorwf	transport_udp_tx@sourcePort,w
  2542  0DBF  0080               	movwf	0
  2543  0DC0                     l3335:
  2544                           
  2545                           ;F:/GitHub/Graduation-Project/Lib-test/Embedded-shs/libs/transport.c: 9:     packetHeade
      +                          r->destinationPort = destinationPort;
  2546  0DC0  082F               	movf	transport_udp_tx@destinationPort,w
  2547  0DC1  00B0               	movwf	??_transport_udp_tx
  2548  0DC2  0832               	movf	transport_udp_tx@packetHeader,w
  2549  0DC3  3E04               	addlw	4
  2550  0DC4  0084               	movwf	4
  2551  0DC5  0EB0               	swapf	??_transport_udp_tx,f
  2552  0DC6  0800               	movf	0,w
  2553  0DC7  0630               	xorwf	??_transport_udp_tx,w
  2554  0DC8  390F               	andlw	-241
  2555  0DC9  0630               	xorwf	??_transport_udp_tx,w
  2556  0DCA  0080               	movwf	0
  2557  0DCB                     l3337:
  2558                           
  2559                           ;F:/GitHub/Graduation-Project/Lib-test/Embedded-shs/libs/transport.c: 10:     internet_t
      +                          x(payload, size);
  2560  0DCB  082C               	movf	transport_udp_tx@size,w
  2561  0DCC  00B0               	movwf	??_transport_udp_tx
  2562  0DCD  0830               	movf	??_transport_udp_tx,w
  2563  0DCE  00A8               	movwf	internet_tx@size
  2564  0DCF  0831               	movf	transport_udp_tx@payload,w
  2565  0DD0  120A  158A  23BB  120A  158A  	fcall	_internet_tx
  2566  0DD5                     l609:
  2567  0DD5  0008               	return
  2568  0DD6                     __end_of_transport_udp_tx:
  2569                           
  2570                           	psect	text4
  2571  0BBB                     __ptext4:	
  2572 ;; *************** function _internet_tx *****************
  2573 ;; Defined at:
  2574 ;;		line 29 in file "F:/GitHub/Graduation-Project/Lib-test/Embedded-shs/libs/internet.c"
  2575 ;; Parameters:    Size  Location     Type
  2576 ;;  payload         1    wreg     PTR unsigned char 
  2577 ;;		 -> buffer_tx(32), 
  2578 ;;  size            1    8[BANK0 ] unsigned char 
  2579 ;; Auto vars:     Size  Location     Type
  2580 ;;  payload         1   11[BANK0 ] PTR unsigned char 
  2581 ;;		 -> buffer_tx(32), 
  2582 ;;  packetHeader    1   10[BANK0 ] PTR struct Packet
  2583 ;;		 -> buffer_tx(32), 
  2584 ;; Return value:  Size  Location     Type
  2585 ;;                  1    wreg      void 
  2586 ;; Registers used:
  2587 ;;		wreg, fsr0l, fsr0h, status,2, status,0, btemp+1, pclath, cstack
  2588 ;; Tracked objects:
  2589 ;;		On entry : 0/0
  2590 ;;		On exit  : 0/0
  2591 ;;		Unchanged: 0/0
  2592 ;; Data sizes:     COMMON   BANK0   BANK1   BANK3   BANK2
  2593 ;;      Params:         0       1       0       0       0
  2594 ;;      Locals:         0       2       0       0       0
  2595 ;;      Temps:          0       1       0       0       0
  2596 ;;      Totals:         0       4       0       0       0
  2597 ;;Total ram usage:        4 bytes
  2598 ;; Hardware stack levels used: 1
  2599 ;; Hardware stack levels required when called: 7
  2600 ;; This function calls:
  2601 ;;		_internet_relay
  2602 ;; This function is called by:
  2603 ;;		_transport_udp_tx
  2604 ;; This function uses a non-reentrant model
  2605 ;;
  2606                           
  2607  0BBB                     _internet_tx:	
  2608                           ;psect for function _internet_tx
  2609                           
  2610                           
  2611                           ;incstack = 0
  2612 ;; hardware stack exceeded
  2613                           ; Regs used in _internet_tx: [wreg-fsr0h+status,2+status,0+btemp+1+pclath+cstack]
  2614                           ;internet_tx@payload stored from wreg
  2615  0BBB  1283               	bcf	3,5	;RP0=0, select bank0
  2616  0BBC  1303               	bcf	3,6	;RP1=0, select bank0
  2617  0BBD  00AB               	movwf	internet_tx@payload
  2618  0BBE                     l3221:
  2619                           
  2620                           ;F:/GitHub/Graduation-Project/Lib-test/Embedded-shs/libs/internet.c: 29: void internet_t
      +                          x(uint8_t *payload, uint8_t size);F:/GitHub/Graduation-Project/Lib-test/Embedded-shs/lib
      +                          s/internet.c: 30: {;F:/GitHub/Graduation-Project/Lib-test/Embedded-shs/libs/internet.c: 
      +                          32:     struct Packet *packetHeader = (struct Packet *)payload;
  2621  0BBE  082B               	movf	internet_tx@payload,w
  2622  0BBF  00A9               	movwf	??_internet_tx
  2623  0BC0  0829               	movf	??_internet_tx,w
  2624  0BC1  00AA               	movwf	internet_tx@packetHeader
  2625  0BC2                     l3223:
  2626                           
  2627                           ;F:/GitHub/Graduation-Project/Lib-test/Embedded-shs/libs/internet.c: 33:     packetHeade
      +                          r->ttl = 32;
  2628  0BC2  3020               	movlw	32
  2629  0BC3  00A9               	movwf	??_internet_tx
  2630  0BC4  082A               	movf	internet_tx@packetHeader,w
  2631  0BC5  0084               	movwf	4
  2632  0BC6  0829               	movf	??_internet_tx,w
  2633  0BC7  1383               	bcf	3,7	;select IRP bank0
  2634  0BC8  0080               	movwf	0
  2635  0BC9                     l3225:
  2636                           
  2637                           ;F:/GitHub/Graduation-Project/Lib-test/Embedded-shs/libs/internet.c: 34:     packetHeade
      +                          r->source = node.address;
  2638  0BC9  0844               	movf	_node,w
  2639  0BCA  00A9               	movwf	??_internet_tx
  2640  0BCB  082A               	movf	internet_tx@packetHeader,w
  2641  0BCC  3E02               	addlw	2
  2642  0BCD  0084               	movwf	4
  2643  0BCE  0829               	movf	??_internet_tx,w
  2644  0BCF  0080               	movwf	0
  2645  0BD0                     l3227:
  2646                           
  2647                           ;F:/GitHub/Graduation-Project/Lib-test/Embedded-shs/libs/internet.c: 35:     internet_re
      +                          lay(payload, size);
  2648  0BD0  0828               	movf	internet_tx@size,w
  2649  0BD1  00A9               	movwf	??_internet_tx
  2650  0BD2  0829               	movf	??_internet_tx,w
  2651  0BD3  00A3               	movwf	internet_relay@size
  2652  0BD4  082B               	movf	internet_tx@payload,w
  2653  0BD5  120A  118A  2361  120A  158A  	fcall	_internet_relay
  2654  0BDA                     l267:
  2655  0BDA  0008               	return
  2656  0BDB                     __end_of_internet_tx:
  2657                           
  2658                           	psect	text5
  2659  00F6                     __ptext5:	
  2660 ;; *************** function _internet_setChannel *****************
  2661 ;; Defined at:
  2662 ;;		line 9 in file "F:/GitHub/Graduation-Project/Lib-test/Embedded-shs/libs/internet.c"
  2663 ;; Parameters:    Size  Location     Type
  2664 ;;  channel         1    wreg     unsigned char 
  2665 ;; Auto vars:     Size  Location     Type
  2666 ;;  channel         1    0[BANK0 ] unsigned char 
  2667 ;; Return value:  Size  Location     Type
  2668 ;;                  1    wreg      void 
  2669 ;; Registers used:
  2670 ;;		wreg, status,2, status,0, pclath, cstack
  2671 ;; Tracked objects:
  2672 ;;		On entry : 0/0
  2673 ;;		On exit  : 0/0
  2674 ;;		Unchanged: 0/0
  2675 ;; Data sizes:     COMMON   BANK0   BANK1   BANK3   BANK2
  2676 ;;      Params:         0       0       0       0       0
  2677 ;;      Locals:         0       1       0       0       0
  2678 ;;      Temps:          0       0       0       0       0
  2679 ;;      Totals:         0       1       0       0       0
  2680 ;;Total ram usage:        1 bytes
  2681 ;; Hardware stack levels used: 1
  2682 ;; Hardware stack levels required when called: 5
  2683 ;; This function calls:
  2684 ;;		_RF24_setChannel
  2685 ;; This function is called by:
  2686 ;;		_main
  2687 ;; This function uses a non-reentrant model
  2688 ;;
  2689                           
  2690  00F6                     _internet_setChannel:	
  2691                           ;psect for function _internet_setChannel
  2692                           
  2693                           
  2694                           ;incstack = 0
  2695                           ; Regs used in _internet_setChannel: [wreg+status,2+status,0+pclath+cstack]
  2696                           ;internet_setChannel@channel stored from wreg
  2697  00F6  1283               	bcf	3,5	;RP0=0, select bank0
  2698  00F7  1303               	bcf	3,6	;RP1=0, select bank0
  2699  00F8  00A0               	movwf	internet_setChannel@channel
  2700  00F9                     l3303:
  2701                           
  2702                           ;F:/GitHub/Graduation-Project/Lib-test/Embedded-shs/libs/internet.c: 9: void internet_se
      +                          tChannel(uint8_t channel);F:/GitHub/Graduation-Project/Lib-test/Embedded-shs/libs/intern
      +                          et.c: 10: {;F:/GitHub/Graduation-Project/Lib-test/Embedded-shs/libs/internet.c: 11:     
      +                          RF24_setChannel(channel);
  2703  00F9  0820               	movf	internet_setChannel@channel,w
  2704  00FA  120A  158A  2206  120A  118A  	fcall	_RF24_setChannel
  2705  00FF                     l255:
  2706  00FF  0008               	return
  2707  0100                     __end_of_internet_setChannel:
  2708                           
  2709                           	psect	text6
  2710  0E08                     __ptext6:	
  2711 ;; *************** function _internet_setAddress *****************
  2712 ;; Defined at:
  2713 ;;		line 123 in file "F:/GitHub/Graduation-Project/Lib-test/Embedded-shs/libs/internet.c"
  2714 ;; Parameters:    Size  Location     Type
  2715 ;;  address         1    wreg     unsigned char 
  2716 ;; Auto vars:     Size  Location     Type
  2717 ;;  address         1    7[BANK0 ] unsigned char 
  2718 ;; Return value:  Size  Location     Type
  2719 ;;                  1    wreg      void 
  2720 ;; Registers used:
  2721 ;;		wreg, fsr0l, fsr0h, status,2, status,0, btemp+1, pclath, cstack
  2722 ;; Tracked objects:
  2723 ;;		On entry : 0/0
  2724 ;;		On exit  : 0/0
  2725 ;;		Unchanged: 0/0
  2726 ;; Data sizes:     COMMON   BANK0   BANK1   BANK3   BANK2
  2727 ;;      Params:         0       0       0       0       0
  2728 ;;      Locals:         0       1       0       0       0
  2729 ;;      Temps:          0       2       0       0       0
  2730 ;;      Totals:         0       3       0       0       0
  2731 ;;Total ram usage:        3 bytes
  2732 ;; Hardware stack levels used: 1
  2733 ;; Hardware stack levels required when called: 6
  2734 ;; This function calls:
  2735 ;;		_internet_calculateMask
  2736 ;;		_internet_setNetworkPipe
  2737 ;; This function is called by:
  2738 ;;		_main
  2739 ;; This function uses a non-reentrant model
  2740 ;;
  2741                           
  2742  0E08                     _internet_setAddress:	
  2743                           ;psect for function _internet_setAddress
  2744                           
  2745                           
  2746                           ;incstack = 0
  2747                           ; Regs used in _internet_setAddress: [wreg-fsr0h+status,2+status,0+btemp+1+pclath+cstack
      +                          ]
  2748                           ;internet_setAddress@address stored from wreg
  2749  0E08  1283               	bcf	3,5	;RP0=0, select bank0
  2750  0E09  1303               	bcf	3,6	;RP1=0, select bank0
  2751  0E0A  00A7               	movwf	internet_setAddress@address
  2752  0E0B                     l3305:
  2753                           
  2754                           ;F:/GitHub/Graduation-Project/Lib-test/Embedded-shs/libs/internet.c: 123: void internet_
      +                          setAddress(uint8_t address);F:/GitHub/Graduation-Project/Lib-test/Embedded-shs/libs/inte
      +                          rnet.c: 124: {;F:/GitHub/Graduation-Project/Lib-test/Embedded-shs/libs/internet.c: 125: 
      +                              node.address = address;
  2755  0E0B  0827               	movf	internet_setAddress@address,w
  2756  0E0C  00A5               	movwf	??_internet_setAddress
  2757  0E0D  0825               	movf	??_internet_setAddress,w
  2758  0E0E  00C4               	movwf	_node
  2759  0E0F                     l3307:
  2760                           
  2761                           ;F:/GitHub/Graduation-Project/Lib-test/Embedded-shs/libs/internet.c: 126:     node.mask 
      +                          = internet_calculateMask(address);
  2762  0E0F  0827               	movf	internet_setAddress@address,w
  2763  0E10  120A  158A  222C  120A  158A  	fcall	_internet_calculateMask
  2764  0E15  1283               	bcf	3,5	;RP0=0, select bank0
  2765  0E16  1303               	bcf	3,6	;RP1=0, select bank0
  2766  0E17  00A5               	movwf	??_internet_setAddress
  2767  0E18  0825               	movf	??_internet_setAddress,w
  2768  0E19  00C5               	movwf	_node+1
  2769  0E1A                     l3309:
  2770                           
  2771                           ;F:/GitHub/Graduation-Project/Lib-test/Embedded-shs/libs/internet.c: 127:     node.routi
      +                          ngMask = node.mask + 1;
  2772  0E1A  0845               	movf	_node+1,w
  2773  0E1B  3E01               	addlw	1
  2774  0E1C  00A5               	movwf	??_internet_setAddress
  2775  0E1D  0825               	movf	??_internet_setAddress,w
  2776  0E1E  00C6               	movwf	_node+2
  2777  0E1F                     l3311:
  2778                           
  2779                           ;F:/GitHub/Graduation-Project/Lib-test/Embedded-shs/libs/internet.c: 128:     node.child
      +                          0 = (node.address & node.mask) | (node.routingMask << 1);
  2780  0E1F  0846               	movf	_node+2,w
  2781  0E20  00A5               	movwf	??_internet_setAddress
  2782  0E21  3001               	movlw	1
  2783  0E22                     u2395:
  2784  0E22  1003               	clrc
  2785  0E23  0DA5               	rlf	??_internet_setAddress,f
  2786  0E24  3EFF               	addlw	-1
  2787  0E25  1D03               	skipz
  2788  0E26  2E22               	goto	u2395
  2789  0E27  0845               	movf	_node+1,w
  2790  0E28  0544               	andwf	_node,w
  2791  0E29  0425               	iorwf	??_internet_setAddress,w
  2792  0E2A  00A6               	movwf	??_internet_setAddress+1
  2793  0E2B  0826               	movf	??_internet_setAddress+1,w
  2794  0E2C  00C7               	movwf	_node+3
  2795  0E2D                     l3313:
  2796                           
  2797                           ;F:/GitHub/Graduation-Project/Lib-test/Embedded-shs/libs/internet.c: 129:     node.child
      +                          1 = (node.address & node.mask) | (node.routingMask << 1) | node.routingMask;
  2798  0E2D  0846               	movf	_node+2,w
  2799  0E2E  00A5               	movwf	??_internet_setAddress
  2800  0E2F  3001               	movlw	1
  2801  0E30                     u2405:
  2802  0E30  1003               	clrc
  2803  0E31  0DA5               	rlf	??_internet_setAddress,f
  2804  0E32  3EFF               	addlw	-1
  2805  0E33  1D03               	skipz
  2806  0E34  2E30               	goto	u2405
  2807  0E35  0845               	movf	_node+1,w
  2808  0E36  0544               	andwf	_node,w
  2809  0E37  0425               	iorwf	??_internet_setAddress,w
  2810  0E38  0446               	iorwf	_node+2,w
  2811  0E39  00A6               	movwf	??_internet_setAddress+1
  2812  0E3A  0826               	movf	??_internet_setAddress+1,w
  2813  0E3B  00C8               	movwf	_node+4
  2814  0E3C                     l3315:
  2815                           
  2816                           ;F:/GitHub/Graduation-Project/Lib-test/Embedded-shs/libs/internet.c: 130:     internet_s
      +                          etNetworkPipe(networkInfo.networkPipe);
  2817  0E3C  3056               	movlw	(low (_networkInfo| 0))& (0+255)
  2818  0E3D  120A  158A  23FC  120A  158A  	fcall	_internet_setNetworkPipe
  2819  0E42                     l294:
  2820  0E42  0008               	return
  2821  0E43                     __end_of_internet_setAddress:
  2822                           
  2823                           	psect	text7
  2824  0BFC                     __ptext7:	
  2825 ;; *************** function _internet_setNetworkPipe *****************
  2826 ;; Defined at:
  2827 ;;		line 23 in file "F:/GitHub/Graduation-Project/Lib-test/Embedded-shs/libs/internet.c"
  2828 ;; Parameters:    Size  Location     Type
  2829 ;;  pipe            1    wreg     PTR unsigned char 
  2830 ;;		 -> networkInfo(6), network_pipe(5), 
  2831 ;; Auto vars:     Size  Location     Type
  2832 ;;  pipe            1    4[BANK0 ] PTR unsigned char 
  2833 ;;		 -> networkInfo(6), network_pipe(5), 
  2834 ;; Return value:  Size  Location     Type
  2835 ;;                  1    wreg      void 
  2836 ;; Registers used:
  2837 ;;		wreg, fsr0l, fsr0h, status,2, status,0, btemp+1, pclath, cstack
  2838 ;; Tracked objects:
  2839 ;;		On entry : 0/0
  2840 ;;		On exit  : 0/0
  2841 ;;		Unchanged: 0/0
  2842 ;; Data sizes:     COMMON   BANK0   BANK1   BANK3   BANK2
  2843 ;;      Params:         0       0       0       0       0
  2844 ;;      Locals:         0       1       0       0       0
  2845 ;;      Temps:          0       1       0       0       0
  2846 ;;      Totals:         0       2       0       0       0
  2847 ;;Total ram usage:        2 bytes
  2848 ;; Hardware stack levels used: 1
  2849 ;; Hardware stack levels required when called: 5
  2850 ;; This function calls:
  2851 ;;		_RF24_openReadingPipe
  2852 ;;		_memcpy
  2853 ;; This function is called by:
  2854 ;;		_main
  2855 ;;		_internet_setAddress
  2856 ;; This function uses a non-reentrant model
  2857 ;;
  2858                           
  2859  0BFC                     _internet_setNetworkPipe:	
  2860                           ;psect for function _internet_setNetworkPipe
  2861                           
  2862                           
  2863                           ;incstack = 0
  2864                           ; Regs used in _internet_setNetworkPipe: [wreg-fsr0h+status,2+status,0+btemp+1+pclath+cs
      +                          tack]
  2865                           ;internet_setNetworkPipe@pipe stored from wreg
  2866  0BFC  1283               	bcf	3,5	;RP0=0, select bank0
  2867  0BFD  1303               	bcf	3,6	;RP1=0, select bank0
  2868  0BFE  00A4               	movwf	internet_setNetworkPipe@pipe
  2869  0BFF                     l3165:
  2870                           
  2871                           ;F:/GitHub/Graduation-Project/Lib-test/Embedded-shs/libs/internet.c: 23: void internet_s
      +                          etNetworkPipe(uint8_t *pipe);F:/GitHub/Graduation-Project/Lib-test/Embedded-shs/libs/int
      +                          ernet.c: 24: {;F:/GitHub/Graduation-Project/Lib-test/Embedded-shs/libs/internet.c: 25:  
      +                             memcpy(networkInfo.networkPipe, pipe, 5);
  2872  0BFF  0824               	movf	internet_setNetworkPipe@pipe,w
  2873  0C00  00A3               	movwf	??_internet_setNetworkPipe
  2874  0C01  0823               	movf	??_internet_setNetworkPipe,w
  2875  0C02  00F2               	movwf	memcpy@s1
  2876  0C03  3005               	movlw	5
  2877  0C04  00F3               	movwf	memcpy@n
  2878  0C05  3000               	movlw	0
  2879  0C06  00F4               	movwf	memcpy@n+1
  2880  0C07  3056               	movlw	(low (_networkInfo| 0))& (0+255)
  2881  0C08  120A  158A  2517  120A  158A  	fcall	_memcpy
  2882  0C0D                     l3167:
  2883                           
  2884                           ;F:/GitHub/Graduation-Project/Lib-test/Embedded-shs/libs/internet.c: 26:     networkInfo
      +                          .networkPipe[0] = node.address;
  2885  0C0D  1283               	bcf	3,5	;RP0=0, select bank0
  2886  0C0E  1303               	bcf	3,6	;RP1=0, select bank0
  2887  0C0F  0844               	movf	_node,w
  2888  0C10  00A3               	movwf	??_internet_setNetworkPipe
  2889  0C11  0823               	movf	??_internet_setNetworkPipe,w
  2890  0C12  00D6               	movwf	_networkInfo
  2891  0C13                     l3169:
  2892                           
  2893                           ;F:/GitHub/Graduation-Project/Lib-test/Embedded-shs/libs/internet.c: 27:     RF24_openRe
      +                          adingPipe(1, networkInfo.networkPipe);
  2894  0C13  3056               	movlw	(low (_networkInfo| 0))& (0+255)
  2895  0C14  00F9               	movwf	RF24_openReadingPipe@address
  2896  0C15  3000               	movlw	0
  2897  0C16  00FA               	movwf	RF24_openReadingPipe@address+1
  2898  0C17  3001               	movlw	1
  2899  0C18  120A  118A  20AC  120A  158A  	fcall	_RF24_openReadingPipe
  2900  0C1D                     l264:
  2901  0C1D  0008               	return
  2902  0C1E                     __end_of_internet_setNetworkPipe:
  2903                           
  2904                           	psect	text8
  2905  0CEB                     __ptext8:	
  2906 ;; *************** function _internet_process *****************
  2907 ;; Defined at:
  2908 ;;		line 13 in file "F:/GitHub/Graduation-Project/Lib-test/Embedded-shs/libs/internet.c"
  2909 ;; Parameters:    Size  Location     Type
  2910 ;;		None
  2911 ;; Auto vars:     Size  Location     Type
  2912 ;;  size            1   30[BANK0 ] unsigned char 
  2913 ;; Return value:  Size  Location     Type
  2914 ;;                  1    wreg      void 
  2915 ;; Registers used:
  2916 ;;		wreg, fsr0l, fsr0h, status,2, status,0, btemp+1, pclath, cstack
  2917 ;; Tracked objects:
  2918 ;;		On entry : 0/0
  2919 ;;		On exit  : 0/0
  2920 ;;		Unchanged: 0/0
  2921 ;; Data sizes:     COMMON   BANK0   BANK1   BANK3   BANK2
  2922 ;;      Params:         0       0       0       0       0
  2923 ;;      Locals:         0       1       0       0       0
  2924 ;;      Temps:          0       1       0       0       0
  2925 ;;      Totals:         0       2       0       0       0
  2926 ;;Total ram usage:        2 bytes
  2927 ;; Hardware stack levels used: 1
  2928 ;; Hardware stack levels required when called: 8
  2929 ;; This function calls:
  2930 ;;		_RF24_available
  2931 ;;		_RF24_getDynamicPayloadSize
  2932 ;;		_RF24_read
  2933 ;;		_internet_rx
  2934 ;; This function is called by:
  2935 ;;		_main
  2936 ;; This function uses a non-reentrant model
  2937 ;;
  2938                           
  2939  0CEB                     _internet_process:	
  2940                           ;psect for function _internet_process
  2941                           
  2942  0CEB                     l3317:	
  2943                           ;incstack = 0
  2944 ;; hardware stack exceeded
  2945                           ; Regs used in _internet_process: [wreg-fsr0h+status,2+status,0+btemp+1+pclath+cstack]
  2946                           
  2947                           
  2948                           ;F:/GitHub/Graduation-Project/Lib-test/Embedded-shs/libs/internet.c: 15:     while (RF24
      +                          _available())
  2949  0CEB  2D0C               	goto	l3325
  2950  0CEC                     l3319:
  2951                           
  2952                           ;F:/GitHub/Graduation-Project/Lib-test/Embedded-shs/libs/internet.c: 16:     {;F:/GitHub
      +                          /Graduation-Project/Lib-test/Embedded-shs/libs/internet.c: 17:         uint8_t size = RF
      +                          24_getDynamicPayloadSize();
  2953  0CEC  120A  158A  241E  120A  158A  	fcall	_RF24_getDynamicPayloadSize
  2954  0CF1  1283               	bcf	3,5	;RP0=0, select bank0
  2955  0CF2  1303               	bcf	3,6	;RP1=0, select bank0
  2956  0CF3  00BD               	movwf	??_internet_process
  2957  0CF4  083D               	movf	??_internet_process,w
  2958  0CF5  00BE               	movwf	internet_process@size
  2959  0CF6                     l3321:
  2960                           
  2961                           ;F:/GitHub/Graduation-Project/Lib-test/Embedded-shs/libs/internet.c: 19:         RF24_re
      +                          ad(buffer_rx, size);
  2962  0CF6  083E               	movf	internet_process@size,w
  2963  0CF7  00BD               	movwf	??_internet_process
  2964  0CF8  083D               	movf	??_internet_process,w
  2965  0CF9  00F9               	movwf	RF24_read@len
  2966  0CFA  30A0               	movlw	(low (_buffer_rx| 0))& (0+255)
  2967  0CFB  120A  158A  237D  120A  158A  	fcall	_RF24_read
  2968  0D00                     l3323:
  2969                           
  2970                           ;F:/GitHub/Graduation-Project/Lib-test/Embedded-shs/libs/internet.c: 20:         interne
      +                          t_rx(buffer_rx, size);
  2971  0D00  1283               	bcf	3,5	;RP0=0, select bank0
  2972  0D01  1303               	bcf	3,6	;RP1=0, select bank0
  2973  0D02  083E               	movf	internet_process@size,w
  2974  0D03  00BD               	movwf	??_internet_process
  2975  0D04  083D               	movf	??_internet_process,w
  2976  0D05  00B8               	movwf	internet_rx@size
  2977  0D06  30A0               	movlw	(low (_buffer_rx| 0))& (0+255)
  2978  0D07  120A  158A  2643  120A  158A  	fcall	_internet_rx
  2979  0D0C                     l3325:
  2980                           
  2981                           ;F:/GitHub/Graduation-Project/Lib-test/Embedded-shs/libs/internet.c: 15:     while (RF24
      +                          _available())
  2982  0D0C  120A  158A  22A8  120A  158A  	fcall	_RF24_available
  2983  0D11  3A00               	xorlw	0
  2984  0D12  1D03               	skipz
  2985  0D13  2D15               	goto	u2411
  2986  0D14  2D16               	goto	u2410
  2987  0D15                     u2411:
  2988  0D15  2CEC               	goto	l3319
  2989  0D16                     u2410:
  2990  0D16                     l261:
  2991  0D16  0008               	return
  2992  0D17                     __end_of_internet_process:
  2993                           
  2994                           	psect	text9
  2995  0E43                     __ptext9:	
  2996 ;; *************** function _internet_rx *****************
  2997 ;; Defined at:
  2998 ;;		line 37 in file "F:/GitHub/Graduation-Project/Lib-test/Embedded-shs/libs/internet.c"
  2999 ;; Parameters:    Size  Location     Type
  3000 ;;  payload         1    wreg     PTR unsigned char 
  3001 ;;		 -> buffer_rx(32), 
  3002 ;;  size            1   24[BANK0 ] unsigned char 
  3003 ;; Auto vars:     Size  Location     Type
  3004 ;;  payload         1   28[BANK0 ] PTR unsigned char 
  3005 ;;		 -> buffer_rx(32), 
  3006 ;;  packetHeader    1   27[BANK0 ] PTR struct Packet
  3007 ;;		 -> buffer_rx(32), 
  3008 ;; Return value:  Size  Location     Type
  3009 ;;                  1    wreg      void 
  3010 ;; Registers used:
  3011 ;;		wreg, fsr0l, fsr0h, status,2, status,0, btemp+1, pclath, cstack
  3012 ;; Tracked objects:
  3013 ;;		On entry : 0/0
  3014 ;;		On exit  : 0/0
  3015 ;;		Unchanged: 0/0
  3016 ;; Data sizes:     COMMON   BANK0   BANK1   BANK3   BANK2
  3017 ;;      Params:         0       1       0       0       0
  3018 ;;      Locals:         0       2       0       0       0
  3019 ;;      Temps:          0       2       0       0       0
  3020 ;;      Totals:         0       5       0       0       0
  3021 ;;Total ram usage:        5 bytes
  3022 ;; Hardware stack levels used: 1
  3023 ;; Hardware stack levels required when called: 7
  3024 ;; This function calls:
  3025 ;;		_internet_relay
  3026 ;;		_transport_udp_rx
  3027 ;; This function is called by:
  3028 ;;		_internet_process
  3029 ;; This function uses a non-reentrant model
  3030 ;;
  3031                           
  3032  0E43                     _internet_rx:	
  3033                           ;psect for function _internet_rx
  3034                           
  3035                           
  3036                           ;incstack = 0
  3037 ;; hardware stack exceeded
  3038                           ; Regs used in _internet_rx: [wreg-fsr0h+status,2+status,0+btemp+1+pclath+cstack]
  3039                           ;internet_rx@payload stored from wreg
  3040  0E43  1283               	bcf	3,5	;RP0=0, select bank0
  3041  0E44  1303               	bcf	3,6	;RP1=0, select bank0
  3042  0E45  00BC               	movwf	internet_rx@payload
  3043  0E46                     l3191:
  3044                           
  3045                           ;F:/GitHub/Graduation-Project/Lib-test/Embedded-shs/libs/internet.c: 37: void internet_r
      +                          x(uint8_t *payload, uint8_t size);F:/GitHub/Graduation-Project/Lib-test/Embedded-shs/lib
      +                          s/internet.c: 38: {;F:/GitHub/Graduation-Project/Lib-test/Embedded-shs/libs/internet.c: 
      +                          39:     struct Packet *packetHeader = (struct Packet *)payload;
  3046  0E46  083C               	movf	internet_rx@payload,w
  3047  0E47  00B9               	movwf	??_internet_rx
  3048  0E48  0839               	movf	??_internet_rx,w
  3049  0E49  00BB               	movwf	internet_rx@packetHeader
  3050  0E4A                     l3193:
  3051                           
  3052                           ;F:/GitHub/Graduation-Project/Lib-test/Embedded-shs/libs/internet.c: 40:     if (packetH
      +                          eader->destination != node.address)
  3053  0E4A  083B               	movf	internet_rx@packetHeader,w
  3054  0E4B  3E03               	addlw	3
  3055  0E4C  0084               	movwf	4
  3056  0E4D  1383               	bcf	3,7	;select IRP bank0
  3057  0E4E  0800               	movf	0,w
  3058  0E4F  0644               	xorwf	_node,w
  3059  0E50  1903               	skipnz
  3060  0E51  2E53               	goto	u2341
  3061  0E52  2E54               	goto	u2340
  3062  0E53                     u2341:
  3063  0E53  2E6A               	goto	l3203
  3064  0E54                     u2340:
  3065  0E54                     l3195:
  3066                           
  3067                           ;F:/GitHub/Graduation-Project/Lib-test/Embedded-shs/libs/internet.c: 41:     {;F:/GitHub
      +                          /Graduation-Project/Lib-test/Embedded-shs/libs/internet.c: 42:         internet_relay(pa
      +                          yload, size);
  3068  0E54  0838               	movf	internet_rx@size,w
  3069  0E55  00B9               	movwf	??_internet_rx
  3070  0E56  0839               	movf	??_internet_rx,w
  3071  0E57  00A3               	movwf	internet_relay@size
  3072  0E58  083C               	movf	internet_rx@payload,w
  3073  0E59  120A  118A  2361  120A  158A  	fcall	_internet_relay
  3074  0E5E  2E7F               	goto	l271
  3075  0E5F                     l3199:
  3076                           
  3077                           ;F:/GitHub/Graduation-Project/Lib-test/Embedded-shs/libs/internet.c: 54:         transpo
      +                          rt_udp_rx(payload, size);
  3078  0E5F  0838               	movf	internet_rx@size,w
  3079  0E60  00B9               	movwf	??_internet_rx
  3080  0E61  0839               	movf	??_internet_rx,w
  3081  0E62  00B3               	movwf	transport_udp_rx@size
  3082  0E63  083C               	movf	internet_rx@payload,w
  3083  0E64  120A  158A  230B  120A  158A  	fcall	_transport_udp_rx
  3084                           
  3085                           ;F:/GitHub/Graduation-Project/Lib-test/Embedded-shs/libs/internet.c: 55:         break;
  3086  0E69  2E7F               	goto	l271
  3087  0E6A                     l3203:
  3088  0E6A  0A3B               	incf	internet_rx@packetHeader,w
  3089  0E6B  0084               	movwf	4
  3090  0E6C  0800               	movf	0,w
  3091  0E6D  00B9               	movwf	??_internet_rx
  3092  0E6E  01BA               	clrf	??_internet_rx+1
  3093                           
  3094                           ; Switch on 2 bytes has been partitioned into a top level switch of size 1, and 1 sub-sw
      +                          itches
  3095                           ; Switch size 1, requested type "simple"
  3096                           ; Number of cases is 1, Range of values is 0 to 0
  3097                           ; switch strategies available:
  3098                           ; Name         Instructions Cycles
  3099                           ; simple_byte            4     3 (average)
  3100                           ; direct_byte           11     8 (fixed)
  3101                           ; jumptable            260     6 (fixed)
  3102                           ;	Chosen strategy is simple_byte
  3103  0E6F  083A               	movf	??_internet_rx+1,w
  3104  0E70  3A00               	xorlw	0	; case 0
  3105  0E71  1903               	skipnz
  3106  0E72  2E74               	goto	l3419
  3107  0E73  2E7F               	goto	l271
  3108  0E74                     l3419:
  3109                           
  3110                           ; Switch size 1, requested type "simple"
  3111                           ; Number of cases is 3, Range of values is 0 to 2
  3112                           ; switch strategies available:
  3113                           ; Name         Instructions Cycles
  3114                           ; simple_byte           10     6 (average)
  3115                           ; direct_byte           17     8 (fixed)
  3116                           ; jumptable            260     6 (fixed)
  3117                           ;	Chosen strategy is simple_byte
  3118  0E74  0839               	movf	??_internet_rx,w
  3119  0E75  3A00               	xorlw	0	; case 0
  3120  0E76  1903               	skipnz
  3121  0E77  2E7F               	goto	l271
  3122  0E78  3A01               	xorlw	1	; case 1
  3123  0E79  1903               	skipnz
  3124  0E7A  2E5F               	goto	l3199
  3125  0E7B  3A03               	xorlw	3	; case 2
  3126  0E7C  1903               	skipnz
  3127  0E7D  2E7F               	goto	l271
  3128  0E7E  2E7F               	goto	l271
  3129  0E7F                     l271:
  3130  0E7F  0008               	return
  3131  0E80                     __end_of_internet_rx:
  3132                           
  3133                           	psect	text10
  3134  0B0B                     __ptext10:	
  3135 ;; *************** function _transport_udp_rx *****************
  3136 ;; Defined at:
  3137 ;;		line 12 in file "F:/GitHub/Graduation-Project/Lib-test/Embedded-shs/libs/transport.c"
  3138 ;; Parameters:    Size  Location     Type
  3139 ;;  payload         1    wreg     PTR unsigned char 
  3140 ;;		 -> buffer_rx(32), 
  3141 ;;  size            1   19[BANK0 ] unsigned char 
  3142 ;; Auto vars:     Size  Location     Type
  3143 ;;  payload         1   23[BANK0 ] PTR unsigned char 
  3144 ;;		 -> buffer_rx(32), 
  3145 ;;  packetHeader    1   22[BANK0 ] PTR struct UDPPacket
  3146 ;;		 -> buffer_rx(32), 
  3147 ;; Return value:  Size  Location     Type
  3148 ;;                  1    wreg      void 
  3149 ;; Registers used:
  3150 ;;		wreg, fsr0l, fsr0h, status,2, status,0, btemp+1, pclath, cstack
  3151 ;; Tracked objects:
  3152 ;;		On entry : 0/0
  3153 ;;		On exit  : 0/0
  3154 ;;		Unchanged: 0/0
  3155 ;; Data sizes:     COMMON   BANK0   BANK1   BANK3   BANK2
  3156 ;;      Params:         0       1       0       0       0
  3157 ;;      Locals:         0       2       0       0       0
  3158 ;;      Temps:          0       2       0       0       0
  3159 ;;      Totals:         0       5       0       0       0
  3160 ;;Total ram usage:        5 bytes
  3161 ;; Hardware stack levels used: 1
  3162 ;; Hardware stack levels required when called: 5
  3163 ;; This function calls:
  3164 ;;		_transport_udp_process
  3165 ;; This function is called by:
  3166 ;;		_internet_rx
  3167 ;; This function uses a non-reentrant model
  3168 ;;
  3169                           
  3170  0B0B                     _transport_udp_rx:	
  3171                           ;psect for function _transport_udp_rx
  3172                           
  3173                           
  3174                           ;incstack = 0
  3175                           ; Regs used in _transport_udp_rx: [wreg-fsr0h+status,2+status,0+btemp+1+pclath+cstack]
  3176                           ;transport_udp_rx@payload stored from wreg
  3177  0B0B  1283               	bcf	3,5	;RP0=0, select bank0
  3178  0B0C  1303               	bcf	3,6	;RP1=0, select bank0
  3179  0B0D  00B7               	movwf	transport_udp_rx@payload
  3180  0B0E                     l3113:
  3181                           
  3182                           ;F:/GitHub/Graduation-Project/Lib-test/Embedded-shs/libs/transport.c: 12: void transport
      +                          _udp_rx(uint8_t *payload, uint8_t size);F:/GitHub/Graduation-Project/Lib-test/Embedded-s
      +                          hs/libs/transport.c: 13: {;F:/GitHub/Graduation-Project/Lib-test/Embedded-shs/libs/trans
      +                          port.c: 14:     struct UDPPacket *packetHeader = (struct UDPPacket *)payload;
  3183  0B0E  0837               	movf	transport_udp_rx@payload,w
  3184  0B0F  00B4               	movwf	??_transport_udp_rx
  3185  0B10  0834               	movf	??_transport_udp_rx,w
  3186  0B11  00B6               	movwf	transport_udp_rx@packetHeader
  3187  0B12                     l3115:
  3188                           
  3189                           ;F:/GitHub/Graduation-Project/Lib-test/Embedded-shs/libs/transport.c: 15:     transport_
      +                          udp_process(payload, size, packetHeader->destinationPort);
  3190  0B12  0833               	movf	transport_udp_rx@size,w
  3191  0B13  00B4               	movwf	??_transport_udp_rx
  3192  0B14  0834               	movf	??_transport_udp_rx,w
  3193  0B15  00AC               	movwf	transport_udp_process@size
  3194  0B16  0836               	movf	transport_udp_rx@packetHeader,w
  3195  0B17  3E04               	addlw	4
  3196  0B18  0084               	movwf	4
  3197  0B19  1383               	bcf	3,7	;select IRP bank0
  3198  0B1A  0E00               	swapf	0,w
  3199  0B1B  390F               	andlw	15
  3200  0B1C  00B5               	movwf	??_transport_udp_rx+1
  3201  0B1D  0835               	movf	??_transport_udp_rx+1,w
  3202  0B1E  00AD               	movwf	transport_udp_process@port
  3203  0B1F  0837               	movf	transport_udp_rx@payload,w
  3204  0B20  120A  118A  252C  120A  158A  	fcall	_transport_udp_process
  3205  0B25                     l612:
  3206  0B25  0008               	return
  3207  0B26                     __end_of_transport_udp_rx:
  3208                           
  3209                           	psect	text11
  3210  052C                     __ptext11:	
  3211 ;; *************** function _transport_udp_process *****************
  3212 ;; Defined at:
  3213 ;;		line 148 in file "F:/GitHub/Graduation-Project/Lib-test/Embedded-shs/app/src/main.c"
  3214 ;; Parameters:    Size  Location     Type
  3215 ;;  payload         1    wreg     PTR unsigned char 
  3216 ;;		 -> buffer_rx(32), 
  3217 ;;  size            1   12[BANK0 ] unsigned char 
  3218 ;;  port            1   13[BANK0 ] unsigned char 
  3219 ;; Auto vars:     Size  Location     Type
  3220 ;;  payload         1   16[BANK0 ] PTR unsigned char 
  3221 ;;		 -> buffer_rx(32), 
  3222 ;;  ppnt            1   18[BANK0 ] PTR struct .
  3223 ;;		 -> buffer_rx.object(24), buffer_rx(32), 
  3224 ;;  count           1   15[BANK0 ] unsigned char 
  3225 ;;  packet          1   17[BANK0 ] PTR const struct .
  3226 ;;		 -> buffer_rx(32), 
  3227 ;; Return value:  Size  Location     Type
  3228 ;;                  1    wreg      void 
  3229 ;; Registers used:
  3230 ;;		wreg, fsr0l, fsr0h, status,2, status,0, btemp+1, pclath, cstack
  3231 ;; Tracked objects:
  3232 ;;		On entry : 0/0
  3233 ;;		On exit  : 0/0
  3234 ;;		Unchanged: 0/0
  3235 ;; Data sizes:     COMMON   BANK0   BANK1   BANK3   BANK2
  3236 ;;      Params:         0       2       0       0       0
  3237 ;;      Locals:         0       4       0       0       0
  3238 ;;      Temps:          0       1       0       0       0
  3239 ;;      Totals:         0       7       0       0       0
  3240 ;;Total ram usage:        7 bytes
  3241 ;; Hardware stack levels used: 1
  3242 ;; Hardware stack levels required when called: 4
  3243 ;; This function calls:
  3244 ;;		_Serial_write
  3245 ;;		__$_logline_int
  3246 ;;		__$_logline_str
  3247 ;;		_memcpy
  3248 ;; This function is called by:
  3249 ;;		_transport_udp_rx
  3250 ;; This function uses a non-reentrant model
  3251 ;;
  3252                           
  3253  052C                     _transport_udp_process:	
  3254                           ;psect for function _transport_udp_process
  3255                           
  3256                           
  3257                           ;incstack = 0
  3258                           ; Regs used in _transport_udp_process: [wreg-fsr0h+status,2+status,0+btemp+1+pclath+csta
      +                          ck]
  3259                           ;transport_udp_process@payload stored from wreg
  3260  052C  1283               	bcf	3,5	;RP0=0, select bank0
  3261  052D  1303               	bcf	3,6	;RP1=0, select bank0
  3262  052E  00B0               	movwf	transport_udp_process@payload
  3263  052F                     l2961:
  3264                           
  3265                           ;F:/GitHub/Graduation-Project/Lib-test/Embedded-shs/app/src/main.c: 148: void transport_
      +                          udp_process(uint8_t *payload, uint8_t size, uint8_t port);F:/GitHub/Graduation-Project/L
      +                          ib-test/Embedded-shs/app/src/main.c: 149: {;F:/GitHub/Graduation-Project/Lib-test/Embedd
      +                          ed-shs/app/src/main.c: 150:     _$_logline_str((char *)"Recived Data"); Serial_write((ui
      +                          nt8_t)'\n');
  3266  052F  30C8               	movlw	low (STR_4| (0+32768))
  3267  0530  00F3               	movwf	__$_logline_str@string
  3268  0531  3081               	movlw	high (STR_4| (0+32768))
  3269  0532  00F4               	movwf	__$_logline_str@string+1
  3270  0533  120A  158A  2574  120A  118A  	fcall	__$_logline_str
  3271  0538                     l2963:
  3272  0538  300A               	movlw	10
  3273  0539  120A  158A  2212  120A  118A  	fcall	_Serial_write
  3274  053E                     l2965:
  3275                           
  3276                           ;F:/GitHub/Graduation-Project/Lib-test/Embedded-shs/app/src/main.c: 152:     OXPacket co
      +                          nst *packet = (OXPacket *)payload;
  3277  053E  1283               	bcf	3,5	;RP0=0, select bank0
  3278  053F  1303               	bcf	3,6	;RP1=0, select bank0
  3279  0540  0830               	movf	transport_udp_process@payload,w
  3280  0541  00AE               	movwf	??_transport_udp_process
  3281  0542  082E               	movf	??_transport_udp_process,w
  3282  0543  00B1               	movwf	transport_udp_process@packet
  3283  0544                     l2967:
  3284                           
  3285                           ;F:/GitHub/Graduation-Project/Lib-test/Embedded-shs/app/src/main.c: 153:     _$_logline_
      +                          str((char *)"Recived Data ="); Serial_write((uint8_t)'\n');
  3286  0544  30AA               	movlw	low (STR_5| (0+32768))
  3287  0545  00F3               	movwf	__$_logline_str@string
  3288  0546  3081               	movlw	high (STR_5| (0+32768))
  3289  0547  00F4               	movwf	__$_logline_str@string+1
  3290  0548  120A  158A  2574  120A  118A  	fcall	__$_logline_str
  3291  054D                     l2969:
  3292  054D  300A               	movlw	10
  3293  054E  120A  158A  2212  120A  118A  	fcall	_Serial_write
  3294  0553                     l2971:
  3295                           
  3296                           ;F:/GitHub/Graduation-Project/Lib-test/Embedded-shs/app/src/main.c: 154:     _$_logline_
      +                          str((char *)"data =");
  3297  0553  301F               	movlw	low (STR_6| (0+32768))
  3298  0554  00F3               	movwf	__$_logline_str@string
  3299  0555  3082               	movlw	high (STR_6| (0+32768))
  3300  0556  00F4               	movwf	__$_logline_str@string+1
  3301  0557  120A  158A  2574  120A  118A  	fcall	__$_logline_str
  3302  055C                     l2973:
  3303                           
  3304                           ;F:/GitHub/Graduation-Project/Lib-test/Embedded-shs/app/src/main.c: 156:     if (port ==
      +                           6) { { if (packet->type == 0) { } else if (packet->type == 1) { OXProperty *ppnt = pack
      +                          et->object; _$_logline_str((char *)"id"); Serial_write((uint8_t)'='); _$_logline_int((ui
      +                          nt8_t)ppnt->id); Serial_write((uint8_t)'\n'); _$_logline_str((char *)"value"); Serial_wr
      +                          ite((uint8_t)'='); _$_logline_int((uint8_t)ppnt->value); Serial_write((uint8_t)'\n'); ui
      +                          nt8_t count = packet->length; while (count--) { prop[ppnt->id].value = ppnt->value; ppnt
      +                          ++; } } }; return; };
  3305  055C  3006               	movlw	6
  3306  055D  1283               	bcf	3,5	;RP0=0, select bank0
  3307  055E  1303               	bcf	3,6	;RP1=0, select bank0
  3308  055F  062D               	xorwf	transport_udp_process@port,w
  3309  0560  1D03               	btfss	3,2
  3310  0561  2D63               	goto	u2141
  3311  0562  2D64               	goto	u2140
  3312  0563                     u2141:
  3313  0563  2DDD               	goto	l3007
  3314  0564                     u2140:
  3315  0564                     l2975:
  3316  0564  0831               	movf	transport_udp_process@packet,w
  3317  0565  3E05               	addlw	5
  3318  0566  0084               	movwf	4
  3319  0567  1383               	bcf	3,7	;select IRP bank0
  3320  0568  0800               	movf	0,w
  3321  0569  1D03               	btfss	3,2
  3322  056A  2D6C               	goto	u2151
  3323  056B  2D6D               	goto	u2150
  3324  056C                     u2151:
  3325  056C  2D6E               	goto	l2979
  3326  056D                     u2150:
  3327  056D  2DF1               	goto	l94
  3328  056E                     l2979:
  3329  056E  0831               	movf	transport_udp_process@packet,w
  3330  056F  3E05               	addlw	5
  3331  0570  0084               	movwf	4
  3332  0571  0300               	decf	0,w
  3333  0572  1D03               	btfss	3,2
  3334  0573  2D75               	goto	u2161
  3335  0574  2D76               	goto	u2160
  3336  0575                     u2161:
  3337  0575  2DF1               	goto	l94
  3338  0576                     u2160:
  3339  0576                     l2981:
  3340  0576  0831               	movf	transport_udp_process@packet,w
  3341  0577  3E07               	addlw	7
  3342  0578  00AE               	movwf	??_transport_udp_process
  3343  0579  082E               	movf	??_transport_udp_process,w
  3344  057A  00B2               	movwf	transport_udp_process@ppnt
  3345  057B                     l2983:
  3346  057B  305C               	movlw	low (STR_7| (0+32768))
  3347  057C  00F3               	movwf	__$_logline_str@string
  3348  057D  3082               	movlw	high (STR_7| (0+32768))
  3349  057E  00F4               	movwf	__$_logline_str@string+1
  3350  057F  120A  158A  2574  120A  118A  	fcall	__$_logline_str
  3351  0584                     l2985:
  3352  0584  303D               	movlw	61
  3353  0585  120A  158A  2212  120A  118A  	fcall	_Serial_write
  3354  058A                     l2987:
  3355  058A  1283               	bcf	3,5	;RP0=0, select bank0
  3356  058B  1303               	bcf	3,6	;RP1=0, select bank0
  3357  058C  0832               	movf	transport_udp_process@ppnt,w
  3358  058D  0084               	movwf	4
  3359  058E  1383               	bcf	3,7	;select IRP bank0
  3360  058F  0800               	movf	0,w
  3361  0590  120A  158A  279B  120A  118A  	fcall	__$_logline_int
  3362  0595                     l2989:
  3363  0595  300A               	movlw	10
  3364  0596  120A  158A  2212  120A  118A  	fcall	_Serial_write
  3365  059B                     l2991:
  3366  059B  3056               	movlw	low (STR_8| (0+32768))
  3367  059C  00F3               	movwf	__$_logline_str@string
  3368  059D  3082               	movlw	high (STR_8| (0+32768))
  3369  059E  00F4               	movwf	__$_logline_str@string+1
  3370  059F  120A  158A  2574  120A  118A  	fcall	__$_logline_str
  3371  05A4                     l2993:
  3372  05A4  303D               	movlw	61
  3373  05A5  120A  158A  2212  120A  118A  	fcall	_Serial_write
  3374  05AA                     l2995:
  3375  05AA  1283               	bcf	3,5	;RP0=0, select bank0
  3376  05AB  1303               	bcf	3,6	;RP1=0, select bank0
  3377  05AC  0A32               	incf	transport_udp_process@ppnt,w
  3378  05AD  0084               	movwf	4
  3379  05AE  1383               	bcf	3,7	;select IRP bank0
  3380  05AF  0800               	movf	0,w
  3381  05B0  120A  158A  279B  120A  118A  	fcall	__$_logline_int
  3382  05B5                     l2997:
  3383  05B5  300A               	movlw	10
  3384  05B6  120A  158A  2212  120A  118A  	fcall	_Serial_write
  3385  05BB                     l2999:
  3386  05BB  1283               	bcf	3,5	;RP0=0, select bank0
  3387  05BC  1303               	bcf	3,6	;RP1=0, select bank0
  3388  05BD  0831               	movf	transport_udp_process@packet,w
  3389  05BE  3E06               	addlw	6
  3390  05BF  0084               	movwf	4
  3391  05C0  1383               	bcf	3,7	;select IRP bank0
  3392  05C1  0800               	movf	0,w
  3393  05C2  00AE               	movwf	??_transport_udp_process
  3394  05C3  082E               	movf	??_transport_udp_process,w
  3395  05C4  00AF               	movwf	transport_udp_process@count
  3396  05C5  2DD5               	goto	l3005
  3397  05C6                     l3001:
  3398  05C6  0A32               	incf	transport_udp_process@ppnt,w
  3399  05C7  0084               	movwf	4
  3400  05C8  0800               	movf	0,w
  3401  05C9  00AE               	movwf	??_transport_udp_process
  3402  05CA  0832               	movf	transport_udp_process@ppnt,w
  3403  05CB  0084               	movwf	4
  3404  05CC  0800               	movf	0,w
  3405  05CD  3E61               	addlw	(low (_prop| 0))& (0+255)
  3406  05CE  0084               	movwf	4
  3407  05CF  082E               	movf	??_transport_udp_process,w
  3408  05D0  0080               	movwf	0
  3409  05D1                     l3003:
  3410  05D1  3002               	movlw	2
  3411  05D2  00AE               	movwf	??_transport_udp_process
  3412  05D3  082E               	movf	??_transport_udp_process,w
  3413  05D4  07B2               	addwf	transport_udp_process@ppnt,f
  3414  05D5                     l3005:
  3415  05D5  3001               	movlw	1
  3416  05D6  02AF               	subwf	transport_udp_process@count,f
  3417  05D7  0A2F               	incf	transport_udp_process@count,w
  3418  05D8  1D03               	btfss	3,2
  3419  05D9  2DDB               	goto	u2171
  3420  05DA  2DDC               	goto	u2170
  3421  05DB                     u2171:
  3422  05DB  2DC6               	goto	l3001
  3423  05DC                     u2170:
  3424  05DC  2DF1               	goto	l94
  3425  05DD                     l3007:
  3426                           
  3427                           ;F:/GitHub/Graduation-Project/Lib-test/Embedded-shs/app/src/main.c: 173:     if (port ==
      +                           6) { { memcpy(buffer_tx + sizeof(struct UDPPacket), prop, sizeof(prop)); }; return; };
  3428  05DD  3006               	movlw	6
  3429  05DE  062D               	xorwf	transport_udp_process@port,w
  3430  05DF  1D03               	btfss	3,2
  3431  05E0  2DE2               	goto	u2181
  3432  05E1  2DE3               	goto	u2180
  3433  05E2                     u2181:
  3434  05E2  2DF1               	goto	l94
  3435  05E3                     u2180:
  3436  05E3                     l3009:
  3437  05E3  3061               	movlw	(low (_prop| 0))& (0+255)
  3438  05E4  00AE               	movwf	??_transport_udp_process
  3439  05E5  082E               	movf	??_transport_udp_process,w
  3440  05E6  00F2               	movwf	memcpy@s1
  3441  05E7  3002               	movlw	2
  3442  05E8  00F3               	movwf	memcpy@n
  3443  05E9  3000               	movlw	0
  3444  05EA  00F4               	movwf	memcpy@n+1
  3445  05EB  30C5               	movlw	(low ((_buffer_tx| 0+5)))& (0+255)
  3446  05EC  120A  158A  2517  120A  118A  	fcall	_memcpy
  3447  05F1                     l94:
  3448  05F1  0008               	return
  3449  05F2                     __end_of_transport_udp_process:
  3450                           
  3451                           	psect	text12
  3452  0D17                     __ptext12:	
  3453 ;; *************** function _memcpy *****************
  3454 ;; Defined at:
  3455 ;;		line 27 in file "C:\Program Files\Microchip\xc8\v2.35\pic\sources\c90\common\memcpy.c"
  3456 ;; Parameters:    Size  Location     Type
  3457 ;;  d1              1    wreg     PTR void 
  3458 ;;		 -> networkInfo(6), buffer_tx(32), 
  3459 ;;  s1              1    2[COMMON] PTR const void 
  3460 ;;		 -> networkInfo(6), network_pipe(5), prop(2), 
  3461 ;;  n               2    3[COMMON] unsigned int 
  3462 ;; Auto vars:     Size  Location     Type
  3463 ;;  d1              1    9[COMMON] PTR void 
  3464 ;;		 -> networkInfo(6), buffer_tx(32), 
  3465 ;;  s               1    8[COMMON] PTR const unsigned char 
  3466 ;;		 -> networkInfo(6), network_pipe(5), prop(2), 
  3467 ;;  d               1    7[COMMON] PTR unsigned char 
  3468 ;;		 -> networkInfo(6), buffer_tx(32), 
  3469 ;;  tmp             1    6[COMMON] unsigned char 
  3470 ;; Return value:  Size  Location     Type
  3471 ;;                  1    wreg      PTR void 
  3472 ;; Registers used:
  3473 ;;		wreg, fsr0l, fsr0h, status,2, status,0
  3474 ;; Tracked objects:
  3475 ;;		On entry : 0/0
  3476 ;;		On exit  : 0/0
  3477 ;;		Unchanged: 0/0
  3478 ;; Data sizes:     COMMON   BANK0   BANK1   BANK3   BANK2
  3479 ;;      Params:         3       0       0       0       0
  3480 ;;      Locals:         4       0       0       0       0
  3481 ;;      Temps:          1       0       0       0       0
  3482 ;;      Totals:         8       0       0       0       0
  3483 ;;Total ram usage:        8 bytes
  3484 ;; Hardware stack levels used: 1
  3485 ;; Hardware stack levels required when called: 2
  3486 ;; This function calls:
  3487 ;;		Nothing
  3488 ;; This function is called by:
  3489 ;;		_transport_udp_process
  3490 ;;		_internet_setNetworkPipe
  3491 ;; This function uses a non-reentrant model
  3492 ;;
  3493                           
  3494  0D17                     _memcpy:	
  3495                           ;psect for function _memcpy
  3496                           
  3497                           
  3498                           ;incstack = 0
  3499                           ; Regs used in _memcpy: [wreg-fsr0h+status,2+status,0]
  3500                           ;memcpy@d1 stored from wreg
  3501  0D17  00F9               	movwf	memcpy@d1
  3502  0D18                     l2919:
  3503  0D18  0872               	movf	memcpy@s1,w
  3504  0D19  00F5               	movwf	??_memcpy
  3505  0D1A  0875               	movf	??_memcpy,w
  3506  0D1B  00F8               	movwf	memcpy@s
  3507  0D1C  0879               	movf	memcpy@d1,w
  3508  0D1D  00F5               	movwf	??_memcpy
  3509  0D1E  0875               	movf	??_memcpy,w
  3510  0D1F  00F7               	movwf	memcpy@d
  3511  0D20  2D36               	goto	l1182
  3512  0D21                     l2921:
  3513  0D21  0878               	movf	memcpy@s,w
  3514  0D22  0084               	movwf	4
  3515  0D23  1383               	bcf	3,7	;select IRP bank0
  3516  0D24  0800               	movf	0,w
  3517  0D25  00F5               	movwf	??_memcpy
  3518  0D26  0875               	movf	??_memcpy,w
  3519  0D27  00F6               	movwf	memcpy@tmp
  3520  0D28                     l2923:
  3521  0D28  3001               	movlw	1
  3522  0D29  00F5               	movwf	??_memcpy
  3523  0D2A  0875               	movf	??_memcpy,w
  3524  0D2B  07F8               	addwf	memcpy@s,f
  3525  0D2C                     l2925:
  3526  0D2C  0876               	movf	memcpy@tmp,w
  3527  0D2D  00F5               	movwf	??_memcpy
  3528  0D2E  0877               	movf	memcpy@d,w
  3529  0D2F  0084               	movwf	4
  3530  0D30  0875               	movf	??_memcpy,w
  3531  0D31  0080               	movwf	0
  3532  0D32  3001               	movlw	1
  3533  0D33  00F5               	movwf	??_memcpy
  3534  0D34  0875               	movf	??_memcpy,w
  3535  0D35  07F7               	addwf	memcpy@d,f
  3536  0D36                     l1182:
  3537  0D36  3001               	movlw	1
  3538  0D37  02F3               	subwf	memcpy@n,f
  3539  0D38  3000               	movlw	0
  3540  0D39  1C03               	skipc
  3541  0D3A  03F4               	decf	memcpy@n+1,f
  3542  0D3B  02F4               	subwf	memcpy@n+1,f
  3543  0D3C  0A73               	incf	memcpy@n,w
  3544  0D3D  1D03               	skipz
  3545  0D3E  2D43               	goto	u2121
  3546  0D3F  0A74               	incf	memcpy@n+1,w
  3547  0D40  1D03               	btfss	3,2
  3548  0D41  2D43               	goto	u2121
  3549  0D42  2D44               	goto	u2120
  3550  0D43                     u2121:
  3551  0D43  2D21               	goto	l2921
  3552  0D44                     u2120:
  3553  0D44                     l1185:
  3554  0D44  0008               	return
  3555  0D45                     __end_of_memcpy:
  3556                           
  3557                           	psect	text13
  3558  0F9B                     __ptext13:	
  3559 ;; *************** function __$_logline_int *****************
  3560 ;; Defined at:
  3561 ;;		line 15 in file "F:/GitHub/Graduation-Project/Lib-test/Embedded-shs/libs/logline.c"
  3562 ;; Parameters:    Size  Location     Type
  3563 ;;  v               1    wreg     unsigned char 
  3564 ;; Auto vars:     Size  Location     Type
  3565 ;;  v               1   10[BANK0 ] unsigned char 
  3566 ;;  t               1   11[BANK0 ] unsigned char 
  3567 ;; Return value:  Size  Location     Type
  3568 ;;                  1    wreg      void 
  3569 ;; Registers used:
  3570 ;;		wreg, status,2, status,0, pclath, cstack
  3571 ;; Tracked objects:
  3572 ;;		On entry : 0/0
  3573 ;;		On exit  : 0/0
  3574 ;;		Unchanged: 0/0
  3575 ;; Data sizes:     COMMON   BANK0   BANK1   BANK3   BANK2
  3576 ;;      Params:         0       0       0       0       0
  3577 ;;      Locals:         0       6       0       0       0
  3578 ;;      Temps:          0       3       0       0       0
  3579 ;;      Totals:         0       9       0       0       0
  3580 ;;Total ram usage:        9 bytes
  3581 ;; Hardware stack levels used: 1
  3582 ;; Hardware stack levels required when called: 3
  3583 ;; This function calls:
  3584 ;;		_Serial_write
  3585 ;;		___awdiv
  3586 ;;		___awmod
  3587 ;;		___lbdiv
  3588 ;; This function is called by:
  3589 ;;		_transport_udp_process
  3590 ;; This function uses a non-reentrant model
  3591 ;;
  3592                           
  3593  0F9B                     __$_logline_int:	
  3594                           ;psect for function __$_logline_int
  3595                           
  3596                           
  3597                           ;incstack = 0
  3598                           ; Regs used in __$_logline_int: [wreg+status,2+status,0+pclath+cstack]
  3599                           ;__$_logline_int@v stored from wreg
  3600  0F9B  1283               	bcf	3,5	;RP0=0, select bank0
  3601  0F9C  1303               	bcf	3,6	;RP1=0, select bank0
  3602  0F9D  00AA               	movwf	__$_logline_int@v
  3603  0F9E                     l2903:
  3604                           
  3605                           ;F:/GitHub/Graduation-Project/Lib-test/Embedded-shs/libs/logline.c: 15: void _$_logline_
      +                          int(uint8_t v);F:/GitHub/Graduation-Project/Lib-test/Embedded-shs/libs/logline.c: 16: {;
      +                          F:/GitHub/Graduation-Project/Lib-test/Embedded-shs/libs/logline.c: 18:     uint8_t t = v
      +                           > 99 ? 100 : v > 9 ? 10
  3606  0F9E  3064               	movlw	100
  3607  0F9F  022A               	subwf	__$_logline_int@v,w
  3608  0FA0  1803               	skipnc
  3609  0FA1  2FA3               	goto	u2091
  3610  0FA2  2FA4               	goto	u2090
  3611  0FA3                     u2091:
  3612  0FA3  2FB8               	goto	l2911
  3613  0FA4                     u2090:
  3614  0FA4                     l2905:
  3615  0FA4  300A               	movlw	10
  3616  0FA5  022A               	subwf	__$_logline_int@v,w
  3617  0FA6  1803               	skipnc
  3618  0FA7  2FA9               	goto	u2101
  3619  0FA8  2FAA               	goto	u2100
  3620  0FA9                     u2101:
  3621  0FA9  2FAF               	goto	l2909
  3622  0FAA                     u2100:
  3623  0FAA                     l2907:
  3624  0FAA  3001               	movlw	1
  3625  0FAB  00A8               	movwf	__$_logline_int$872
  3626  0FAC  3000               	movlw	0
  3627  0FAD  00A9               	movwf	__$_logline_int$872+1
  3628  0FAE  2FB3               	goto	l701
  3629  0FAF                     l2909:
  3630  0FAF  300A               	movlw	10
  3631  0FB0  00A8               	movwf	__$_logline_int$872
  3632  0FB1  3000               	movlw	0
  3633  0FB2  00A9               	movwf	__$_logline_int$872+1
  3634  0FB3                     l701:
  3635  0FB3  0829               	movf	__$_logline_int$872+1,w
  3636  0FB4  00A7               	movwf	__$_logline_int$871+1
  3637  0FB5  0828               	movf	__$_logline_int$872,w
  3638  0FB6  00A6               	movwf	__$_logline_int$871
  3639  0FB7  2FBC               	goto	l697
  3640  0FB8                     l2911:
  3641  0FB8  3064               	movlw	100
  3642  0FB9  00A6               	movwf	__$_logline_int$871
  3643  0FBA  3000               	movlw	0
  3644  0FBB  00A7               	movwf	__$_logline_int$871+1
  3645  0FBC                     l697:
  3646  0FBC  0826               	movf	__$_logline_int$871,w
  3647  0FBD  00A3               	movwf	??__$_logline_int
  3648  0FBE  0823               	movf	??__$_logline_int,w
  3649  0FBF  00AB               	movwf	__$_logline_int@t
  3650  0FC0                     l2913:
  3651                           
  3652                           ;F:/GitHub/Graduation-Project/Lib-test/Embedded-shs/libs/logline.c: 21:     {;F:/GitHub/
      +                          Graduation-Project/Lib-test/Embedded-shs/libs/logline.c: 22:         Serial_write('0' + 
      +                          (v / t) % 10);
  3653  0FC0  300A               	movlw	10
  3654  0FC1  00F7               	movwf	___awmod@divisor
  3655  0FC2  3000               	movlw	0
  3656  0FC3  00F8               	movwf	___awmod@divisor+1
  3657  0FC4  082B               	movf	__$_logline_int@t,w
  3658  0FC5  00A3               	movwf	??__$_logline_int
  3659  0FC6  0823               	movf	??__$_logline_int,w
  3660  0FC7  00F2               	movwf	___lbdiv@divisor
  3661  0FC8  082A               	movf	__$_logline_int@v,w
  3662  0FC9  120A  158A  246B  120A  158A  	fcall	___lbdiv
  3663  0FCE  1283               	bcf	3,5	;RP0=0, select bank0
  3664  0FCF  1303               	bcf	3,6	;RP1=0, select bank0
  3665  0FD0  00A4               	movwf	??__$_logline_int+1
  3666  0FD1  01A5               	clrf	??__$_logline_int+2
  3667  0FD2  0824               	movf	??__$_logline_int+1,w
  3668  0FD3  00F9               	movwf	___awmod@dividend
  3669  0FD4  0825               	movf	??__$_logline_int+2,w
  3670  0FD5  00FA               	movwf	___awmod@dividend+1
  3671  0FD6  120A  158A  2740  120A  158A  	fcall	___awmod
  3672  0FDB  0877               	movf	?___awmod,w
  3673  0FDC  3E30               	addlw	48
  3674  0FDD  120A  158A  2212  120A  158A  	fcall	_Serial_write
  3675  0FE2                     l2915:
  3676                           
  3677                           ;F:/GitHub/Graduation-Project/Lib-test/Embedded-shs/libs/logline.c: 23:         t /= 10;
  3678  0FE2  300A               	movlw	10
  3679  0FE3  00F2               	movwf	___awdiv@divisor
  3680  0FE4  3000               	movlw	0
  3681  0FE5  00F3               	movwf	___awdiv@divisor+1
  3682  0FE6  1283               	bcf	3,5	;RP0=0, select bank0
  3683  0FE7  1303               	bcf	3,6	;RP1=0, select bank0
  3684  0FE8  082B               	movf	__$_logline_int@t,w
  3685  0FE9  00A3               	movwf	??__$_logline_int
  3686  0FEA  01A4               	clrf	??__$_logline_int+1
  3687  0FEB  0823               	movf	??__$_logline_int,w
  3688  0FEC  00F4               	movwf	___awdiv@dividend
  3689  0FED  0824               	movf	??__$_logline_int+1,w
  3690  0FEE  00F5               	movwf	___awdiv@dividend+1
  3691  0FEF  120A  118A  2045  120A  158A  	fcall	___awdiv
  3692  0FF4  0872               	movf	?___awdiv,w
  3693  0FF5  1283               	bcf	3,5	;RP0=0, select bank0
  3694  0FF6  1303               	bcf	3,6	;RP1=0, select bank0
  3695  0FF7  00A5               	movwf	??__$_logline_int+2
  3696  0FF8  0825               	movf	??__$_logline_int+2,w
  3697  0FF9  00AB               	movwf	__$_logline_int@t
  3698  0FFA                     l2917:
  3699                           
  3700                           ;F:/GitHub/Graduation-Project/Lib-test/Embedded-shs/libs/logline.c: 24:     } while (t >
      +                           0);
  3701  0FFA  082B               	movf	__$_logline_int@t,w
  3702  0FFB  1D03               	btfss	3,2
  3703  0FFC  2FFE               	goto	u2111
  3704  0FFD  2FFF               	goto	u2110
  3705  0FFE                     u2111:
  3706  0FFE  2FC0               	goto	l2913
  3707  0FFF                     u2110:
  3708  0FFF                     l704:
  3709  0FFF  0008               	return
  3710  1000                     __end_of__$_logline_int:
  3711                           
  3712                           	psect	text14
  3713  0C6B                     __ptext14:	
  3714 ;; *************** function ___lbdiv *****************
  3715 ;; Defined at:
  3716 ;;		line 4 in file "C:\Program Files\Microchip\xc8\v2.35\pic\sources\c90\common\lbdiv.c"
  3717 ;; Parameters:    Size  Location     Type
  3718 ;;  dividend        1    wreg     unsigned char 
  3719 ;;  divisor         1    2[COMMON] unsigned char 
  3720 ;; Auto vars:     Size  Location     Type
  3721 ;;  dividend        1    4[COMMON] unsigned char 
  3722 ;;  quotient        1    6[COMMON] unsigned char 
  3723 ;;  counter         1    5[COMMON] unsigned char 
  3724 ;; Return value:  Size  Location     Type
  3725 ;;                  1    wreg      unsigned char 
  3726 ;; Registers used:
  3727 ;;		wreg, status,2, status,0
  3728 ;; Tracked objects:
  3729 ;;		On entry : 0/0
  3730 ;;		On exit  : 0/0
  3731 ;;		Unchanged: 0/0
  3732 ;; Data sizes:     COMMON   BANK0   BANK1   BANK3   BANK2
  3733 ;;      Params:         1       0       0       0       0
  3734 ;;      Locals:         3       0       0       0       0
  3735 ;;      Temps:          1       0       0       0       0
  3736 ;;      Totals:         5       0       0       0       0
  3737 ;;Total ram usage:        5 bytes
  3738 ;; Hardware stack levels used: 1
  3739 ;; Hardware stack levels required when called: 2
  3740 ;; This function calls:
  3741 ;;		Nothing
  3742 ;; This function is called by:
  3743 ;;		__$_logline_int
  3744 ;; This function uses a non-reentrant model
  3745 ;;
  3746                           
  3747  0C6B                     ___lbdiv:	
  3748                           ;psect for function ___lbdiv
  3749                           
  3750                           
  3751                           ;incstack = 0
  3752                           ; Regs used in ___lbdiv: [wreg+status,2+status,0]
  3753                           ;___lbdiv@dividend stored from wreg
  3754  0C6B  00F4               	movwf	___lbdiv@dividend
  3755  0C6C                     l2149:
  3756  0C6C  01F6               	clrf	___lbdiv@quotient
  3757  0C6D                     l2151:
  3758  0C6D  0872               	movf	___lbdiv@divisor,w
  3759  0C6E  1903               	btfsc	3,2
  3760  0C6F  2C71               	goto	u1211
  3761  0C70  2C72               	goto	u1210
  3762  0C71                     u1211:
  3763  0C71  2C92               	goto	l2171
  3764  0C72                     u1210:
  3765  0C72                     l2153:
  3766  0C72  01F5               	clrf	___lbdiv@counter
  3767  0C73  0AF5               	incf	___lbdiv@counter,f
  3768  0C74  2C7B               	goto	l2159
  3769  0C75                     l2155:
  3770  0C75  1003               	clrc
  3771  0C76  0DF2               	rlf	___lbdiv@divisor,f
  3772  0C77                     l2157:
  3773  0C77  3001               	movlw	1
  3774  0C78  00F3               	movwf	??___lbdiv
  3775  0C79  0873               	movf	??___lbdiv,w
  3776  0C7A  07F5               	addwf	___lbdiv@counter,f
  3777  0C7B                     l2159:
  3778  0C7B  1FF2               	btfss	___lbdiv@divisor,7
  3779  0C7C  2C7E               	goto	u1221
  3780  0C7D  2C7F               	goto	u1220
  3781  0C7E                     u1221:
  3782  0C7E  2C75               	goto	l2155
  3783  0C7F                     u1220:
  3784  0C7F                     l2161:
  3785  0C7F  1003               	clrc
  3786  0C80  0DF6               	rlf	___lbdiv@quotient,f
  3787  0C81  0872               	movf	___lbdiv@divisor,w
  3788  0C82  0274               	subwf	___lbdiv@dividend,w
  3789  0C83  1C03               	skipc
  3790  0C84  2C86               	goto	u1231
  3791  0C85  2C87               	goto	u1230
  3792  0C86                     u1231:
  3793  0C86  2C8A               	goto	l2167
  3794  0C87                     u1230:
  3795  0C87                     l2163:
  3796  0C87  0872               	movf	___lbdiv@divisor,w
  3797  0C88  02F4               	subwf	___lbdiv@dividend,f
  3798  0C89                     l2165:
  3799  0C89  1476               	bsf	___lbdiv@quotient,0
  3800  0C8A                     l2167:
  3801  0C8A  1003               	clrc
  3802  0C8B  0CF2               	rrf	___lbdiv@divisor,f
  3803  0C8C                     l2169:
  3804  0C8C  3001               	movlw	1
  3805  0C8D  02F5               	subwf	___lbdiv@counter,f
  3806  0C8E  1D03               	btfss	3,2
  3807  0C8F  2C91               	goto	u1241
  3808  0C90  2C92               	goto	u1240
  3809  0C91                     u1241:
  3810  0C91  2C7F               	goto	l2161
  3811  0C92                     u1240:
  3812  0C92                     l2171:
  3813  0C92  0876               	movf	___lbdiv@quotient,w
  3814  0C93                     l937:
  3815  0C93  0008               	return
  3816  0C94                     __end_of___lbdiv:
  3817                           
  3818                           	psect	text15
  3819  0F40                     __ptext15:	
  3820 ;; *************** function ___awmod *****************
  3821 ;; Defined at:
  3822 ;;		line 5 in file "C:\Program Files\Microchip\xc8\v2.35\pic\sources\c90\common\awmod.c"
  3823 ;; Parameters:    Size  Location     Type
  3824 ;;  divisor         2    7[COMMON] int 
  3825 ;;  dividend        2    9[COMMON] int 
  3826 ;; Auto vars:     Size  Location     Type
  3827 ;;  sign            1    2[BANK0 ] unsigned char 
  3828 ;;  counter         1    1[BANK0 ] unsigned char 
  3829 ;; Return value:  Size  Location     Type
  3830 ;;                  2    7[COMMON] int 
  3831 ;; Registers used:
  3832 ;;		wreg, status,2, status,0
  3833 ;; Tracked objects:
  3834 ;;		On entry : 0/0
  3835 ;;		On exit  : 0/0
  3836 ;;		Unchanged: 0/0
  3837 ;; Data sizes:     COMMON   BANK0   BANK1   BANK3   BANK2
  3838 ;;      Params:         4       0       0       0       0
  3839 ;;      Locals:         0       2       0       0       0
  3840 ;;      Temps:          0       1       0       0       0
  3841 ;;      Totals:         4       3       0       0       0
  3842 ;;Total ram usage:        7 bytes
  3843 ;; Hardware stack levels used: 1
  3844 ;; Hardware stack levels required when called: 2
  3845 ;; This function calls:
  3846 ;;		Nothing
  3847 ;; This function is called by:
  3848 ;;		__$_logline_int
  3849 ;; This function uses a non-reentrant model
  3850 ;;
  3851                           
  3852  0F40                     ___awmod:	
  3853                           ;psect for function ___awmod
  3854                           
  3855  0F40                     l2865:	
  3856                           ;incstack = 0
  3857                           ; Regs used in ___awmod: [wreg+status,2+status,0]
  3858                           
  3859  0F40  1283               	bcf	3,5	;RP0=0, select bank0
  3860  0F41  1303               	bcf	3,6	;RP1=0, select bank0
  3861  0F42  01A2               	clrf	___awmod@sign
  3862  0F43                     l2867:
  3863  0F43  1FFA               	btfss	___awmod@dividend+1,7
  3864  0F44  2F46               	goto	u2001
  3865  0F45  2F47               	goto	u2000
  3866  0F46                     u2001:
  3867  0F46  2F4E               	goto	l2873
  3868  0F47                     u2000:
  3869  0F47                     l2869:
  3870  0F47  09F9               	comf	___awmod@dividend,f
  3871  0F48  09FA               	comf	___awmod@dividend+1,f
  3872  0F49  0AF9               	incf	___awmod@dividend,f
  3873  0F4A  1903               	skipnz
  3874  0F4B  0AFA               	incf	___awmod@dividend+1,f
  3875  0F4C                     l2871:
  3876  0F4C  01A2               	clrf	___awmod@sign
  3877  0F4D  0AA2               	incf	___awmod@sign,f
  3878  0F4E                     l2873:
  3879  0F4E  1FF8               	btfss	___awmod@divisor+1,7
  3880  0F4F  2F51               	goto	u2011
  3881  0F50  2F52               	goto	u2010
  3882  0F51                     u2011:
  3883  0F51  2F57               	goto	l2877
  3884  0F52                     u2010:
  3885  0F52                     l2875:
  3886  0F52  09F7               	comf	___awmod@divisor,f
  3887  0F53  09F8               	comf	___awmod@divisor+1,f
  3888  0F54  0AF7               	incf	___awmod@divisor,f
  3889  0F55  1903               	skipnz
  3890  0F56  0AF8               	incf	___awmod@divisor+1,f
  3891  0F57                     l2877:
  3892  0F57  0877               	movf	___awmod@divisor,w
  3893  0F58  0478               	iorwf	___awmod@divisor+1,w
  3894  0F59  1903               	btfsc	3,2
  3895  0F5A  2F5C               	goto	u2021
  3896  0F5B  2F5D               	goto	u2020
  3897  0F5C                     u2021:
  3898  0F5C  2F8C               	goto	l2895
  3899  0F5D                     u2020:
  3900  0F5D                     l2879:
  3901  0F5D  01A1               	clrf	___awmod@counter
  3902  0F5E  0AA1               	incf	___awmod@counter,f
  3903  0F5F  2F6B               	goto	l2885
  3904  0F60                     l2881:
  3905  0F60  3001               	movlw	1
  3906  0F61                     u2035:
  3907  0F61  1003               	clrc
  3908  0F62  0DF7               	rlf	___awmod@divisor,f
  3909  0F63  0DF8               	rlf	___awmod@divisor+1,f
  3910  0F64  3EFF               	addlw	-1
  3911  0F65  1D03               	skipz
  3912  0F66  2F61               	goto	u2035
  3913  0F67                     l2883:
  3914  0F67  3001               	movlw	1
  3915  0F68  00A0               	movwf	??___awmod
  3916  0F69  0820               	movf	??___awmod,w
  3917  0F6A  07A1               	addwf	___awmod@counter,f
  3918  0F6B                     l2885:
  3919  0F6B  1FF8               	btfss	___awmod@divisor+1,7
  3920  0F6C  2F6E               	goto	u2041
  3921  0F6D  2F6F               	goto	u2040
  3922  0F6E                     u2041:
  3923  0F6E  2F60               	goto	l2881
  3924  0F6F                     u2040:
  3925  0F6F                     l2887:
  3926  0F6F  0878               	movf	___awmod@divisor+1,w
  3927  0F70  027A               	subwf	___awmod@dividend+1,w
  3928  0F71  1D03               	skipz
  3929  0F72  2F75               	goto	u2055
  3930  0F73  0877               	movf	___awmod@divisor,w
  3931  0F74  0279               	subwf	___awmod@dividend,w
  3932  0F75                     u2055:
  3933  0F75  1C03               	skipc
  3934  0F76  2F78               	goto	u2051
  3935  0F77  2F79               	goto	u2050
  3936  0F78                     u2051:
  3937  0F78  2F7F               	goto	l2891
  3938  0F79                     u2050:
  3939  0F79                     l2889:
  3940  0F79  0877               	movf	___awmod@divisor,w
  3941  0F7A  02F9               	subwf	___awmod@dividend,f
  3942  0F7B  0878               	movf	___awmod@divisor+1,w
  3943  0F7C  1C03               	skipc
  3944  0F7D  03FA               	decf	___awmod@dividend+1,f
  3945  0F7E  02FA               	subwf	___awmod@dividend+1,f
  3946  0F7F                     l2891:
  3947  0F7F  3001               	movlw	1
  3948  0F80                     u2065:
  3949  0F80  1003               	clrc
  3950  0F81  0CF8               	rrf	___awmod@divisor+1,f
  3951  0F82  0CF7               	rrf	___awmod@divisor,f
  3952  0F83  3EFF               	addlw	-1
  3953  0F84  1D03               	skipz
  3954  0F85  2F80               	goto	u2065
  3955  0F86                     l2893:
  3956  0F86  3001               	movlw	1
  3957  0F87  02A1               	subwf	___awmod@counter,f
  3958  0F88  1D03               	btfss	3,2
  3959  0F89  2F8B               	goto	u2071
  3960  0F8A  2F8C               	goto	u2070
  3961  0F8B                     u2071:
  3962  0F8B  2F6F               	goto	l2887
  3963  0F8C                     u2070:
  3964  0F8C                     l2895:
  3965  0F8C  0822               	movf	___awmod@sign,w
  3966  0F8D  1903               	btfsc	3,2
  3967  0F8E  2F90               	goto	u2081
  3968  0F8F  2F91               	goto	u2080
  3969  0F90                     u2081:
  3970  0F90  2F96               	goto	l2899
  3971  0F91                     u2080:
  3972  0F91                     l2897:
  3973  0F91  09F9               	comf	___awmod@dividend,f
  3974  0F92  09FA               	comf	___awmod@dividend+1,f
  3975  0F93  0AF9               	incf	___awmod@dividend,f
  3976  0F94  1903               	skipnz
  3977  0F95  0AFA               	incf	___awmod@dividend+1,f
  3978  0F96                     l2899:
  3979  0F96  087A               	movf	___awmod@dividend+1,w
  3980  0F97  00F8               	movwf	?___awmod+1
  3981  0F98  0879               	movf	___awmod@dividend,w
  3982  0F99  00F7               	movwf	?___awmod
  3983  0F9A                     l897:
  3984  0F9A  0008               	return
  3985  0F9B                     __end_of___awmod:
  3986                           
  3987                           	psect	text16
  3988  0045                     __ptext16:	
  3989 ;; *************** function ___awdiv *****************
  3990 ;; Defined at:
  3991 ;;		line 5 in file "C:\Program Files\Microchip\xc8\v2.35\pic\sources\c90\common\awdiv.c"
  3992 ;; Parameters:    Size  Location     Type
  3993 ;;  divisor         2    2[COMMON] int 
  3994 ;;  dividend        2    4[COMMON] int 
  3995 ;; Auto vars:     Size  Location     Type
  3996 ;;  quotient        2    9[COMMON] int 
  3997 ;;  sign            1    8[COMMON] unsigned char 
  3998 ;;  counter         1    7[COMMON] unsigned char 
  3999 ;; Return value:  Size  Location     Type
  4000 ;;                  2    2[COMMON] int 
  4001 ;; Registers used:
  4002 ;;		wreg, status,2, status,0
  4003 ;; Tracked objects:
  4004 ;;		On entry : 0/0
  4005 ;;		On exit  : 0/0
  4006 ;;		Unchanged: 0/0
  4007 ;; Data sizes:     COMMON   BANK0   BANK1   BANK3   BANK2
  4008 ;;      Params:         4       0       0       0       0
  4009 ;;      Locals:         4       0       0       0       0
  4010 ;;      Temps:          1       0       0       0       0
  4011 ;;      Totals:         9       0       0       0       0
  4012 ;;Total ram usage:        9 bytes
  4013 ;; Hardware stack levels used: 1
  4014 ;; Hardware stack levels required when called: 2
  4015 ;; This function calls:
  4016 ;;		Nothing
  4017 ;; This function is called by:
  4018 ;;		__$_logline_int
  4019 ;; This function uses a non-reentrant model
  4020 ;;
  4021                           
  4022  0045                     ___awdiv:	
  4023                           ;psect for function ___awdiv
  4024                           
  4025  0045                     l2067:	
  4026                           ;incstack = 0
  4027                           ; Regs used in ___awdiv: [wreg+status,2+status,0]
  4028                           
  4029  0045  01F8               	clrf	___awdiv@sign
  4030  0046                     l2069:
  4031  0046  1FF3               	btfss	___awdiv@divisor+1,7
  4032  0047  2849               	goto	u1021
  4033  0048  284A               	goto	u1020
  4034  0049                     u1021:
  4035  0049  2851               	goto	l2075
  4036  004A                     u1020:
  4037  004A                     l2071:
  4038  004A  09F2               	comf	___awdiv@divisor,f
  4039  004B  09F3               	comf	___awdiv@divisor+1,f
  4040  004C  0AF2               	incf	___awdiv@divisor,f
  4041  004D  1903               	skipnz
  4042  004E  0AF3               	incf	___awdiv@divisor+1,f
  4043  004F                     l2073:
  4044  004F  01F8               	clrf	___awdiv@sign
  4045  0050  0AF8               	incf	___awdiv@sign,f
  4046  0051                     l2075:
  4047  0051  1FF5               	btfss	___awdiv@dividend+1,7
  4048  0052  2854               	goto	u1031
  4049  0053  2855               	goto	u1030
  4050  0054                     u1031:
  4051  0054  285E               	goto	l2081
  4052  0055                     u1030:
  4053  0055                     l2077:
  4054  0055  09F4               	comf	___awdiv@dividend,f
  4055  0056  09F5               	comf	___awdiv@dividend+1,f
  4056  0057  0AF4               	incf	___awdiv@dividend,f
  4057  0058  1903               	skipnz
  4058  0059  0AF5               	incf	___awdiv@dividend+1,f
  4059  005A                     l2079:
  4060  005A  3001               	movlw	1
  4061  005B  00F6               	movwf	??___awdiv
  4062  005C  0876               	movf	??___awdiv,w
  4063  005D  06F8               	xorwf	___awdiv@sign,f
  4064  005E                     l2081:
  4065  005E  01F9               	clrf	___awdiv@quotient
  4066  005F  01FA               	clrf	___awdiv@quotient+1
  4067  0060                     l2083:
  4068  0060  0872               	movf	___awdiv@divisor,w
  4069  0061  0473               	iorwf	___awdiv@divisor+1,w
  4070  0062  1903               	btfsc	3,2
  4071  0063  2865               	goto	u1041
  4072  0064  2866               	goto	u1040
  4073  0065                     u1041:
  4074  0065  289D               	goto	l2103
  4075  0066                     u1040:
  4076  0066                     l2085:
  4077  0066  01F7               	clrf	___awdiv@counter
  4078  0067  0AF7               	incf	___awdiv@counter,f
  4079  0068  2874               	goto	l2091
  4080  0069                     l2087:
  4081  0069  3001               	movlw	1
  4082  006A                     u1055:
  4083  006A  1003               	clrc
  4084  006B  0DF2               	rlf	___awdiv@divisor,f
  4085  006C  0DF3               	rlf	___awdiv@divisor+1,f
  4086  006D  3EFF               	addlw	-1
  4087  006E  1D03               	skipz
  4088  006F  286A               	goto	u1055
  4089  0070                     l2089:
  4090  0070  3001               	movlw	1
  4091  0071  00F6               	movwf	??___awdiv
  4092  0072  0876               	movf	??___awdiv,w
  4093  0073  07F7               	addwf	___awdiv@counter,f
  4094  0074                     l2091:
  4095  0074  1FF3               	btfss	___awdiv@divisor+1,7
  4096  0075  2877               	goto	u1061
  4097  0076  2878               	goto	u1060
  4098  0077                     u1061:
  4099  0077  2869               	goto	l2087
  4100  0078                     u1060:
  4101  0078                     l2093:
  4102  0078  3001               	movlw	1
  4103  0079                     u1075:
  4104  0079  1003               	clrc
  4105  007A  0DF9               	rlf	___awdiv@quotient,f
  4106  007B  0DFA               	rlf	___awdiv@quotient+1,f
  4107  007C  3EFF               	addlw	-1
  4108  007D  1D03               	skipz
  4109  007E  2879               	goto	u1075
  4110  007F  0873               	movf	___awdiv@divisor+1,w
  4111  0080  0275               	subwf	___awdiv@dividend+1,w
  4112  0081  1D03               	skipz
  4113  0082  2885               	goto	u1085
  4114  0083  0872               	movf	___awdiv@divisor,w
  4115  0084  0274               	subwf	___awdiv@dividend,w
  4116  0085                     u1085:
  4117  0085  1C03               	skipc
  4118  0086  2888               	goto	u1081
  4119  0087  2889               	goto	u1080
  4120  0088                     u1081:
  4121  0088  2890               	goto	l2099
  4122  0089                     u1080:
  4123  0089                     l2095:
  4124  0089  0872               	movf	___awdiv@divisor,w
  4125  008A  02F4               	subwf	___awdiv@dividend,f
  4126  008B  0873               	movf	___awdiv@divisor+1,w
  4127  008C  1C03               	skipc
  4128  008D  03F5               	decf	___awdiv@dividend+1,f
  4129  008E  02F5               	subwf	___awdiv@dividend+1,f
  4130  008F                     l2097:
  4131  008F  1479               	bsf	___awdiv@quotient,0
  4132  0090                     l2099:
  4133  0090  3001               	movlw	1
  4134  0091                     u1095:
  4135  0091  1003               	clrc
  4136  0092  0CF3               	rrf	___awdiv@divisor+1,f
  4137  0093  0CF2               	rrf	___awdiv@divisor,f
  4138  0094  3EFF               	addlw	-1
  4139  0095  1D03               	skipz
  4140  0096  2891               	goto	u1095
  4141  0097                     l2101:
  4142  0097  3001               	movlw	1
  4143  0098  02F7               	subwf	___awdiv@counter,f
  4144  0099  1D03               	btfss	3,2
  4145  009A  289C               	goto	u1101
  4146  009B  289D               	goto	u1100
  4147  009C                     u1101:
  4148  009C  2878               	goto	l2093
  4149  009D                     u1100:
  4150  009D                     l2103:
  4151  009D  0878               	movf	___awdiv@sign,w
  4152  009E  1903               	btfsc	3,2
  4153  009F  28A1               	goto	u1111
  4154  00A0  28A2               	goto	u1110
  4155  00A1                     u1111:
  4156  00A1  28A7               	goto	l2107
  4157  00A2                     u1110:
  4158  00A2                     l2105:
  4159  00A2  09F9               	comf	___awdiv@quotient,f
  4160  00A3  09FA               	comf	___awdiv@quotient+1,f
  4161  00A4  0AF9               	incf	___awdiv@quotient,f
  4162  00A5  1903               	skipnz
  4163  00A6  0AFA               	incf	___awdiv@quotient+1,f
  4164  00A7                     l2107:
  4165  00A7  087A               	movf	___awdiv@quotient+1,w
  4166  00A8  00F3               	movwf	?___awdiv+1
  4167  00A9  0879               	movf	___awdiv@quotient,w
  4168  00AA  00F2               	movwf	?___awdiv
  4169  00AB                     l884:
  4170  00AB  0008               	return
  4171  00AC                     __end_of___awdiv:
  4172                           
  4173                           	psect	text17
  4174  0361                     __ptext17:	
  4175 ;; *************** function _internet_relay *****************
  4176 ;; Defined at:
  4177 ;;		line 61 in file "F:/GitHub/Graduation-Project/Lib-test/Embedded-shs/libs/internet.c"
  4178 ;; Parameters:    Size  Location     Type
  4179 ;;  payload         1    wreg     PTR unsigned char 
  4180 ;;		 -> buffer_rx(32), buffer_tx(32), 
  4181 ;;  size            1    3[BANK0 ] unsigned char 
  4182 ;; Auto vars:     Size  Location     Type
  4183 ;;  payload         1    7[BANK0 ] PTR unsigned char 
  4184 ;;		 -> buffer_rx(32), buffer_tx(32), 
  4185 ;;  packetHeader    1    6[BANK0 ] PTR struct Packet
  4186 ;;		 -> buffer_rx(32), buffer_tx(32), 
  4187 ;;  dstMask         1    5[BANK0 ] unsigned char 
  4188 ;;  status          1    0        unsigned char 
  4189 ;; Return value:  Size  Location     Type
  4190 ;;                  1    wreg      void 
  4191 ;; Registers used:
  4192 ;;		wreg, fsr0l, fsr0h, status,2, status,0, btemp+1, pclath, cstack
  4193 ;; Tracked objects:
  4194 ;;		On entry : 0/0
  4195 ;;		On exit  : 0/0
  4196 ;;		Unchanged: 0/0
  4197 ;; Data sizes:     COMMON   BANK0   BANK1   BANK3   BANK2
  4198 ;;      Params:         0       1       0       0       0
  4199 ;;      Locals:         0       3       0       0       0
  4200 ;;      Temps:          0       1       0       0       0
  4201 ;;      Totals:         0       5       0       0       0
  4202 ;;Total ram usage:        5 bytes
  4203 ;; Hardware stack levels used: 1
  4204 ;; Hardware stack levels required when called: 6
  4205 ;; This function calls:
  4206 ;;		_RF24_openReadingPipe
  4207 ;;		_RF24_openWritingPipe
  4208 ;;		_RF24_startListening
  4209 ;;		_RF24_stopListening
  4210 ;;		_RF24_write
  4211 ;;		_Serial_write
  4212 ;;		__$_logline_str
  4213 ;;		_internet_calculateMask
  4214 ;;		_internet_hasChild
  4215 ;; This function is called by:
  4216 ;;		_internet_tx
  4217 ;;		_internet_rx
  4218 ;; This function uses a non-reentrant model
  4219 ;;
  4220                           
  4221  0361                     _internet_relay:	
  4222                           ;psect for function _internet_relay
  4223                           
  4224                           
  4225                           ;incstack = 0
  4226 ;; hardware stack exceeded
  4227                           ; Regs used in _internet_relay: [wreg-fsr0h+status,2+status,0+btemp+1+pclath+cstack]
  4228                           ;internet_relay@payload stored from wreg
  4229  0361  1283               	bcf	3,5	;RP0=0, select bank0
  4230  0362  1303               	bcf	3,6	;RP1=0, select bank0
  4231  0363  00A7               	movwf	internet_relay@payload
  4232  0364                     l3055:
  4233                           
  4234                           ;F:/GitHub/Graduation-Project/Lib-test/Embedded-shs/libs/internet.c: 61: void internet_r
      +                          elay(uint8_t *payload, uint8_t size);F:/GitHub/Graduation-Project/Lib-test/Embedded-shs/
      +                          libs/internet.c: 62: {;F:/GitHub/Graduation-Project/Lib-test/Embedded-shs/libs/internet.
      +                          c: 64:     struct Packet *packetHeader = (struct Packet *)payload;
  4235  0364  0827               	movf	internet_relay@payload,w
  4236  0365  00A4               	movwf	??_internet_relay
  4237  0366  0824               	movf	??_internet_relay,w
  4238  0367  00A6               	movwf	internet_relay@packetHeader
  4239  0368                     l3057:
  4240                           
  4241                           ;F:/GitHub/Graduation-Project/Lib-test/Embedded-shs/libs/internet.c: 65:     if (node.ad
      +                          dress == 0)
  4242  0368  0844               	movf	_node,w
  4243  0369  1D03               	btfss	3,2
  4244  036A  2B6C               	goto	u2241
  4245  036B  2B6D               	goto	u2240
  4246  036C                     u2241:
  4247  036C  2B6E               	goto	l3061
  4248  036D                     u2240:
  4249  036D  2C4E               	goto	l281
  4250  036E                     l3061:
  4251                           
  4252                           ;F:/GitHub/Graduation-Project/Lib-test/Embedded-shs/libs/internet.c: 72:     uint8_t dst
      +                          Mask = internet_calculateMask(packetHeader->destination);
  4253  036E  0826               	movf	internet_relay@packetHeader,w
  4254  036F  3E03               	addlw	3
  4255  0370  0084               	movwf	4
  4256  0371  1383               	bcf	3,7	;select IRP bank0
  4257  0372  0800               	movf	0,w
  4258  0373  120A  158A  222C  120A  118A  	fcall	_internet_calculateMask
  4259  0378  1283               	bcf	3,5	;RP0=0, select bank0
  4260  0379  1303               	bcf	3,6	;RP1=0, select bank0
  4261  037A  00A4               	movwf	??_internet_relay
  4262  037B  0824               	movf	??_internet_relay,w
  4263  037C  00A5               	movwf	internet_relay@dstMask
  4264  037D                     l3063:
  4265                           
  4266                           ;F:/GitHub/Graduation-Project/Lib-test/Embedded-shs/libs/internet.c: 73:     uint8_t sta
      +                          tus;;F:/GitHub/Graduation-Project/Lib-test/Embedded-shs/libs/internet.c: 74:     if (dst
      +                          Mask > node.mask && internet_hasChild(packetHeader->destination))
  4267  037D  0825               	movf	internet_relay@dstMask,w
  4268  037E  0245               	subwf	_node+1,w
  4269  037F  1803               	skipnc
  4270  0380  2B82               	goto	u2251
  4271  0381  2B83               	goto	u2250
  4272  0382                     u2251:
  4273  0382  2BFE               	goto	l3093
  4274  0383                     u2250:
  4275  0383                     l3065:
  4276  0383  0826               	movf	internet_relay@packetHeader,w
  4277  0384  3E03               	addlw	3
  4278  0385  0084               	movwf	4
  4279  0386  1383               	bcf	3,7	;select IRP bank0
  4280  0387  0800               	movf	0,w
  4281  0388  120A  158A  224B  120A  118A  	fcall	_internet_hasChild
  4282  038D  3A00               	xorlw	0
  4283  038E  1903               	skipnz
  4284  038F  2B91               	goto	u2261
  4285  0390  2B92               	goto	u2260
  4286  0391                     u2261:
  4287  0391  2BFE               	goto	l3093
  4288  0392                     u2260:
  4289  0392                     l3067:
  4290                           
  4291                           ;F:/GitHub/Graduation-Project/Lib-test/Embedded-shs/libs/internet.c: 75:     {;F:/GitHub
      +                          /Graduation-Project/Lib-test/Embedded-shs/libs/internet.c: 76:         if (packetHeader-
      +                          >destination & node.routingMask)
  4292  0392  1283               	bcf	3,5	;RP0=0, select bank0
  4293  0393  1303               	bcf	3,6	;RP1=0, select bank0
  4294  0394  0826               	movf	internet_relay@packetHeader,w
  4295  0395  3E03               	addlw	3
  4296  0396  0084               	movwf	4
  4297  0397  1383               	bcf	3,7	;select IRP bank0
  4298  0398  0800               	movf	0,w
  4299  0399  0546               	andwf	_node+2,w
  4300  039A  1903               	btfsc	3,2
  4301  039B  2B9D               	goto	u2271
  4302  039C  2B9E               	goto	u2270
  4303  039D                     u2271:
  4304  039D  2BCE               	goto	l3081
  4305  039E                     u2270:
  4306  039E                     l3069:
  4307                           
  4308                           ;F:/GitHub/Graduation-Project/Lib-test/Embedded-shs/libs/internet.c: 77:         {;F:/Gi
      +                          tHub/Graduation-Project/Lib-test/Embedded-shs/libs/internet.c: 79:             networkIn
      +                          fo.networkPipe[0] = node.child1;
  4309  039E  0848               	movf	_node+4,w
  4310  039F  00A4               	movwf	??_internet_relay
  4311  03A0  0824               	movf	??_internet_relay,w
  4312  03A1  00D6               	movwf	_networkInfo
  4313  03A2                     l3071:
  4314                           
  4315                           ;F:/GitHub/Graduation-Project/Lib-test/Embedded-shs/libs/internet.c: 80:             RF2
      +                          4_openReadingPipe(0, networkInfo.networkPipe);
  4316  03A2  3056               	movlw	(low (_networkInfo| 0))& (0+255)
  4317  03A3  00F9               	movwf	RF24_openReadingPipe@address
  4318  03A4  3000               	movlw	0
  4319  03A5  00FA               	movwf	RF24_openReadingPipe@address+1
  4320  03A6  3000               	movlw	0
  4321  03A7  120A  118A  20AC  120A  118A  	fcall	_RF24_openReadingPipe
  4322  03AC                     l3073:
  4323                           
  4324                           ;F:/GitHub/Graduation-Project/Lib-test/Embedded-shs/libs/internet.c: 81:             RF2
      +                          4_openWritingPipe(networkInfo.networkPipe);
  4325  03AC  3056               	movlw	(low (_networkInfo| 0))& (0+255)
  4326  03AD  120A  158A  223B  120A  118A  	fcall	_RF24_openWritingPipe
  4327  03B2                     l3075:
  4328                           
  4329                           ;F:/GitHub/Graduation-Project/Lib-test/Embedded-shs/libs/internet.c: 82:             RF2
      +                          4_stopListening();
  4330  03B2  120A  158A  2443  120A  118A  	fcall	_RF24_stopListening
  4331  03B7                     l3077:
  4332                           
  4333                           ;F:/GitHub/Graduation-Project/Lib-test/Embedded-shs/libs/internet.c: 83:             RF2
      +                          4_write(payload, size);
  4334  03B7  1283               	bcf	3,5	;RP0=0, select bank0
  4335  03B8  1303               	bcf	3,6	;RP1=0, select bank0
  4336  03B9  0823               	movf	internet_relay@size,w
  4337  03BA  00A4               	movwf	??_internet_relay
  4338  03BB  0824               	movf	??_internet_relay,w
  4339  03BC  00A0               	movwf	RF24_write@len
  4340  03BD  0827               	movf	internet_relay@payload,w
  4341  03BE  120A  118A  27B0  120A  118A  	fcall	_RF24_write
  4342  03C3                     l3079:
  4343                           
  4344                           ;F:/GitHub/Graduation-Project/Lib-test/Embedded-shs/libs/internet.c: 84:             RF2
      +                          4_openReadingPipe(0, BASE_PIPE);
  4345  03C3  3030               	movlw	low (_BASE_PIPE| (0+32768))
  4346  03C4  00F9               	movwf	RF24_openReadingPipe@address
  4347  03C5  3081               	movlw	high (_BASE_PIPE| (0+32768))
  4348  03C6  00FA               	movwf	RF24_openReadingPipe@address+1
  4349  03C7  3000               	movlw	0
  4350  03C8  120A  118A  20AC  120A  118A  	fcall	_RF24_openReadingPipe
  4351                           
  4352                           ;F:/GitHub/Graduation-Project/Lib-test/Embedded-shs/libs/internet.c: 85:         }
  4353  03CD  2C49               	goto	l3111
  4354  03CE                     l3081:
  4355                           
  4356                           ;F:/GitHub/Graduation-Project/Lib-test/Embedded-shs/libs/internet.c: 87:         {;F:/Gi
      +                          tHub/Graduation-Project/Lib-test/Embedded-shs/libs/internet.c: 89:             networkIn
      +                          fo.networkPipe[0] = node.child0;
  4357  03CE  0847               	movf	_node+3,w
  4358  03CF  00A4               	movwf	??_internet_relay
  4359  03D0  0824               	movf	??_internet_relay,w
  4360  03D1  00D6               	movwf	_networkInfo
  4361  03D2                     l3083:
  4362                           
  4363                           ;F:/GitHub/Graduation-Project/Lib-test/Embedded-shs/libs/internet.c: 90:             RF2
      +                          4_openReadingPipe(0, networkInfo.networkPipe);
  4364  03D2  3056               	movlw	(low (_networkInfo| 0))& (0+255)
  4365  03D3  00F9               	movwf	RF24_openReadingPipe@address
  4366  03D4  3000               	movlw	0
  4367  03D5  00FA               	movwf	RF24_openReadingPipe@address+1
  4368  03D6  3000               	movlw	0
  4369  03D7  120A  118A  20AC  120A  118A  	fcall	_RF24_openReadingPipe
  4370  03DC                     l3085:
  4371                           
  4372                           ;F:/GitHub/Graduation-Project/Lib-test/Embedded-shs/libs/internet.c: 91:             RF2
      +                          4_openWritingPipe(networkInfo.networkPipe);
  4373  03DC  3056               	movlw	(low (_networkInfo| 0))& (0+255)
  4374  03DD  120A  158A  223B  120A  118A  	fcall	_RF24_openWritingPipe
  4375  03E2                     l3087:
  4376                           
  4377                           ;F:/GitHub/Graduation-Project/Lib-test/Embedded-shs/libs/internet.c: 92:             RF2
      +                          4_stopListening();
  4378  03E2  120A  158A  2443  120A  118A  	fcall	_RF24_stopListening
  4379  03E7                     l3089:
  4380                           
  4381                           ;F:/GitHub/Graduation-Project/Lib-test/Embedded-shs/libs/internet.c: 93:             RF2
      +                          4_write(payload, size);
  4382  03E7  1283               	bcf	3,5	;RP0=0, select bank0
  4383  03E8  1303               	bcf	3,6	;RP1=0, select bank0
  4384  03E9  0823               	movf	internet_relay@size,w
  4385  03EA  00A4               	movwf	??_internet_relay
  4386  03EB  0824               	movf	??_internet_relay,w
  4387  03EC  00A0               	movwf	RF24_write@len
  4388  03ED  0827               	movf	internet_relay@payload,w
  4389  03EE  120A  118A  27B0  120A  118A  	fcall	_RF24_write
  4390  03F3                     l3091:
  4391                           
  4392                           ;F:/GitHub/Graduation-Project/Lib-test/Embedded-shs/libs/internet.c: 94:             RF2
      +                          4_openReadingPipe(0, BASE_PIPE);
  4393  03F3  3030               	movlw	low (_BASE_PIPE| (0+32768))
  4394  03F4  00F9               	movwf	RF24_openReadingPipe@address
  4395  03F5  3081               	movlw	high (_BASE_PIPE| (0+32768))
  4396  03F6  00FA               	movwf	RF24_openReadingPipe@address+1
  4397  03F7  3000               	movlw	0
  4398  03F8  120A  118A  20AC  120A  118A  	fcall	_RF24_openReadingPipe
  4399  03FD  2C49               	goto	l3111
  4400  03FE                     l3093:
  4401                           
  4402                           ;F:/GitHub/Graduation-Project/Lib-test/Embedded-shs/libs/internet.c: 98:     {;F:/GitHub
      +                          /Graduation-Project/Lib-test/Embedded-shs/libs/internet.c: 100:         networkInfo.netw
      +                          orkPipe[0] = node.address;
  4403  03FE  1283               	bcf	3,5	;RP0=0, select bank0
  4404  03FF  1303               	bcf	3,6	;RP1=0, select bank0
  4405  0400  0844               	movf	_node,w
  4406  0401  00A4               	movwf	??_internet_relay
  4407  0402  0824               	movf	??_internet_relay,w
  4408  0403  00D6               	movwf	_networkInfo
  4409  0404                     l3095:
  4410                           
  4411                           ;F:/GitHub/Graduation-Project/Lib-test/Embedded-shs/libs/internet.c: 101:         RF24_o
      +                          penReadingPipe(0, networkInfo.networkPipe);
  4412  0404  3056               	movlw	(low (_networkInfo| 0))& (0+255)
  4413  0405  00F9               	movwf	RF24_openReadingPipe@address
  4414  0406  3000               	movlw	0
  4415  0407  00FA               	movwf	RF24_openReadingPipe@address+1
  4416  0408  3000               	movlw	0
  4417  0409  120A  118A  20AC  120A  118A  	fcall	_RF24_openReadingPipe
  4418  040E                     l3097:
  4419                           
  4420                           ;F:/GitHub/Graduation-Project/Lib-test/Embedded-shs/libs/internet.c: 102:         RF24_o
      +                          penWritingPipe(networkInfo.networkPipe);
  4421  040E  3056               	movlw	(low (_networkInfo| 0))& (0+255)
  4422  040F  120A  158A  223B  120A  118A  	fcall	_RF24_openWritingPipe
  4423  0414                     l3099:
  4424                           
  4425                           ;F:/GitHub/Graduation-Project/Lib-test/Embedded-shs/libs/internet.c: 103:         RF24_s
      +                          topListening();
  4426  0414  120A  158A  2443  120A  118A  	fcall	_RF24_stopListening
  4427  0419                     l3101:
  4428                           
  4429                           ;F:/GitHub/Graduation-Project/Lib-test/Embedded-shs/libs/internet.c: 104:         _$_log
      +                          line_str((char *)"payload =");
  4430  0419  30F5               	movlw	low (STR_9| (0+32768))
  4431  041A  00F3               	movwf	__$_logline_str@string
  4432  041B  3081               	movlw	high (STR_9| (0+32768))
  4433  041C  00F4               	movwf	__$_logline_str@string+1
  4434  041D  120A  158A  2574  120A  118A  	fcall	__$_logline_str
  4435  0422                     l3103:
  4436                           
  4437                           ;F:/GitHub/Graduation-Project/Lib-test/Embedded-shs/libs/internet.c: 105:         _$_log
      +                          line_str((char *)payload); Serial_write((uint8_t)'\n');
  4438  0422  1283               	bcf	3,5	;RP0=0, select bank0
  4439  0423  1303               	bcf	3,6	;RP1=0, select bank0
  4440  0424  0827               	movf	internet_relay@payload,w
  4441  0425  00F3               	movwf	__$_logline_str@string
  4442  0426  3000               	movlw	0
  4443  0427  00F4               	movwf	__$_logline_str@string+1
  4444  0428  120A  158A  2574  120A  118A  	fcall	__$_logline_str
  4445  042D                     l3105:
  4446  042D  300A               	movlw	10
  4447  042E  120A  158A  2212  120A  118A  	fcall	_Serial_write
  4448  0433                     l3107:
  4449                           
  4450                           ;F:/GitHub/Graduation-Project/Lib-test/Embedded-shs/libs/internet.c: 106:         RF24_w
      +                          rite(payload, size);
  4451  0433  1283               	bcf	3,5	;RP0=0, select bank0
  4452  0434  1303               	bcf	3,6	;RP1=0, select bank0
  4453  0435  0823               	movf	internet_relay@size,w
  4454  0436  00A4               	movwf	??_internet_relay
  4455  0437  0824               	movf	??_internet_relay,w
  4456  0438  00A0               	movwf	RF24_write@len
  4457  0439  0827               	movf	internet_relay@payload,w
  4458  043A  120A  118A  27B0  120A  118A  	fcall	_RF24_write
  4459  043F                     l3109:
  4460                           
  4461                           ;F:/GitHub/Graduation-Project/Lib-test/Embedded-shs/libs/internet.c: 108:         RF24_o
      +                          penReadingPipe(0, BASE_PIPE);
  4462  043F  3030               	movlw	low (_BASE_PIPE| (0+32768))
  4463  0440  00F9               	movwf	RF24_openReadingPipe@address
  4464  0441  3081               	movlw	high (_BASE_PIPE| (0+32768))
  4465  0442  00FA               	movwf	RF24_openReadingPipe@address+1
  4466  0443  3000               	movlw	0
  4467  0444  120A  118A  20AC  120A  118A  	fcall	_RF24_openReadingPipe
  4468  0449                     l3111:
  4469                           
  4470                           ;F:/GitHub/Graduation-Project/Lib-test/Embedded-shs/libs/internet.c: 110:     RF24_start
      +                          Listening();
  4471  0449  120A  158A  235F  120A  118A  	fcall	_RF24_startListening
  4472  044E                     l281:
  4473  044E  0008               	return
  4474  044F                     __end_of_internet_relay:
  4475                           
  4476                           	psect	text18
  4477  0A4B                     __ptext18:	
  4478 ;; *************** function _internet_hasChild *****************
  4479 ;; Defined at:
  4480 ;;		line 133 in file "F:/GitHub/Graduation-Project/Lib-test/Embedded-shs/libs/internet.c"
  4481 ;; Parameters:    Size  Location     Type
  4482 ;;  address         1    wreg     unsigned char 
  4483 ;; Auto vars:     Size  Location     Type
  4484 ;;  address         1    3[COMMON] unsigned char 
  4485 ;; Return value:  Size  Location     Type
  4486 ;;                  1    wreg      unsigned char 
  4487 ;; Registers used:
  4488 ;;		wreg, status,2, status,0
  4489 ;; Tracked objects:
  4490 ;;		On entry : 0/0
  4491 ;;		On exit  : 0/0
  4492 ;;		Unchanged: 0/0
  4493 ;; Data sizes:     COMMON   BANK0   BANK1   BANK3   BANK2
  4494 ;;      Params:         0       0       0       0       0
  4495 ;;      Locals:         1       0       0       0       0
  4496 ;;      Temps:          1       0       0       0       0
  4497 ;;      Totals:         2       0       0       0       0
  4498 ;;Total ram usage:        2 bytes
  4499 ;; Hardware stack levels used: 1
  4500 ;; Hardware stack levels required when called: 2
  4501 ;; This function calls:
  4502 ;;		Nothing
  4503 ;; This function is called by:
  4504 ;;		_internet_relay
  4505 ;; This function uses a non-reentrant model
  4506 ;;
  4507                           
  4508  0A4B                     _internet_hasChild:	
  4509                           ;psect for function _internet_hasChild
  4510                           
  4511                           
  4512                           ;incstack = 0
  4513                           ; Regs used in _internet_hasChild: [wreg+status,2+status,0]
  4514                           ;internet_hasChild@address stored from wreg
  4515  0A4B  00F3               	movwf	internet_hasChild@address
  4516  0A4C                     l2315:
  4517                           
  4518                           ;F:/GitHub/Graduation-Project/Lib-test/Embedded-shs/libs/internet.c: 133: uint8_t intern
      +                          et_hasChild(uint8_t address);F:/GitHub/Graduation-Project/Lib-test/Embedded-shs/libs/int
      +                          ernet.c: 134: {;F:/GitHub/Graduation-Project/Lib-test/Embedded-shs/libs/internet.c: 135:
      +                               return (address & node.mask) == (node.address & node.mask);
  4519  0A4C  1283               	bcf	3,5	;RP0=0, select bank0
  4520  0A4D  1303               	bcf	3,6	;RP1=0, select bank0
  4521  0A4E  0844               	movf	_node,w
  4522  0A4F  0545               	andwf	_node+1,w
  4523  0A50  00F2               	movwf	??_internet_hasChild
  4524  0A51  0845               	movf	_node+1,w
  4525  0A52  0573               	andwf	internet_hasChild@address,w
  4526  0A53  0672               	xorwf	??_internet_hasChild,w
  4527  0A54  1903               	skipnz
  4528  0A55  2A57               	goto	u1401
  4529  0A56  2A59               	goto	u1400
  4530  0A57                     u1401:
  4531  0A57  3001               	movlw	1
  4532  0A58  2A5A               	goto	u1410
  4533  0A59                     u1400:
  4534  0A59  3000               	movlw	0
  4535  0A5A                     u1410:
  4536  0A5A                     l297:
  4537  0A5A  0008               	return
  4538  0A5B                     __end_of_internet_hasChild:
  4539                           
  4540                           	psect	text19
  4541  0A2C                     __ptext19:	
  4542 ;; *************** function _internet_calculateMask *****************
  4543 ;; Defined at:
  4544 ;;		line 112 in file "F:/GitHub/Graduation-Project/Lib-test/Embedded-shs/libs/internet.c"
  4545 ;; Parameters:    Size  Location     Type
  4546 ;;  address         1    wreg     unsigned char 
  4547 ;; Auto vars:     Size  Location     Type
  4548 ;;  address         1    2[COMMON] unsigned char 
  4549 ;;  mask            1    3[COMMON] unsigned char 
  4550 ;; Return value:  Size  Location     Type
  4551 ;;                  1    wreg      unsigned char 
  4552 ;; Registers used:
  4553 ;;		wreg, status,2, status,0
  4554 ;; Tracked objects:
  4555 ;;		On entry : 0/0
  4556 ;;		On exit  : 0/0
  4557 ;;		Unchanged: 0/0
  4558 ;; Data sizes:     COMMON   BANK0   BANK1   BANK3   BANK2
  4559 ;;      Params:         0       0       0       0       0
  4560 ;;      Locals:         2       0       0       0       0
  4561 ;;      Temps:          0       0       0       0       0
  4562 ;;      Totals:         2       0       0       0       0
  4563 ;;Total ram usage:        2 bytes
  4564 ;; Hardware stack levels used: 1
  4565 ;; Hardware stack levels required when called: 2
  4566 ;; This function calls:
  4567 ;;		Nothing
  4568 ;; This function is called by:
  4569 ;;		_internet_relay
  4570 ;;		_internet_setAddress
  4571 ;; This function uses a non-reentrant model
  4572 ;;
  4573                           
  4574  0A2C                     _internet_calculateMask:	
  4575                           ;psect for function _internet_calculateMask
  4576                           
  4577                           
  4578                           ;incstack = 0
  4579                           ; Regs used in _internet_calculateMask: [wreg+status,2+status,0]
  4580                           ;internet_calculateMask@address stored from wreg
  4581  0A2C  00F2               	movwf	internet_calculateMask@address
  4582  0A2D                     l2303:
  4583                           
  4584                           ;F:/GitHub/Graduation-Project/Lib-test/Embedded-shs/libs/internet.c: 112: uint8_t intern
      +                          et_calculateMask(uint8_t address);F:/GitHub/Graduation-Project/Lib-test/Embedded-shs/lib
      +                          s/internet.c: 113: {;F:/GitHub/Graduation-Project/Lib-test/Embedded-shs/libs/internet.c:
      +                           114:     uint8_t mask = 0;
  4585  0A2D  01F3               	clrf	internet_calculateMask@mask
  4586                           
  4587                           ;F:/GitHub/Graduation-Project/Lib-test/Embedded-shs/libs/internet.c: 115:     while (add
      +                          ress > 1)
  4588  0A2E  2A33               	goto	l2309
  4589  0A2F                     l2305:
  4590                           
  4591                           ;F:/GitHub/Graduation-Project/Lib-test/Embedded-shs/libs/internet.c: 116:     {;F:/GitHu
      +                          b/Graduation-Project/Lib-test/Embedded-shs/libs/internet.c: 117:         mask = (mask <<
      +                           1) | 1;
  4592  0A2F  1403               	setc
  4593  0A30  0DF3               	rlf	internet_calculateMask@mask,f
  4594  0A31                     l2307:
  4595                           
  4596                           ;F:/GitHub/Graduation-Project/Lib-test/Embedded-shs/libs/internet.c: 118:         addres
      +                          s >>= 1;
  4597  0A31  1003               	clrc
  4598  0A32  0CF2               	rrf	internet_calculateMask@address,f
  4599  0A33                     l2309:
  4600                           
  4601                           ;F:/GitHub/Graduation-Project/Lib-test/Embedded-shs/libs/internet.c: 115:     while (add
      +                          ress > 1)
  4602  0A33  3002               	movlw	2
  4603  0A34  0272               	subwf	internet_calculateMask@address,w
  4604  0A35  1803               	skipnc
  4605  0A36  2A38               	goto	u1391
  4606  0A37  2A39               	goto	u1390
  4607  0A38                     u1391:
  4608  0A38  2A2F               	goto	l2305
  4609  0A39                     u1390:
  4610  0A39                     l2311:
  4611                           
  4612                           ;F:/GitHub/Graduation-Project/Lib-test/Embedded-shs/libs/internet.c: 120:     return mas
      +                          k;
  4613  0A39  0873               	movf	internet_calculateMask@mask,w
  4614  0A3A                     l291:
  4615  0A3A  0008               	return
  4616  0A3B                     __end_of_internet_calculateMask:
  4617                           
  4618                           	psect	text20
  4619  0D74                     __ptext20:	
  4620 ;; *************** function __$_logline_str *****************
  4621 ;; Defined at:
  4622 ;;		line 5 in file "F:/GitHub/Graduation-Project/Lib-test/Embedded-shs/libs/logline.c"
  4623 ;; Parameters:    Size  Location     Type
  4624 ;;  string          2    3[COMMON] PTR unsigned char 
  4625 ;;		 -> STR_27(23), STR_26(3), STR_25(6), STR_24(6), 
  4626 ;;		 -> STR_23(6), STR_22(6), STR_21(6), STR_20(6), 
  4627 ;;		 -> STR_19(11), STR_18(7), STR_17(9), STR_16(6), 
  4628 ;;		 -> STR_15(11), STR_14(9), STR_13(10), STR_12(6), 
  4629 ;;		 -> STR_11(7), STR_10(23), STR_9(10), buffer_rx(32), 
  4630 ;;		 -> STR_8(6), STR_7(3), STR_6(7), STR_5(15), 
  4631 ;;		 -> STR_4(13), STR_3(19), buffer_tx(32), STR_2(15), 
  4632 ;;		 -> STR_1(52), 
  4633 ;; Auto vars:     Size  Location     Type
  4634 ;;  limit           1    6[COMMON] unsigned char 
  4635 ;; Return value:  Size  Location     Type
  4636 ;;                  1    wreg      void 
  4637 ;; Registers used:
  4638 ;;		wreg, fsr0l, fsr0h, status,2, status,0, btemp+1, pclath, cstack
  4639 ;; Tracked objects:
  4640 ;;		On entry : 0/0
  4641 ;;		On exit  : 0/0
  4642 ;;		Unchanged: 0/0
  4643 ;; Data sizes:     COMMON   BANK0   BANK1   BANK3   BANK2
  4644 ;;      Params:         2       0       0       0       0
  4645 ;;      Locals:         1       0       0       0       0
  4646 ;;      Temps:          1       0       0       0       0
  4647 ;;      Totals:         4       0       0       0       0
  4648 ;;Total ram usage:        4 bytes
  4649 ;; Hardware stack levels used: 1
  4650 ;; Hardware stack levels required when called: 3
  4651 ;; This function calls:
  4652 ;;		_Serial_write
  4653 ;; This function is called by:
  4654 ;;		_main
  4655 ;;		_transport_udp_process
  4656 ;;		_internet_relay
  4657 ;; This function uses a non-reentrant model
  4658 ;;
  4659                           
  4660  0D74                     __$_logline_str:	
  4661                           ;psect for function __$_logline_str
  4662                           
  4663  0D74                     l2175:	
  4664                           ;incstack = 0
  4665                           ; Regs used in __$_logline_str: [wreg-fsr0h+status,2+status,0+btemp+1+pclath+cstack]
  4666                           
  4667                           
  4668                           ;F:/GitHub/Graduation-Project/Lib-test/Embedded-shs/libs/logline.c: 5: void _$_logline_s
      +                          tr(char *string);F:/GitHub/Graduation-Project/Lib-test/Embedded-shs/libs/logline.c: 6: {
      +                          ;F:/GitHub/Graduation-Project/Lib-test/Embedded-shs/libs/logline.c: 7:     uint8_t limit
      +                          =100;
  4669  0D74  3064               	movlw	100
  4670  0D75  00F5               	movwf	??__$_logline_str
  4671  0D76  0875               	movf	??__$_logline_str,w
  4672  0D77  00F6               	movwf	__$_logline_str@limit
  4673                           
  4674                           ;F:/GitHub/Graduation-Project/Lib-test/Embedded-shs/libs/logline.c: 8:     while (*strin
      +                          g != '\0' && limit--)
  4675  0D78  2D8D               	goto	l2181
  4676  0D79                     l2177:
  4677                           
  4678                           ;F:/GitHub/Graduation-Project/Lib-test/Embedded-shs/libs/logline.c: 9:     {;F:/GitHub/G
      +                          raduation-Project/Lib-test/Embedded-shs/libs/logline.c: 10:         Serial_write(*(uint8
      +                          _t *)string);
  4679  0D79  0874               	movf	__$_logline_str@string+1,w
  4680  0D7A  00FF               	movwf	btemp+1
  4681  0D7B  0873               	movf	__$_logline_str@string,w
  4682  0D7C  0084               	movwf	4
  4683  0D7D  120A  118A  2100  120A  158A  	fcall	stringtab
  4684  0D82  120A  158A  2212  120A  158A  	fcall	_Serial_write
  4685  0D87                     l2179:
  4686                           
  4687                           ;F:/GitHub/Graduation-Project/Lib-test/Embedded-shs/libs/logline.c: 11:         string++
      +                          ;
  4688  0D87  3001               	movlw	1
  4689  0D88  07F3               	addwf	__$_logline_str@string,f
  4690  0D89  1803               	skipnc
  4691  0D8A  0AF4               	incf	__$_logline_str@string+1,f
  4692  0D8B  3000               	movlw	0
  4693  0D8C  07F4               	addwf	__$_logline_str@string+1,f
  4694  0D8D                     l2181:
  4695                           
  4696                           ;F:/GitHub/Graduation-Project/Lib-test/Embedded-shs/libs/logline.c: 8:     while (*strin
      +                          g != '\0' && limit--)
  4697  0D8D  0874               	movf	__$_logline_str@string+1,w
  4698  0D8E  1283               	bcf	3,5	;RP0=0, select bank0
  4699  0D8F  1303               	bcf	3,6	;RP1=0, select bank0
  4700  0D90  00FF               	movwf	btemp+1
  4701  0D91  0873               	movf	__$_logline_str@string,w
  4702  0D92  0084               	movwf	4
  4703  0D93  120A  118A  2100  120A  158A  	fcall	stringtab
  4704  0D98  3A00               	xorlw	0
  4705  0D99  1903               	skipnz
  4706  0D9A  2D9C               	goto	u1251
  4707  0D9B  2D9D               	goto	u1250
  4708  0D9C                     u1251:
  4709  0D9C  2DA4               	goto	l691
  4710  0D9D                     u1250:
  4711  0D9D                     l2183:
  4712  0D9D  3001               	movlw	1
  4713  0D9E  02F6               	subwf	__$_logline_str@limit,f
  4714  0D9F  0A76               	incf	__$_logline_str@limit,w
  4715  0DA0  1D03               	btfss	3,2
  4716  0DA1  2DA3               	goto	u1261
  4717  0DA2  2DA4               	goto	u1260
  4718  0DA3                     u1261:
  4719  0DA3  2D79               	goto	l2177
  4720  0DA4                     u1260:
  4721  0DA4                     l691:
  4722  0DA4  0008               	return
  4723  0DA5                     __end_of__$_logline_str:
  4724                           
  4725                           	psect	text21
  4726  0A12                     __ptext21:	
  4727 ;; *************** function _Serial_write *****************
  4728 ;; Defined at:
  4729 ;;		line 36 in file "F:/GitHub/Graduation-Project/Lib-test/Embedded-shs/libs/Serial.c"
  4730 ;; Parameters:    Size  Location     Type
  4731 ;;  data            1    wreg     unsigned char 
  4732 ;; Auto vars:     Size  Location     Type
  4733 ;;  data            1    2[COMMON] unsigned char 
  4734 ;; Return value:  Size  Location     Type
  4735 ;;                  1    wreg      void 
  4736 ;; Registers used:
  4737 ;;		wreg
  4738 ;; Tracked objects:
  4739 ;;		On entry : 0/0
  4740 ;;		On exit  : 0/0
  4741 ;;		Unchanged: 0/0
  4742 ;; Data sizes:     COMMON   BANK0   BANK1   BANK3   BANK2
  4743 ;;      Params:         0       0       0       0       0
  4744 ;;      Locals:         1       0       0       0       0
  4745 ;;      Temps:          0       0       0       0       0
  4746 ;;      Totals:         1       0       0       0       0
  4747 ;;Total ram usage:        1 bytes
  4748 ;; Hardware stack levels used: 1
  4749 ;; Hardware stack levels required when called: 2
  4750 ;; This function calls:
  4751 ;;		Nothing
  4752 ;; This function is called by:
  4753 ;;		_main
  4754 ;;		_transport_udp_process
  4755 ;;		_internet_relay
  4756 ;;		__$_logline_str
  4757 ;;		__$_logline_int
  4758 ;; This function uses a non-reentrant model
  4759 ;;
  4760                           
  4761  0A12                     _Serial_write:	
  4762                           ;psect for function _Serial_write
  4763                           
  4764                           
  4765                           ;incstack = 0
  4766                           ; Regs used in _Serial_write: [wreg]
  4767                           ;Serial_write@data stored from wreg
  4768  0A12  00F2               	movwf	Serial_write@data
  4769  0A13                     l2055:
  4770  0A13                     l672:	
  4771                           ;F:/GitHub/Graduation-Project/Lib-test/Embedded-shs/libs/Serial.c: 39:         ;
  4772                           
  4773                           
  4774                           ;F:/GitHub/Graduation-Project/Lib-test/Embedded-shs/libs/Serial.c: 38:     while (!TRMT)
  4775  0A13  1683               	bsf	3,5	;RP0=1, select bank1
  4776  0A14  1303               	bcf	3,6	;RP1=0, select bank1
  4777  0A15  1C98               	btfss	24,1	;volatile
  4778  0A16  2A18               	goto	u1011
  4779  0A17  2A19               	goto	u1010
  4780  0A18                     u1011:
  4781  0A18  2A13               	goto	l672
  4782  0A19                     u1010:
  4783  0A19                     l2057:
  4784                           
  4785                           ;F:/GitHub/Graduation-Project/Lib-test/Embedded-shs/libs/Serial.c: 40:     TXREG = data;
  4786  0A19  0872               	movf	Serial_write@data,w
  4787  0A1A  1283               	bcf	3,5	;RP0=0, select bank0
  4788  0A1B  1303               	bcf	3,6	;RP1=0, select bank0
  4789  0A1C  0099               	movwf	25	;volatile
  4790  0A1D                     l675:
  4791  0A1D  0008               	return
  4792  0A1E                     __end_of_Serial_write:
  4793                           
  4794                           	psect	text22
  4795  07B0                     __ptext22:	
  4796 ;; *************** function _RF24_write *****************
  4797 ;; Defined at:
  4798 ;;		line 192 in file "F:/GitHub/Graduation-Project/Lib-test/Embedded-shs/libs/rf24.c"
  4799 ;; Parameters:    Size  Location     Type
  4800 ;;  buf             1    wreg     PTR void 
  4801 ;;		 -> buffer_rx(32), buffer_tx(32), 
  4802 ;;  len             1    0[BANK0 ] unsigned char 
  4803 ;; Auto vars:     Size  Location     Type
  4804 ;;  buf             1    1[BANK0 ] PTR void 
  4805 ;;		 -> buffer_rx(32), buffer_tx(32), 
  4806 ;; Return value:  Size  Location     Type
  4807 ;;                  1    wreg      unsigned char 
  4808 ;; Registers used:
  4809 ;;		wreg, fsr0l, fsr0h, status,2, status,0, pclath, cstack
  4810 ;; Tracked objects:
  4811 ;;		On entry : 0/0
  4812 ;;		On exit  : 0/0
  4813 ;;		Unchanged: 0/0
  4814 ;; Data sizes:     COMMON   BANK0   BANK1   BANK3   BANK2
  4815 ;;      Params:         0       1       0       0       0
  4816 ;;      Locals:         0       1       0       0       0
  4817 ;;      Temps:          1       0       0       0       0
  4818 ;;      Totals:         1       2       0       0       0
  4819 ;;Total ram usage:        3 bytes
  4820 ;; Hardware stack levels used: 1
  4821 ;; Hardware stack levels required when called: 5
  4822 ;; This function calls:
  4823 ;;		_RF24_flush_tx
  4824 ;;		_RF24_get_status
  4825 ;;		_RF24_write_register
  4826 ;;		_SPI_exchangeByte
  4827 ;; This function is called by:
  4828 ;;		_internet_relay
  4829 ;; This function uses a non-reentrant model
  4830 ;;
  4831                           
  4832  07B0                     _RF24_write:	
  4833                           ;psect for function _RF24_write
  4834                           
  4835                           
  4836                           ;incstack = 0
  4837 ;; hardware stack exceeded
  4838                           ; Regs used in _RF24_write: [wreg-fsr0h+status,2+status,0+pclath+cstack]
  4839                           ;RF24_write@buf stored from wreg
  4840  07B0  1283               	bcf	3,5	;RP0=0, select bank0
  4841  07B1  1303               	bcf	3,6	;RP1=0, select bank0
  4842  07B2  00A1               	movwf	RF24_write@buf
  4843  07B3                     l3029:
  4844                           
  4845                           ;F:/GitHub/Graduation-Project/Lib-test/Embedded-shs/libs/rf24.c: 192: uint8_t RF24_write
      +                          (void *buf, uint8_t len);F:/GitHub/Graduation-Project/Lib-test/Embedded-shs/libs/rf24.c:
      +                           193: {;F:/GitHub/Graduation-Project/Lib-test/Embedded-shs/libs/rf24.c: 196:     RD3 = 0
      +                          ;
  4846  07B3  1188               	bcf	8,3	;volatile
  4847  07B4                     l3031:
  4848                           
  4849                           ;F:/GitHub/Graduation-Project/Lib-test/Embedded-shs/libs/rf24.c: 197:     RF24_attr_stat
      +                          us = SPI_exchangeByte(0xA0);
  4850  07B4  30A0               	movlw	160
  4851  07B5  120A  158A  21FA  120A  118A  	fcall	_SPI_exchangeByte
  4852  07BA  00FA               	movwf	??_RF24_write
  4853  07BB  087A               	movf	??_RF24_write,w
  4854  07BC  1283               	bcf	3,5	;RP0=0, select bank0
  4855  07BD  1303               	bcf	3,6	;RP1=0, select bank0
  4856  07BE  00D5               	movwf	_RF24_attr_status
  4857                           
  4858                           ;F:/GitHub/Graduation-Project/Lib-test/Embedded-shs/libs/rf24.c: 198:     while (len--)
  4859  07BF  2FCF               	goto	l3037
  4860  07C0                     l3033:
  4861                           
  4862                           ;F:/GitHub/Graduation-Project/Lib-test/Embedded-shs/libs/rf24.c: 199:     {;F:/GitHub/Gr
      +                          aduation-Project/Lib-test/Embedded-shs/libs/rf24.c: 200:         SPI_exchangeByte(*(uint
      +                          8_t *)buf++);
  4863  07C0  0821               	movf	RF24_write@buf,w
  4864  07C1  0084               	movwf	4
  4865  07C2  1383               	bcf	3,7	;select IRP bank0
  4866  07C3  0800               	movf	0,w
  4867  07C4  120A  158A  21FA  120A  118A  	fcall	_SPI_exchangeByte
  4868  07C9                     l3035:
  4869  07C9  3001               	movlw	1
  4870  07CA  00FA               	movwf	??_RF24_write
  4871  07CB  087A               	movf	??_RF24_write,w
  4872  07CC  1283               	bcf	3,5	;RP0=0, select bank0
  4873  07CD  1303               	bcf	3,6	;RP1=0, select bank0
  4874  07CE  07A1               	addwf	RF24_write@buf,f
  4875  07CF                     l3037:
  4876                           
  4877                           ;F:/GitHub/Graduation-Project/Lib-test/Embedded-shs/libs/rf24.c: 198:     while (len--)
  4878  07CF  3001               	movlw	1
  4879  07D0  02A0               	subwf	RF24_write@len,f
  4880  07D1  0A20               	incf	RF24_write@len,w
  4881  07D2  1D03               	btfss	3,2
  4882  07D3  2FD5               	goto	u2211
  4883  07D4  2FD6               	goto	u2210
  4884  07D5                     u2211:
  4885  07D5  2FC0               	goto	l3033
  4886  07D6                     u2210:
  4887  07D6                     l419:
  4888                           
  4889                           ;F:/GitHub/Graduation-Project/Lib-test/Embedded-shs/libs/rf24.c: 202:     RD3 = 1;
  4890  07D6  1588               	bsf	8,3	;volatile
  4891                           
  4892                           ;F:/GitHub/Graduation-Project/Lib-test/Embedded-shs/libs/rf24.c: 204:     RD2 = 1;
  4893  07D7  1508               	bsf	8,2	;volatile
  4894  07D8                     l3039:	
  4895                           ;F:/GitHub/Graduation-Project/Lib-test/Embedded-shs/libs/rf24.c: 205:     while (!(RF24_
      +                          get_status() & ((1 << (5)) | (1 << (4)))))
  4896                           
  4897                           
  4898                           ;F:/GitHub/Graduation-Project/Lib-test/Embedded-shs/libs/rf24.c: 205:     while (!(RF24_
      +                          get_status() & ((1 << (5)) | (1 << (4)))))
  4899  07D8  120A  158A  226C  120A  118A  	fcall	_RF24_get_status
  4900  07DD  3930               	andlw	48
  4901  07DE  1903               	btfsc	3,2
  4902  07DF  2FE1               	goto	u2221
  4903  07E0  2FE2               	goto	u2220
  4904  07E1                     u2221:
  4905  07E1  2FD8               	goto	l3039
  4906  07E2                     u2220:
  4907  07E2                     l422:
  4908                           
  4909                           ;F:/GitHub/Graduation-Project/Lib-test/Embedded-shs/libs/rf24.c: 210:     RD2 = 0;
  4910  07E2  1283               	bcf	3,5	;RP0=0, select bank0
  4911  07E3  1303               	bcf	3,6	;RP1=0, select bank0
  4912  07E4  1108               	bcf	8,2	;volatile
  4913  07E5                     l3041:
  4914                           
  4915                           ;F:/GitHub/Graduation-Project/Lib-test/Embedded-shs/libs/rf24.c: 211:     RF24_write_reg
      +                          ister(0x07, (1 << (6)) | (1 << (5)) | (1 << (4)));
  4916  07E5  3070               	movlw	112
  4917  07E6  00FA               	movwf	??_RF24_write
  4918  07E7  087A               	movf	??_RF24_write,w
  4919  07E8  00F6               	movwf	RF24_write_register@value
  4920  07E9  3007               	movlw	7
  4921  07EA  120A  158A  22D7  120A  118A  	fcall	_RF24_write_register
  4922  07EF                     l3043:
  4923                           
  4924                           ;F:/GitHub/Graduation-Project/Lib-test/Embedded-shs/libs/rf24.c: 214:     if (RF24_attr_
      +                          status & (1 << (4)))
  4925  07EF  1283               	bcf	3,5	;RP0=0, select bank0
  4926  07F0  1303               	bcf	3,6	;RP1=0, select bank0
  4927  07F1  1E55               	btfss	_RF24_attr_status,4
  4928  07F2  2FF4               	goto	u2231
  4929  07F3  2FF5               	goto	u2230
  4930  07F4                     u2231:
  4931  07F4  2FFA               	goto	l424
  4932  07F5                     u2230:
  4933  07F5                     l3045:
  4934                           
  4935                           ;F:/GitHub/Graduation-Project/Lib-test/Embedded-shs/libs/rf24.c: 215:     {;F:/GitHub/Gr
      +                          aduation-Project/Lib-test/Embedded-shs/libs/rf24.c: 216:         RF24_flush_tx();
  4936  07F5  120A  158A  21E3  120A  118A  	fcall	_RF24_flush_tx
  4937  07FA                     l424:
  4938  07FA  0008               	return
  4939  07FB                     __end_of_RF24_write:
  4940                           
  4941                           	psect	text23
  4942  0C43                     __ptext23:	
  4943 ;; *************** function _RF24_stopListening *****************
  4944 ;; Defined at:
  4945 ;;		line 156 in file "F:/GitHub/Graduation-Project/Lib-test/Embedded-shs/libs/rf24.c"
  4946 ;; Parameters:    Size  Location     Type
  4947 ;;		None
  4948 ;; Auto vars:     Size  Location     Type
  4949 ;;		None
  4950 ;; Return value:  Size  Location     Type
  4951 ;;                  1    wreg      void 
  4952 ;; Registers used:
  4953 ;;		wreg, status,2, status,0, pclath, cstack
  4954 ;; Tracked objects:
  4955 ;;		On entry : 0/0
  4956 ;;		On exit  : 0/0
  4957 ;;		Unchanged: 0/0
  4958 ;; Data sizes:     COMMON   BANK0   BANK1   BANK3   BANK2
  4959 ;;      Params:         0       0       0       0       0
  4960 ;;      Locals:         0       0       0       0       0
  4961 ;;      Temps:          1       0       0       0       0
  4962 ;;      Totals:         1       0       0       0       0
  4963 ;;Total ram usage:        1 bytes
  4964 ;; Hardware stack levels used: 1
  4965 ;; Hardware stack levels required when called: 4
  4966 ;; This function calls:
  4967 ;;		_RF24_read_register
  4968 ;;		_RF24_write_register
  4969 ;; This function is called by:
  4970 ;;		_internet_relay
  4971 ;; This function uses a non-reentrant model
  4972 ;;
  4973                           
  4974  0C43                     _RF24_stopListening:	
  4975                           ;psect for function _RF24_stopListening
  4976                           
  4977  0C43                     l3023:	
  4978                           ;incstack = 0
  4979                           ; Regs used in _RF24_stopListening: [wreg+status,2+status,0+pclath+cstack]
  4980                           
  4981                           
  4982                           ;F:/GitHub/Graduation-Project/Lib-test/Embedded-shs/libs/rf24.c: 158:     RD2 = 0;
  4983  0C43  1283               	bcf	3,5	;RP0=0, select bank0
  4984  0C44  1303               	bcf	3,6	;RP1=0, select bank0
  4985  0C45  1108               	bcf	8,2	;volatile
  4986  0C46                     l3025:
  4987                           
  4988                           ;F:/GitHub/Graduation-Project/Lib-test/Embedded-shs/libs/rf24.c: 159:     RF24_write_reg
      +                          ister(0x00, RF24_read_register(0x00) & ~(1 << (0)));
  4989  0C46  3000               	movlw	0
  4990  0C47  120A  158A  2342  120A  158A  	fcall	_RF24_read_register
  4991  0C4C  39FE               	andlw	254
  4992  0C4D  00F9               	movwf	??_RF24_stopListening
  4993  0C4E  0879               	movf	??_RF24_stopListening,w
  4994  0C4F  00F6               	movwf	RF24_write_register@value
  4995  0C50  3000               	movlw	0
  4996  0C51  120A  158A  22D7  120A  158A  	fcall	_RF24_write_register
  4997                           
  4998                           ;F:/GitHub/Graduation-Project/Lib-test/Embedded-shs/libs/rf24.c: 160:     RF24_write_reg
      +                          ister(0x02, RF24_read_register(0x02) | 1);
  4999  0C56  3002               	movlw	2
  5000  0C57  120A  158A  2342  120A  158A  	fcall	_RF24_read_register
  5001  0C5C  3801               	iorlw	1
  5002  0C5D  00F9               	movwf	??_RF24_stopListening
  5003  0C5E  0879               	movf	??_RF24_stopListening,w
  5004  0C5F  00F6               	movwf	RF24_write_register@value
  5005  0C60  3002               	movlw	2
  5006  0C61  120A  158A  22D7  120A  158A  	fcall	_RF24_write_register
  5007  0C66                     l3027:
  5008                           
  5009                           ;F:/GitHub/Graduation-Project/Lib-test/Embedded-shs/libs/rf24.c: 161:     _delay((unsign
      +                          ed long)((130)*(16000000/4000000.0)));
  5010  0C66  30AD               	movlw	173
  5011  0C67  00F9               	movwf	??_RF24_stopListening
  5012  0C68                     u2477:
  5013  0C68  0BF9               	decfsz	??_RF24_stopListening,f
  5014  0C69  2C68               	goto	u2477
  5015  0C6A                     l402:
  5016  0C6A  0008               	return
  5017  0C6B                     __end_of_RF24_stopListening:
  5018                           
  5019                           	psect	text24
  5020  0A3B                     __ptext24:	
  5021 ;; *************** function _RF24_openWritingPipe *****************
  5022 ;; Defined at:
  5023 ;;		line 450 in file "F:/GitHub/Graduation-Project/Lib-test/Embedded-shs/libs/rf24.c"
  5024 ;; Parameters:    Size  Location     Type
  5025 ;;  address         1    wreg     PTR unsigned char 
  5026 ;;		 -> networkInfo(6), 
  5027 ;; Auto vars:     Size  Location     Type
  5028 ;;  address         1    9[COMMON] PTR unsigned char 
  5029 ;;		 -> networkInfo(6), 
  5030 ;; Return value:  Size  Location     Type
  5031 ;;                  1    wreg      void 
  5032 ;; Registers used:
  5033 ;;		wreg, fsr0l, fsr0h, status,2, status,0, btemp+1, pclath, cstack
  5034 ;; Tracked objects:
  5035 ;;		On entry : 0/0
  5036 ;;		On exit  : 0/0
  5037 ;;		Unchanged: 0/0
  5038 ;; Data sizes:     COMMON   BANK0   BANK1   BANK3   BANK2
  5039 ;;      Params:         0       0       0       0       0
  5040 ;;      Locals:         1       0       0       0       0
  5041 ;;      Temps:          1       0       0       0       0
  5042 ;;      Totals:         2       0       0       0       0
  5043 ;;Total ram usage:        2 bytes
  5044 ;; Hardware stack levels used: 1
  5045 ;; Hardware stack levels required when called: 4
  5046 ;; This function calls:
  5047 ;;		_RF24_write_n_register
  5048 ;; This function is called by:
  5049 ;;		_internet_relay
  5050 ;; This function uses a non-reentrant model
  5051 ;;
  5052                           
  5053  0A3B                     _RF24_openWritingPipe:	
  5054                           ;psect for function _RF24_openWritingPipe
  5055                           
  5056                           
  5057                           ;incstack = 0
  5058                           ; Regs used in _RF24_openWritingPipe: [wreg-fsr0h+status,2+status,0+btemp+1+pclath+cstac
      +                          k]
  5059                           ;RF24_openWritingPipe@address stored from wreg
  5060  0A3B  00F9               	movwf	RF24_openWritingPipe@address
  5061  0A3C                     l3021:
  5062                           
  5063                           ;F:/GitHub/Graduation-Project/Lib-test/Embedded-shs/libs/rf24.c: 450: void RF24_openWrit
      +                          ingPipe(uint8_t *address);F:/GitHub/Graduation-Project/Lib-test/Embedded-shs/libs/rf24.c
      +                          : 451: {;F:/GitHub/Graduation-Project/Lib-test/Embedded-shs/libs/rf24.c: 452:     RF24_w
      +                          rite_n_register(0x10, address, 5);
  5064  0A3C  0879               	movf	RF24_openWritingPipe@address,w
  5065  0A3D  00F3               	movwf	RF24_write_n_register@buffer
  5066  0A3E  3000               	movlw	0
  5067  0A3F  00F4               	movwf	RF24_write_n_register@buffer+1
  5068  0A40  3005               	movlw	5
  5069  0A41  00F8               	movwf	??_RF24_openWritingPipe
  5070  0A42  0878               	movf	??_RF24_openWritingPipe,w
  5071  0A43  00F5               	movwf	RF24_write_n_register@length
  5072  0A44  3010               	movlw	16
  5073  0A45  120A  158A  25D6  120A  158A  	fcall	_RF24_write_n_register
  5074  0A4A                     l513:
  5075  0A4A  0008               	return
  5076  0A4B                     __end_of_RF24_openWritingPipe:
  5077                           
  5078                           	psect	text25
  5079  0B7D                     __ptext25:	
  5080 ;; *************** function _RF24_read *****************
  5081 ;; Defined at:
  5082 ;;		line 285 in file "F:/GitHub/Graduation-Project/Lib-test/Embedded-shs/libs/rf24.c"
  5083 ;; Parameters:    Size  Location     Type
  5084 ;;  buf             1    wreg     PTR void 
  5085 ;;		 -> buffer_rx(32), 
  5086 ;;  len             1    9[COMMON] unsigned char 
  5087 ;; Auto vars:     Size  Location     Type
  5088 ;;  buf             1   10[COMMON] PTR void 
  5089 ;;		 -> buffer_rx(32), 
  5090 ;; Return value:  Size  Location     Type
  5091 ;;                  1    wreg      void 
  5092 ;; Registers used:
  5093 ;;		wreg, fsr0l, fsr0h, status,2, status,0, pclath, cstack
  5094 ;; Tracked objects:
  5095 ;;		On entry : 0/0
  5096 ;;		On exit  : 0/0
  5097 ;;		Unchanged: 0/0
  5098 ;; Data sizes:     COMMON   BANK0   BANK1   BANK3   BANK2
  5099 ;;      Params:         1       0       0       0       0
  5100 ;;      Locals:         1       0       0       0       0
  5101 ;;      Temps:          0       2       0       0       0
  5102 ;;      Totals:         2       2       0       0       0
  5103 ;;Total ram usage:        4 bytes
  5104 ;; Hardware stack levels used: 1
  5105 ;; Hardware stack levels required when called: 4
  5106 ;; This function calls:
  5107 ;;		_RF24_read_n_register
  5108 ;;		_RF24_write_register
  5109 ;; This function is called by:
  5110 ;;		_internet_process
  5111 ;; This function uses a non-reentrant model
  5112 ;;
  5113                           
  5114  0B7D                     _RF24_read:	
  5115                           ;psect for function _RF24_read
  5116                           
  5117                           
  5118                           ;incstack = 0
  5119                           ; Regs used in _RF24_read: [wreg-fsr0h+status,2+status,0+pclath+cstack]
  5120                           ;RF24_read@buf stored from wreg
  5121  0B7D  00FA               	movwf	RF24_read@buf
  5122  0B7E                     l3187:
  5123                           
  5124                           ;F:/GitHub/Graduation-Project/Lib-test/Embedded-shs/libs/rf24.c: 285: void RF24_read(voi
      +                          d *buf, uint8_t len);F:/GitHub/Graduation-Project/Lib-test/Embedded-shs/libs/rf24.c: 286
      +                          : {;F:/GitHub/Graduation-Project/Lib-test/Embedded-shs/libs/rf24.c: 288:     RF24_read_n
      +                          _register(0x61, (uint8_t *)buf, len);
  5125  0B7E  087A               	movf	RF24_read@buf,w
  5126  0B7F  1283               	bcf	3,5	;RP0=0, select bank0
  5127  0B80  1303               	bcf	3,6	;RP1=0, select bank0
  5128  0B81  00A0               	movwf	??_RF24_read
  5129  0B82  0820               	movf	??_RF24_read,w
  5130  0B83  00F3               	movwf	RF24_read_n_register@buf
  5131  0B84  0879               	movf	RF24_read@len,w
  5132  0B85  00A1               	movwf	??_RF24_read+1
  5133  0B86  0821               	movf	??_RF24_read+1,w
  5134  0B87  00F4               	movwf	RF24_read_n_register@len
  5135  0B88  3061               	movlw	97
  5136  0B89  120A  158A  2494  120A  158A  	fcall	_RF24_read_n_register
  5137  0B8E                     l3189:
  5138                           
  5139                           ;F:/GitHub/Graduation-Project/Lib-test/Embedded-shs/libs/rf24.c: 290:     RF24_write_reg
      +                          ister(0x07, (1 << (6)));
  5140  0B8E  3040               	movlw	64
  5141  0B8F  1283               	bcf	3,5	;RP0=0, select bank0
  5142  0B90  1303               	bcf	3,6	;RP1=0, select bank0
  5143  0B91  00A0               	movwf	??_RF24_read
  5144  0B92  0820               	movf	??_RF24_read,w
  5145  0B93  00F6               	movwf	RF24_write_register@value
  5146  0B94  3007               	movlw	7
  5147  0B95  120A  158A  22D7  120A  158A  	fcall	_RF24_write_register
  5148  0B9A                     l448:
  5149  0B9A  0008               	return
  5150  0B9B                     __end_of_RF24_read:
  5151                           
  5152                           	psect	text26
  5153  0C94                     __ptext26:	
  5154 ;; *************** function _RF24_read_n_register *****************
  5155 ;; Defined at:
  5156 ;;		line 7 in file "F:/GitHub/Graduation-Project/Lib-test/Embedded-shs/libs/rf24.c"
  5157 ;; Parameters:    Size  Location     Type
  5158 ;;  mnemonic_add    1    wreg     unsigned char 
  5159 ;;  buf             1    3[COMMON] PTR unsigned char 
  5160 ;;		 -> RF24_printDetails@buffer(5), buffer_rx(32), 
  5161 ;;  len             1    4[COMMON] unsigned char 
  5162 ;; Auto vars:     Size  Location     Type
  5163 ;;  mnemonic_add    1    6[COMMON] unsigned char 
  5164 ;; Return value:  Size  Location     Type
  5165 ;;                  1    wreg      unsigned char 
  5166 ;; Registers used:
  5167 ;;		wreg, fsr0l, fsr0h, status,2, status,0, pclath, cstack
  5168 ;; Tracked objects:
  5169 ;;		On entry : 0/0
  5170 ;;		On exit  : 0/0
  5171 ;;		Unchanged: 0/0
  5172 ;; Data sizes:     COMMON   BANK0   BANK1   BANK3   BANK2
  5173 ;;      Params:         2       0       0       0       0
  5174 ;;      Locals:         1       0       0       0       0
  5175 ;;      Temps:          1       0       0       0       0
  5176 ;;      Totals:         4       0       0       0       0
  5177 ;;Total ram usage:        4 bytes
  5178 ;; Hardware stack levels used: 1
  5179 ;; Hardware stack levels required when called: 3
  5180 ;; This function calls:
  5181 ;;		_SPI_exchangeByte
  5182 ;; This function is called by:
  5183 ;;		_RF24_read
  5184 ;; This function uses a non-reentrant model
  5185 ;;
  5186                           
  5187  0C94                     _RF24_read_n_register:	
  5188                           ;psect for function _RF24_read_n_register
  5189                           
  5190                           
  5191                           ;incstack = 0
  5192                           ; Regs used in _RF24_read_n_register: [wreg-fsr0h+status,2+status,0+pclath+cstack]
  5193                           ;RF24_read_n_register@mnemonic_addr stored from wreg
  5194  0C94  00F6               	movwf	RF24_read_n_register@mnemonic_addr
  5195  0C95                     l3135:
  5196                           
  5197                           ;F:/GitHub/Graduation-Project/Lib-test/Embedded-shs/libs/rf24.c: 7: uint8_t RF24_read_n_
      +                          register(uint8_t mnemonic_addr, uint8_t *buf, uint8_t len);F:/GitHub/Graduation-Project/
      +                          Lib-test/Embedded-shs/libs/rf24.c: 8: {;F:/GitHub/Graduation-Project/Lib-test/Embedded-s
      +                          hs/libs/rf24.c: 9:     RD3 = 0;
  5198  0C95  1283               	bcf	3,5	;RP0=0, select bank0
  5199  0C96  1303               	bcf	3,6	;RP1=0, select bank0
  5200  0C97  1188               	bcf	8,3	;volatile
  5201  0C98                     l3137:
  5202                           
  5203                           ;F:/GitHub/Graduation-Project/Lib-test/Embedded-shs/libs/rf24.c: 10:     RF24_attr_statu
      +                          s = SPI_exchangeByte(0x00 | mnemonic_addr);
  5204  0C98  0876               	movf	RF24_read_n_register@mnemonic_addr,w
  5205  0C99  120A  158A  21FA  120A  158A  	fcall	_SPI_exchangeByte
  5206  0C9E  00F5               	movwf	??_RF24_read_n_register
  5207  0C9F  0875               	movf	??_RF24_read_n_register,w
  5208  0CA0  1283               	bcf	3,5	;RP0=0, select bank0
  5209  0CA1  1303               	bcf	3,6	;RP1=0, select bank0
  5210  0CA2  00D5               	movwf	_RF24_attr_status
  5211                           
  5212                           ;F:/GitHub/Graduation-Project/Lib-test/Embedded-shs/libs/rf24.c: 11:     while (len--)
  5213  0CA3  2CB4               	goto	l3143
  5214  0CA4                     l3139:
  5215                           
  5216                           ;F:/GitHub/Graduation-Project/Lib-test/Embedded-shs/libs/rf24.c: 12:     {;F:/GitHub/Gra
      +                          duation-Project/Lib-test/Embedded-shs/libs/rf24.c: 13:         *buf++ = SPI_exchangeByte
      +                          (0xFF);
  5217  0CA4  30FF               	movlw	255
  5218  0CA5  120A  158A  21FA  120A  158A  	fcall	_SPI_exchangeByte
  5219  0CAA  00F5               	movwf	??_RF24_read_n_register
  5220  0CAB  0873               	movf	RF24_read_n_register@buf,w
  5221  0CAC  0084               	movwf	4
  5222  0CAD  0875               	movf	??_RF24_read_n_register,w
  5223  0CAE  1383               	bcf	3,7	;select IRP bank0
  5224  0CAF  0080               	movwf	0
  5225  0CB0                     l3141:
  5226  0CB0  3001               	movlw	1
  5227  0CB1  00F5               	movwf	??_RF24_read_n_register
  5228  0CB2  0875               	movf	??_RF24_read_n_register,w
  5229  0CB3  07F3               	addwf	RF24_read_n_register@buf,f
  5230  0CB4                     l3143:
  5231                           
  5232                           ;F:/GitHub/Graduation-Project/Lib-test/Embedded-shs/libs/rf24.c: 11:     while (len--)
  5233  0CB4  3001               	movlw	1
  5234  0CB5  02F4               	subwf	RF24_read_n_register@len,f
  5235  0CB6  0A74               	incf	RF24_read_n_register@len,w
  5236  0CB7  1D03               	btfss	3,2
  5237  0CB8  2CBA               	goto	u2301
  5238  0CB9  2CBB               	goto	u2300
  5239  0CBA                     u2301:
  5240  0CBA  2CA4               	goto	l3139
  5241  0CBB                     u2300:
  5242  0CBB                     l366:
  5243                           
  5244                           ;F:/GitHub/Graduation-Project/Lib-test/Embedded-shs/libs/rf24.c: 15:     RD3 = 1;
  5245  0CBB  1283               	bcf	3,5	;RP0=0, select bank0
  5246  0CBC  1303               	bcf	3,6	;RP1=0, select bank0
  5247  0CBD  1588               	bsf	8,3	;volatile
  5248  0CBE                     l367:
  5249  0CBE  0008               	return
  5250  0CBF                     __end_of_RF24_read_n_register:
  5251                           
  5252                           	psect	text27
  5253  0C1E                     __ptext27:	
  5254 ;; *************** function _RF24_getDynamicPayloadSize *****************
  5255 ;; Defined at:
  5256 ;;		line 258 in file "F:/GitHub/Graduation-Project/Lib-test/Embedded-shs/libs/rf24.c"
  5257 ;; Parameters:    Size  Location     Type
  5258 ;;		None
  5259 ;; Auto vars:     Size  Location     Type
  5260 ;;  result          1   10[COMMON] unsigned char 
  5261 ;; Return value:  Size  Location     Type
  5262 ;;                  1    wreg      unsigned char 
  5263 ;; Registers used:
  5264 ;;		wreg, status,2, status,0, pclath, cstack
  5265 ;; Tracked objects:
  5266 ;;		On entry : 0/0
  5267 ;;		On exit  : 0/0
  5268 ;;		Unchanged: 0/0
  5269 ;; Data sizes:     COMMON   BANK0   BANK1   BANK3   BANK2
  5270 ;;      Params:         0       0       0       0       0
  5271 ;;      Locals:         1       0       0       0       0
  5272 ;;      Temps:          0       2       0       0       0
  5273 ;;      Totals:         1       2       0       0       0
  5274 ;;Total ram usage:        3 bytes
  5275 ;; Hardware stack levels used: 1
  5276 ;; Hardware stack levels required when called: 5
  5277 ;; This function calls:
  5278 ;;		_RF24_flush_rx
  5279 ;;		_RF24_read_register
  5280 ;; This function is called by:
  5281 ;;		_internet_process
  5282 ;; This function uses a non-reentrant model
  5283 ;;
  5284                           
  5285  0C1E                     _RF24_getDynamicPayloadSize:	
  5286                           ;psect for function _RF24_getDynamicPayloadSize
  5287                           
  5288  0C1E                     l3171:	
  5289                           ;incstack = 0
  5290                           ; Regs used in _RF24_getDynamicPayloadSize: [wreg+status,2+status,0+pclath+cstack]
  5291                           
  5292                           
  5293                           ;F:/GitHub/Graduation-Project/Lib-test/Embedded-shs/libs/rf24.c: 260:     uint8_t result
      +                           = RF24_read_register(0x60);
  5294  0C1E  3060               	movlw	96
  5295  0C1F  120A  158A  2342  120A  158A  	fcall	_RF24_read_register
  5296  0C24  1283               	bcf	3,5	;RP0=0, select bank0
  5297  0C25  1303               	bcf	3,6	;RP1=0, select bank0
  5298  0C26  00A0               	movwf	??_RF24_getDynamicPayloadSize
  5299  0C27  0820               	movf	??_RF24_getDynamicPayloadSize,w
  5300  0C28  00FA               	movwf	RF24_getDynamicPayloadSize@result
  5301  0C29                     l3173:
  5302                           
  5303                           ;F:/GitHub/Graduation-Project/Lib-test/Embedded-shs/libs/rf24.c: 262:     if (result > 3
      +                          2)
  5304  0C29  3021               	movlw	33
  5305  0C2A  027A               	subwf	RF24_getDynamicPayloadSize@result,w
  5306  0C2B  1C03               	skipc
  5307  0C2C  2C2E               	goto	u2331
  5308  0C2D  2C2F               	goto	u2330
  5309  0C2E                     u2331:
  5310  0C2E  2C41               	goto	l3183
  5311  0C2F                     u2330:
  5312  0C2F                     l3175:
  5313                           
  5314                           ;F:/GitHub/Graduation-Project/Lib-test/Embedded-shs/libs/rf24.c: 263:     {;F:/GitHub/Gr
      +                          aduation-Project/Lib-test/Embedded-shs/libs/rf24.c: 264:         RF24_flush_rx();
  5315  0C2F  120A  158A  21D8  120A  158A  	fcall	_RF24_flush_rx
  5316  0C34                     l3177:
  5317                           
  5318                           ;F:/GitHub/Graduation-Project/Lib-test/Embedded-shs/libs/rf24.c: 265:         _delay((un
      +                          signed long)((2)*(16000000/4000.0)));
  5319  0C34  300B               	movlw	11
  5320  0C35  1283               	bcf	3,5	;RP0=0, select bank0
  5321  0C36  1303               	bcf	3,6	;RP1=0, select bank0
  5322  0C37  00A1               	movwf	??_RF24_getDynamicPayloadSize+1
  5323  0C38  3061               	movlw	97
  5324  0C39  00A0               	movwf	??_RF24_getDynamicPayloadSize
  5325  0C3A                     u2487:
  5326  0C3A  0BA0               	decfsz	??_RF24_getDynamicPayloadSize,f
  5327  0C3B  2C3A               	goto	u2487
  5328  0C3C  0BA1               	decfsz	??_RF24_getDynamicPayloadSize+1,f
  5329  0C3D  2C3A               	goto	u2487
  5330  0C3E  2C3F               	nop2
  5331  0C3F                     l3179:
  5332                           
  5333                           ;F:/GitHub/Graduation-Project/Lib-test/Embedded-shs/libs/rf24.c: 266:         return 0;
  5334  0C3F  3000               	movlw	0
  5335  0C40  2C42               	goto	l441
  5336  0C41                     l3183:
  5337                           
  5338                           ;F:/GitHub/Graduation-Project/Lib-test/Embedded-shs/libs/rf24.c: 268:     return result;
  5339  0C41  087A               	movf	RF24_getDynamicPayloadSize@result,w
  5340  0C42                     l441:
  5341  0C42  0008               	return
  5342  0C43                     __end_of_RF24_getDynamicPayloadSize:
  5343                           
  5344                           	psect	text28
  5345  0AA8                     __ptext28:	
  5346 ;; *************** function _RF24_available *****************
  5347 ;; Defined at:
  5348 ;;		line 271 in file "F:/GitHub/Graduation-Project/Lib-test/Embedded-shs/libs/rf24.c"
  5349 ;; Parameters:    Size  Location     Type
  5350 ;;		None
  5351 ;; Auto vars:     Size  Location     Type
  5352 ;;  pipe            1    6[COMMON] unsigned char 
  5353 ;; Return value:  Size  Location     Type
  5354 ;;                  1    wreg      unsigned char 
  5355 ;; Registers used:
  5356 ;;		wreg, status,2, status,0, pclath, cstack
  5357 ;; Tracked objects:
  5358 ;;		On entry : 0/0
  5359 ;;		On exit  : 0/0
  5360 ;;		Unchanged: 0/0
  5361 ;; Data sizes:     COMMON   BANK0   BANK1   BANK3   BANK2
  5362 ;;      Params:         0       0       0       0       0
  5363 ;;      Locals:         1       0       0       0       0
  5364 ;;      Temps:          2       0       0       0       0
  5365 ;;      Totals:         3       0       0       0       0
  5366 ;;Total ram usage:        3 bytes
  5367 ;; Hardware stack levels used: 1
  5368 ;; Hardware stack levels required when called: 4
  5369 ;; This function calls:
  5370 ;;		_RF24_get_status
  5371 ;; This function is called by:
  5372 ;;		_internet_process
  5373 ;; This function uses a non-reentrant model
  5374 ;;
  5375                           
  5376  0AA8                     _RF24_available:	
  5377                           ;psect for function _RF24_available
  5378                           
  5379  0AA8                     l3209:	
  5380                           ;incstack = 0
  5381                           ; Regs used in _RF24_available: [wreg+status,2+status,0+pclath+cstack]
  5382                           
  5383                           
  5384                           ;F:/GitHub/Graduation-Project/Lib-test/Embedded-shs/libs/rf24.c: 274:     uint8_t pipe =
      +                           (RF24_get_status() >> 1) & 0x07;
  5385  0AA8  120A  158A  226C  120A  158A  	fcall	_RF24_get_status
  5386  0AAD  00F4               	movwf	??_RF24_available
  5387  0AAE  1003               	clrc
  5388  0AAF  0C74               	rrf	??_RF24_available,w
  5389  0AB0  3907               	andlw	7
  5390  0AB1  00F5               	movwf	??_RF24_available+1
  5391  0AB2  0875               	movf	??_RF24_available+1,w
  5392  0AB3  00F6               	movwf	RF24_available@pipe
  5393  0AB4                     l3211:
  5394                           
  5395                           ;F:/GitHub/Graduation-Project/Lib-test/Embedded-shs/libs/rf24.c: 275:     if (pipe > 5)
  5396  0AB4  3006               	movlw	6
  5397  0AB5  0276               	subwf	RF24_available@pipe,w
  5398  0AB6  1C03               	skipc
  5399  0AB7  2AB9               	goto	u2351
  5400  0AB8  2ABA               	goto	u2350
  5401  0AB9                     u2351:
  5402  0AB9  2ABC               	goto	l3217
  5403  0ABA                     u2350:
  5404  0ABA                     l3213:
  5405                           
  5406                           ;F:/GitHub/Graduation-Project/Lib-test/Embedded-shs/libs/rf24.c: 276:         return 0;
  5407  0ABA  3000               	movlw	0
  5408  0ABB  2ABD               	goto	l445
  5409  0ABC                     l3217:
  5410                           
  5411                           ;F:/GitHub/Graduation-Project/Lib-test/Embedded-shs/libs/rf24.c: 282:     return 1;
  5412  0ABC  3001               	movlw	1
  5413  0ABD                     l445:
  5414  0ABD  0008               	return
  5415  0ABE                     __end_of_RF24_available:
  5416                           
  5417                           	psect	text29
  5418  0A6C                     __ptext29:	
  5419 ;; *************** function _RF24_get_status *****************
  5420 ;; Defined at:
  5421 ;;		line 51 in file "F:/GitHub/Graduation-Project/Lib-test/Embedded-shs/libs/rf24.c"
  5422 ;; Parameters:    Size  Location     Type
  5423 ;;		None
  5424 ;; Auto vars:     Size  Location     Type
  5425 ;;		None
  5426 ;; Return value:  Size  Location     Type
  5427 ;;                  1    wreg      unsigned char 
  5428 ;; Registers used:
  5429 ;;		wreg, pclath, cstack
  5430 ;; Tracked objects:
  5431 ;;		On entry : 0/0
  5432 ;;		On exit  : 0/0
  5433 ;;		Unchanged: 0/0
  5434 ;; Data sizes:     COMMON   BANK0   BANK1   BANK3   BANK2
  5435 ;;      Params:         0       0       0       0       0
  5436 ;;      Locals:         0       0       0       0       0
  5437 ;;      Temps:          1       0       0       0       0
  5438 ;;      Totals:         1       0       0       0       0
  5439 ;;Total ram usage:        1 bytes
  5440 ;; Hardware stack levels used: 1
  5441 ;; Hardware stack levels required when called: 3
  5442 ;; This function calls:
  5443 ;;		_SPI_exchangeByte
  5444 ;; This function is called by:
  5445 ;;		_RF24_write
  5446 ;;		_RF24_available
  5447 ;; This function uses a non-reentrant model
  5448 ;;
  5449                           
  5450  0A6C                     _RF24_get_status:	
  5451                           ;psect for function _RF24_get_status
  5452                           
  5453  0A6C                     l2949:	
  5454                           ;incstack = 0
  5455                           ; Regs used in _RF24_get_status: [wreg+pclath+cstack]
  5456                           
  5457                           
  5458                           ;F:/GitHub/Graduation-Project/Lib-test/Embedded-shs/libs/rf24.c: 53:     RD3 = 0;
  5459  0A6C  1283               	bcf	3,5	;RP0=0, select bank0
  5460  0A6D  1303               	bcf	3,6	;RP1=0, select bank0
  5461  0A6E  1188               	bcf	8,3	;volatile
  5462  0A6F                     l2951:
  5463                           
  5464                           ;F:/GitHub/Graduation-Project/Lib-test/Embedded-shs/libs/rf24.c: 54:     RF24_attr_statu
      +                          s = SPI_exchangeByte(0xFF);
  5465  0A6F  30FF               	movlw	255
  5466  0A70  120A  158A  21FA  120A  158A  	fcall	_SPI_exchangeByte
  5467  0A75  00F3               	movwf	??_RF24_get_status
  5468  0A76  0873               	movf	??_RF24_get_status,w
  5469  0A77  1283               	bcf	3,5	;RP0=0, select bank0
  5470  0A78  1303               	bcf	3,6	;RP1=0, select bank0
  5471  0A79  00D5               	movwf	_RF24_attr_status
  5472  0A7A                     l2953:
  5473                           
  5474                           ;F:/GitHub/Graduation-Project/Lib-test/Embedded-shs/libs/rf24.c: 55:     RD3 = 1;
  5475  0A7A  1588               	bsf	8,3	;volatile
  5476  0A7B                     l2955:
  5477                           
  5478                           ;F:/GitHub/Graduation-Project/Lib-test/Embedded-shs/libs/rf24.c: 56:     return RF24_att
      +                          r_status;
  5479  0A7B  0855               	movf	_RF24_attr_status,w
  5480  0A7C                     l382:
  5481  0A7C  0008               	return
  5482  0A7D                     __end_of_RF24_get_status:
  5483                           
  5484                           	psect	text30
  5485  0734                     __ptext30:	
  5486 ;; *************** function _checkButton *****************
  5487 ;; Defined at:
  5488 ;;		line 66 in file "F:/GitHub/Graduation-Project/Lib-test/Embedded-shs/app/src/main.c"
  5489 ;; Parameters:    Size  Location     Type
  5490 ;;  btn             1    wreg     PTR struct .
  5491 ;;		 -> btn1(5), 
  5492 ;;  pinState        1   10[COMMON] unsigned char 
  5493 ;; Auto vars:     Size  Location     Type
  5494 ;;  btn             1    6[BANK0 ] PTR struct .
  5495 ;;		 -> btn1(5), 
  5496 ;;  isPressed       1    5[BANK0 ] unsigned char 
  5497 ;; Return value:  Size  Location     Type
  5498 ;;                  1    wreg      unsigned char 
  5499 ;; Registers used:
  5500 ;;		wreg, fsr0l, fsr0h, status,2, status,0, pclath, cstack
  5501 ;; Tracked objects:
  5502 ;;		On entry : 0/0
  5503 ;;		On exit  : 0/0
  5504 ;;		Unchanged: 0/0
  5505 ;; Data sizes:     COMMON   BANK0   BANK1   BANK3   BANK2
  5506 ;;      Params:         1       0       0       0       0
  5507 ;;      Locals:         0       3       0       0       0
  5508 ;;      Temps:          0       4       0       0       0
  5509 ;;      Totals:         1       7       0       0       0
  5510 ;;Total ram usage:        8 bytes
  5511 ;; Hardware stack levels used: 1
  5512 ;; Hardware stack levels required when called: 3
  5513 ;; This function calls:
  5514 ;;		_micros
  5515 ;; This function is called by:
  5516 ;;		_main
  5517 ;; This function uses a non-reentrant model
  5518 ;;
  5519                           
  5520  0734                     _checkButton:	
  5521                           ;psect for function _checkButton
  5522                           
  5523                           
  5524                           ;incstack = 0
  5525                           ; Regs used in _checkButton: [wreg-fsr0h+status,2+status,0+pclath+cstack]
  5526                           ;checkButton@btn stored from wreg
  5527  0734  1283               	bcf	3,5	;RP0=0, select bank0
  5528  0735  1303               	bcf	3,6	;RP1=0, select bank0
  5529  0736  00A6               	movwf	checkButton@btn
  5530  0737                     l2653:
  5531                           
  5532                           ;F:/GitHub/Graduation-Project/Lib-test/Embedded-shs/app/src/main.c: 66:     };F:/GitHub/
      +                          Graduation-Project/Lib-test/Embedded-shs/app/src/main.c: 67: }
  5533  0737  01A4               	clrf	_checkButton$149
  5534  0738                     l2655:
  5535  0738  0826               	movf	checkButton@btn,w
  5536  0739  3E04               	addlw	4
  5537  073A  0084               	movwf	4
  5538  073B  1383               	bcf	3,7	;select IRP bank0
  5539  073C  0800               	movf	0,w
  5540  073D  1D03               	btfss	3,2
  5541  073E  2F40               	goto	u1771
  5542  073F  2F41               	goto	u1770
  5543  0740                     u1771:
  5544  0740  2F6F               	goto	l2663
  5545  0741                     u1770:
  5546  0741                     l2657:
  5547  0741  087A               	movf	checkButton@pinState,w
  5548  0742  1903               	btfsc	3,2
  5549  0743  2F45               	goto	u1781
  5550  0744  2F46               	goto	u1780
  5551  0745                     u1781:
  5552  0745  2F6F               	goto	l2663
  5553  0746                     u1780:
  5554  0746                     l2659:
  5555  0746  120A  158A  227D  120A  118A  	fcall	_micros
  5556  074B  1283               	bcf	3,5	;RP0=0, select bank0
  5557  074C  1303               	bcf	3,6	;RP1=0, select bank0
  5558  074D  0826               	movf	checkButton@btn,w
  5559  074E  0084               	movwf	4
  5560  074F  1383               	bcf	3,7	;select IRP bank0
  5561  0750  0800               	movf	0,w
  5562  0751  00A0               	movwf	??_checkButton
  5563  0752  0A84               	incf	4,f
  5564  0753  0800               	movf	0,w
  5565  0754  00A1               	movwf	??_checkButton+1
  5566  0755  0A84               	incf	4,f
  5567  0756  0800               	movf	0,w
  5568  0757  00A2               	movwf	??_checkButton+2
  5569  0758  0A84               	incf	4,f
  5570  0759  0800               	movf	0,w
  5571  075A  00A3               	movwf	??_checkButton+3
  5572  075B  0875               	movf	?_micros+3,w
  5573  075C  0223               	subwf	??_checkButton+3,w
  5574  075D  1D03               	skipz
  5575  075E  2F69               	goto	u1795
  5576  075F  0874               	movf	?_micros+2,w
  5577  0760  0222               	subwf	??_checkButton+2,w
  5578  0761  1D03               	skipz
  5579  0762  2F69               	goto	u1795
  5580  0763  0873               	movf	?_micros+1,w
  5581  0764  0221               	subwf	??_checkButton+1,w
  5582  0765  1D03               	skipz
  5583  0766  2F69               	goto	u1795
  5584  0767  0872               	movf	?_micros,w
  5585  0768  0220               	subwf	??_checkButton,w
  5586  0769                     u1795:
  5587  0769  1803               	skipnc
  5588  076A  2F6C               	goto	u1791
  5589  076B  2F6D               	goto	u1790
  5590  076C                     u1791:
  5591  076C  2F6F               	goto	l2663
  5592  076D                     u1790:
  5593  076D                     l2661:
  5594  076D  01A4               	clrf	_checkButton$149
  5595  076E  0AA4               	incf	_checkButton$149,f
  5596  076F                     l2663:
  5597  076F  0824               	movf	_checkButton$149,w
  5598  0770  00A0               	movwf	??_checkButton
  5599  0771  0820               	movf	??_checkButton,w
  5600  0772  00A5               	movwf	checkButton@isPressed
  5601  0773                     l2665:
  5602  0773  0825               	movf	checkButton@isPressed,w
  5603  0774  1903               	btfsc	3,2
  5604  0775  2F77               	goto	u1801
  5605  0776  2F78               	goto	u1800
  5606  0777                     u1801:
  5607  0777  2FA7               	goto	l2669
  5608  0778                     u1800:
  5609  0778                     l2667:
  5610  0778  30E8               	movlw	232
  5611  0779  00A0               	movwf	??_checkButton
  5612  077A  3003               	movlw	3
  5613  077B  00A1               	movwf	??_checkButton+1
  5614  077C  3000               	movlw	0
  5615  077D  00A2               	movwf	??_checkButton+2
  5616  077E  3000               	movlw	0
  5617  077F  00A3               	movwf	??_checkButton+3
  5618  0780  120A  158A  227D  120A  118A  	fcall	_micros
  5619  0785  0872               	movf	?_micros,w
  5620  0786  1283               	bcf	3,5	;RP0=0, select bank0
  5621  0787  1303               	bcf	3,6	;RP1=0, select bank0
  5622  0788  07A0               	addwf	??_checkButton,f
  5623  0789  0873               	movf	?_micros+1,w
  5624  078A  1803               	skipnc
  5625  078B  0F73               	incfsz	?_micros+1,w
  5626  078C  2F8E               	goto	u1810
  5627  078D  2F8F               	goto	u1811
  5628  078E                     u1810:
  5629  078E  07A1               	addwf	??_checkButton+1,f
  5630  078F                     u1811:
  5631  078F  0874               	movf	?_micros+2,w
  5632  0790  1803               	skipnc
  5633  0791  0F74               	incfsz	?_micros+2,w
  5634  0792  2F94               	goto	u1812
  5635  0793  2F95               	goto	u1813
  5636  0794                     u1812:
  5637  0794  07A2               	addwf	??_checkButton+2,f
  5638  0795                     u1813:
  5639  0795  0875               	movf	?_micros+3,w
  5640  0796  1803               	skipnc
  5641  0797  0A75               	incf	?_micros+3,w
  5642  0798  07A3               	addwf	??_checkButton+3,f
  5643  0799  0826               	movf	checkButton@btn,w
  5644  079A  0084               	movwf	4
  5645  079B  0820               	movf	??_checkButton,w
  5646  079C  1383               	bcf	3,7	;select IRP bank0
  5647  079D  0080               	movwf	0
  5648  079E  0A84               	incf	4,f
  5649  079F  0821               	movf	??_checkButton+1,w
  5650  07A0  0080               	movwf	0
  5651  07A1  0A84               	incf	4,f
  5652  07A2  0822               	movf	??_checkButton+2,w
  5653  07A3  0080               	movwf	0
  5654  07A4  0A84               	incf	4,f
  5655  07A5  0823               	movf	??_checkButton+3,w
  5656  07A6  0080               	movwf	0
  5657  07A7                     l2669:
  5658  07A7  087A               	movf	checkButton@pinState,w
  5659  07A8  00A0               	movwf	??_checkButton
  5660  07A9  0826               	movf	checkButton@btn,w
  5661  07AA  3E04               	addlw	4
  5662  07AB  0084               	movwf	4
  5663  07AC  0820               	movf	??_checkButton,w
  5664  07AD  0080               	movwf	0
  5665  07AE                     l2671:
  5666  07AE  0825               	movf	checkButton@isPressed,w
  5667  07AF                     l72:
  5668  07AF  0008               	return
  5669  07B0                     __end_of_checkButton:
  5670                           
  5671                           	psect	text31
  5672  0A7D                     __ptext31:	
  5673 ;; *************** function _micros *****************
  5674 ;; Defined at:
  5675 ;;		line 30 in file "F:/GitHub/Graduation-Project/Lib-test/Embedded-shs/libs/time.c"
  5676 ;; Parameters:    Size  Location     Type
  5677 ;;		None
  5678 ;; Auto vars:     Size  Location     Type
  5679 ;;		None
  5680 ;; Return value:  Size  Location     Type
  5681 ;;                  4    2[COMMON] unsigned long 
  5682 ;; Registers used:
  5683 ;;		wreg
  5684 ;; Tracked objects:
  5685 ;;		On entry : 0/0
  5686 ;;		On exit  : 0/0
  5687 ;;		Unchanged: 0/0
  5688 ;; Data sizes:     COMMON   BANK0   BANK1   BANK3   BANK2
  5689 ;;      Params:         4       0       0       0       0
  5690 ;;      Locals:         0       0       0       0       0
  5691 ;;      Temps:          4       0       0       0       0
  5692 ;;      Totals:         8       0       0       0       0
  5693 ;;Total ram usage:        8 bytes
  5694 ;; Hardware stack levels used: 1
  5695 ;; Hardware stack levels required when called: 2
  5696 ;; This function calls:
  5697 ;;		Nothing
  5698 ;; This function is called by:
  5699 ;;		_checkButton
  5700 ;;		_main
  5701 ;; This function uses a non-reentrant model
  5702 ;;
  5703                           
  5704  0A7D                     _micros:	
  5705                           ;psect for function _micros
  5706                           
  5707  0A7D                     l2463:	
  5708                           ;incstack = 0
  5709                           ; Regs used in _micros: [wreg]
  5710                           
  5711                           
  5712                           ;F:/GitHub/Graduation-Project/Lib-test/Embedded-shs/libs/time.c: 32:     return (_micros
      +                          MSB | TMR1);
  5713  0A7D  1283               	bcf	3,5	;RP0=0, select bank0
  5714  0A7E  1303               	bcf	3,6	;RP1=0, select bank0
  5715  0A7F  080E               	movf	14,w	;volatile
  5716  0A80  00F6               	movwf	??_micros
  5717  0A81  080F               	movf	15,w	;volatile
  5718  0A82  00F7               	movwf	??_micros+1
  5719  0A83  01F8               	clrf	??_micros+2
  5720  0A84  01F9               	clrf	??_micros+3
  5721  0A85  0849               	movf	__microsMSB,w
  5722  0A86  0476               	iorwf	??_micros,w
  5723  0A87  00F2               	movwf	?_micros
  5724  0A88  084A               	movf	__microsMSB+1,w
  5725  0A89  0477               	iorwf	??_micros+1,w
  5726  0A8A  00F3               	movwf	?_micros+1
  5727  0A8B  084B               	movf	__microsMSB+2,w
  5728  0A8C  0478               	iorwf	??_micros+2,w
  5729  0A8D  00F4               	movwf	?_micros+2
  5730  0A8E  084C               	movf	__microsMSB+3,w
  5731  0A8F  0479               	iorwf	??_micros+3,w
  5732  0A90  00F5               	movwf	?_micros+3
  5733  0A91                     l590:
  5734  0A91  0008               	return
  5735  0A92                     __end_of_micros:
  5736                           
  5737                           	psect	text32
  5738  044F                     __ptext32:	
  5739 ;; *************** function _Serial_begin *****************
  5740 ;; Defined at:
  5741 ;;		line 2 in file "F:/GitHub/Graduation-Project/Lib-test/Embedded-shs/libs/Serial.c"
  5742 ;; Parameters:    Size  Location     Type
  5743 ;;  baudrate        4    6[BANK0 ] const long 
  5744 ;; Auto vars:     Size  Location     Type
  5745 ;;  x               2   22[BANK0 ] unsigned int 
  5746 ;; Return value:  Size  Location     Type
  5747 ;;                  1    wreg      unsigned char 
  5748 ;; Registers used:
  5749 ;;		wreg, status,2, status,0, pclath, cstack
  5750 ;; Tracked objects:
  5751 ;;		On entry : 0/0
  5752 ;;		On exit  : 0/0
  5753 ;;		Unchanged: 0/0
  5754 ;; Data sizes:     COMMON   BANK0   BANK1   BANK3   BANK2
  5755 ;;      Params:         0       4       0       0       0
  5756 ;;      Locals:         0       2       0       0       0
  5757 ;;      Temps:          0      12       0       0       0
  5758 ;;      Totals:         0      18       0       0       0
  5759 ;;Total ram usage:       18 bytes
  5760 ;; Hardware stack levels used: 1
  5761 ;; Hardware stack levels required when called: 3
  5762 ;; This function calls:
  5763 ;;		___aldiv
  5764 ;; This function is called by:
  5765 ;;		_main
  5766 ;; This function uses a non-reentrant model
  5767 ;;
  5768                           
  5769  044F                     _Serial_begin:	
  5770                           ;psect for function _Serial_begin
  5771                           
  5772  044F                     l2675:	
  5773                           ;incstack = 0
  5774                           ; Regs used in _Serial_begin: [wreg+status,2+status,0+pclath+cstack]
  5775                           
  5776                           
  5777                           ;F:/GitHub/Graduation-Project/Lib-test/Embedded-shs/libs/Serial.c: 2: uint8_t Serial_beg
      +                          in(const long int baudrate);F:/GitHub/Graduation-Project/Lib-test/Embedded-shs/libs/Seri
      +                          al.c: 3: {;F:/GitHub/Graduation-Project/Lib-test/Embedded-shs/libs/Serial.c: 4:     unsi
      +                          gned int x;;F:/GitHub/Graduation-Project/Lib-test/Embedded-shs/libs/Serial.c: 5:     x =
      +                           (16000000 - baudrate * 64) / (baudrate * 64);
  5778  044F  1283               	bcf	3,5	;RP0=0, select bank0
  5779  0450  1303               	bcf	3,6	;RP1=0, select bank0
  5780  0451  0826               	movf	Serial_begin@baudrate,w
  5781  0452  00AA               	movwf	??_Serial_begin
  5782  0453  0827               	movf	Serial_begin@baudrate+1,w
  5783  0454  00AB               	movwf	??_Serial_begin+1
  5784  0455  0828               	movf	Serial_begin@baudrate+2,w
  5785  0456  00AC               	movwf	??_Serial_begin+2
  5786  0457  0829               	movf	Serial_begin@baudrate+3,w
  5787  0458  00AD               	movwf	??_Serial_begin+3
  5788  0459  3006               	movlw	6
  5789  045A                     u1825:
  5790  045A  1003               	clrc
  5791  045B  0DAA               	rlf	??_Serial_begin,f
  5792  045C  0DAB               	rlf	??_Serial_begin+1,f
  5793  045D  0DAC               	rlf	??_Serial_begin+2,f
  5794  045E  0DAD               	rlf	??_Serial_begin+3,f
  5795  045F                     u1820:
  5796  045F  3EFF               	addlw	-1
  5797  0460  1D03               	skipz
  5798  0461  2C5A               	goto	u1825
  5799  0462  082D               	movf	??_Serial_begin+3,w
  5800  0463  00F5               	movwf	___aldiv@divisor+3
  5801  0464  082C               	movf	??_Serial_begin+2,w
  5802  0465  00F4               	movwf	___aldiv@divisor+2
  5803  0466  082B               	movf	??_Serial_begin+1,w
  5804  0467  00F3               	movwf	___aldiv@divisor+1
  5805  0468  082A               	movf	??_Serial_begin,w
  5806  0469  00F2               	movwf	___aldiv@divisor
  5807  046A  0826               	movf	Serial_begin@baudrate,w
  5808  046B  00AE               	movwf	??_Serial_begin+4
  5809  046C  0827               	movf	Serial_begin@baudrate+1,w
  5810  046D  00AF               	movwf	??_Serial_begin+5
  5811  046E  0828               	movf	Serial_begin@baudrate+2,w
  5812  046F  00B0               	movwf	??_Serial_begin+6
  5813  0470  0829               	movf	Serial_begin@baudrate+3,w
  5814  0471  00B1               	movwf	??_Serial_begin+7
  5815  0472  3006               	movlw	6
  5816  0473                     u1835:
  5817  0473  1003               	clrc
  5818  0474  0DAE               	rlf	??_Serial_begin+4,f
  5819  0475  0DAF               	rlf	??_Serial_begin+5,f
  5820  0476  0DB0               	rlf	??_Serial_begin+6,f
  5821  0477  0DB1               	rlf	??_Serial_begin+7,f
  5822  0478                     u1830:
  5823  0478  3EFF               	addlw	-1
  5824  0479  1D03               	skipz
  5825  047A  2C73               	goto	u1835
  5826  047B  3000               	movlw	0
  5827  047C  00B2               	movwf	??_Serial_begin+8
  5828  047D  3024               	movlw	36
  5829  047E  00B3               	movwf	??_Serial_begin+9
  5830  047F  30F4               	movlw	244
  5831  0480  00B4               	movwf	??_Serial_begin+10
  5832  0481  3000               	movlw	0
  5833  0482  00B5               	movwf	??_Serial_begin+11
  5834  0483  082E               	movf	??_Serial_begin+4,w
  5835  0484  02B2               	subwf	??_Serial_begin+8,f
  5836  0485  082F               	movf	??_Serial_begin+5,w
  5837  0486  1C03               	skipc
  5838  0487  0F2F               	incfsz	??_Serial_begin+5,w
  5839  0488  2C8A               	goto	u1841
  5840  0489  2C8B               	goto	u1842
  5841  048A                     u1841:
  5842  048A  02B3               	subwf	??_Serial_begin+9,f
  5843  048B                     u1842:
  5844  048B  0830               	movf	??_Serial_begin+6,w
  5845  048C  1C03               	skipc
  5846  048D  0F30               	incfsz	??_Serial_begin+6,w
  5847  048E  2C90               	goto	u1843
  5848  048F  2C91               	goto	u1844
  5849  0490                     u1843:
  5850  0490  02B4               	subwf	??_Serial_begin+10,f
  5851  0491                     u1844:
  5852  0491  0831               	movf	??_Serial_begin+7,w
  5853  0492  1C03               	skipc
  5854  0493  0F31               	incfsz	??_Serial_begin+7,w
  5855  0494  2C96               	goto	u1845
  5856  0495  2C97               	goto	u1846
  5857  0496                     u1845:
  5858  0496  02B5               	subwf	??_Serial_begin+11,f
  5859  0497                     u1846:
  5860  0497  0835               	movf	??_Serial_begin+11,w
  5861  0498  00F9               	movwf	___aldiv@dividend+3
  5862  0499  0834               	movf	??_Serial_begin+10,w
  5863  049A  00F8               	movwf	___aldiv@dividend+2
  5864  049B  0833               	movf	??_Serial_begin+9,w
  5865  049C  00F7               	movwf	___aldiv@dividend+1
  5866  049D  0832               	movf	??_Serial_begin+8,w
  5867  049E  00F6               	movwf	___aldiv@dividend
  5868  049F  120A  118A  2697  120A  118A  	fcall	___aldiv
  5869  04A4  0873               	movf	?___aldiv+1,w
  5870  04A5  1283               	bcf	3,5	;RP0=0, select bank0
  5871  04A6  1303               	bcf	3,6	;RP1=0, select bank0
  5872  04A7  00B7               	movwf	Serial_begin@x+1
  5873  04A8  0872               	movf	?___aldiv,w
  5874  04A9  00B6               	movwf	Serial_begin@x
  5875  04AA                     l2677:
  5876                           
  5877                           ;F:/GitHub/Graduation-Project/Lib-test/Embedded-shs/libs/Serial.c: 6:     if (x > 255)
  5878  04AA  3001               	movlw	1
  5879  04AB  0237               	subwf	Serial_begin@x+1,w
  5880  04AC  3000               	movlw	0
  5881  04AD  1903               	skipnz
  5882  04AE  0236               	subwf	Serial_begin@x,w
  5883  04AF  1C03               	skipc
  5884  04B0  2CB2               	goto	u1851
  5885  04B1  2CB3               	goto	u1850
  5886  04B2                     u1851:
  5887  04B2  2D0F               	goto	l2683
  5888  04B3                     u1850:
  5889  04B3                     l2679:
  5890                           
  5891                           ;F:/GitHub/Graduation-Project/Lib-test/Embedded-shs/libs/Serial.c: 7:     {;F:/GitHub/Gr
      +                          aduation-Project/Lib-test/Embedded-shs/libs/Serial.c: 8:         x = (16000000 - baudrat
      +                          e * 16) / (baudrate * 16);
  5892  04B3  0826               	movf	Serial_begin@baudrate,w
  5893  04B4  00AA               	movwf	??_Serial_begin
  5894  04B5  0827               	movf	Serial_begin@baudrate+1,w
  5895  04B6  00AB               	movwf	??_Serial_begin+1
  5896  04B7  0828               	movf	Serial_begin@baudrate+2,w
  5897  04B8  00AC               	movwf	??_Serial_begin+2
  5898  04B9  0829               	movf	Serial_begin@baudrate+3,w
  5899  04BA  00AD               	movwf	??_Serial_begin+3
  5900  04BB  3004               	movlw	4
  5901  04BC                     u1865:
  5902  04BC  1003               	clrc
  5903  04BD  0DAA               	rlf	??_Serial_begin,f
  5904  04BE  0DAB               	rlf	??_Serial_begin+1,f
  5905  04BF  0DAC               	rlf	??_Serial_begin+2,f
  5906  04C0  0DAD               	rlf	??_Serial_begin+3,f
  5907  04C1                     u1860:
  5908  04C1  3EFF               	addlw	-1
  5909  04C2  1D03               	skipz
  5910  04C3  2CBC               	goto	u1865
  5911  04C4  082D               	movf	??_Serial_begin+3,w
  5912  04C5  00F5               	movwf	___aldiv@divisor+3
  5913  04C6  082C               	movf	??_Serial_begin+2,w
  5914  04C7  00F4               	movwf	___aldiv@divisor+2
  5915  04C8  082B               	movf	??_Serial_begin+1,w
  5916  04C9  00F3               	movwf	___aldiv@divisor+1
  5917  04CA  082A               	movf	??_Serial_begin,w
  5918  04CB  00F2               	movwf	___aldiv@divisor
  5919  04CC  0826               	movf	Serial_begin@baudrate,w
  5920  04CD  00AE               	movwf	??_Serial_begin+4
  5921  04CE  0827               	movf	Serial_begin@baudrate+1,w
  5922  04CF  00AF               	movwf	??_Serial_begin+5
  5923  04D0  0828               	movf	Serial_begin@baudrate+2,w
  5924  04D1  00B0               	movwf	??_Serial_begin+6
  5925  04D2  0829               	movf	Serial_begin@baudrate+3,w
  5926  04D3  00B1               	movwf	??_Serial_begin+7
  5927  04D4  3004               	movlw	4
  5928  04D5                     u1875:
  5929  04D5  1003               	clrc
  5930  04D6  0DAE               	rlf	??_Serial_begin+4,f
  5931  04D7  0DAF               	rlf	??_Serial_begin+5,f
  5932  04D8  0DB0               	rlf	??_Serial_begin+6,f
  5933  04D9  0DB1               	rlf	??_Serial_begin+7,f
  5934  04DA                     u1870:
  5935  04DA  3EFF               	addlw	-1
  5936  04DB  1D03               	skipz
  5937  04DC  2CD5               	goto	u1875
  5938  04DD  3000               	movlw	0
  5939  04DE  00B2               	movwf	??_Serial_begin+8
  5940  04DF  3024               	movlw	36
  5941  04E0  00B3               	movwf	??_Serial_begin+9
  5942  04E1  30F4               	movlw	244
  5943  04E2  00B4               	movwf	??_Serial_begin+10
  5944  04E3  3000               	movlw	0
  5945  04E4  00B5               	movwf	??_Serial_begin+11
  5946  04E5  082E               	movf	??_Serial_begin+4,w
  5947  04E6  02B2               	subwf	??_Serial_begin+8,f
  5948  04E7  082F               	movf	??_Serial_begin+5,w
  5949  04E8  1C03               	skipc
  5950  04E9  0F2F               	incfsz	??_Serial_begin+5,w
  5951  04EA  2CEC               	goto	u1881
  5952  04EB  2CED               	goto	u1882
  5953  04EC                     u1881:
  5954  04EC  02B3               	subwf	??_Serial_begin+9,f
  5955  04ED                     u1882:
  5956  04ED  0830               	movf	??_Serial_begin+6,w
  5957  04EE  1C03               	skipc
  5958  04EF  0F30               	incfsz	??_Serial_begin+6,w
  5959  04F0  2CF2               	goto	u1883
  5960  04F1  2CF3               	goto	u1884
  5961  04F2                     u1883:
  5962  04F2  02B4               	subwf	??_Serial_begin+10,f
  5963  04F3                     u1884:
  5964  04F3  0831               	movf	??_Serial_begin+7,w
  5965  04F4  1C03               	skipc
  5966  04F5  0F31               	incfsz	??_Serial_begin+7,w
  5967  04F6  2CF8               	goto	u1885
  5968  04F7  2CF9               	goto	u1886
  5969  04F8                     u1885:
  5970  04F8  02B5               	subwf	??_Serial_begin+11,f
  5971  04F9                     u1886:
  5972  04F9  0835               	movf	??_Serial_begin+11,w
  5973  04FA  00F9               	movwf	___aldiv@dividend+3
  5974  04FB  0834               	movf	??_Serial_begin+10,w
  5975  04FC  00F8               	movwf	___aldiv@dividend+2
  5976  04FD  0833               	movf	??_Serial_begin+9,w
  5977  04FE  00F7               	movwf	___aldiv@dividend+1
  5978  04FF  0832               	movf	??_Serial_begin+8,w
  5979  0500  00F6               	movwf	___aldiv@dividend
  5980  0501  120A  118A  2697  120A  118A  	fcall	___aldiv
  5981  0506  0873               	movf	?___aldiv+1,w
  5982  0507  1283               	bcf	3,5	;RP0=0, select bank0
  5983  0508  1303               	bcf	3,6	;RP1=0, select bank0
  5984  0509  00B7               	movwf	Serial_begin@x+1
  5985  050A  0872               	movf	?___aldiv,w
  5986  050B  00B6               	movwf	Serial_begin@x
  5987  050C                     l2681:
  5988                           
  5989                           ;F:/GitHub/Graduation-Project/Lib-test/Embedded-shs/libs/Serial.c: 9:         BRGH = 1;
  5990  050C  1683               	bsf	3,5	;RP0=1, select bank1
  5991  050D  1303               	bcf	3,6	;RP1=0, select bank1
  5992  050E  1518               	bsf	24,2	;volatile
  5993  050F                     l2683:
  5994                           
  5995                           ;F:/GitHub/Graduation-Project/Lib-test/Embedded-shs/libs/Serial.c: 11:     if (x < 256)
  5996  050F  3001               	movlw	1
  5997  0510  1283               	bcf	3,5	;RP0=0, select bank0
  5998  0511  0237               	subwf	Serial_begin@x+1,w
  5999  0512  3000               	movlw	0
  6000  0513  1903               	skipnz
  6001  0514  0236               	subwf	Serial_begin@x,w
  6002  0515  1803               	skipnc
  6003  0516  2D18               	goto	u1891
  6004  0517  2D19               	goto	u1890
  6005  0518                     u1891:
  6006  0518  2D2B               	goto	l660
  6007  0519                     u1890:
  6008  0519                     l2685:
  6009                           
  6010                           ;F:/GitHub/Graduation-Project/Lib-test/Embedded-shs/libs/Serial.c: 12:     {;F:/GitHub/G
      +                          raduation-Project/Lib-test/Embedded-shs/libs/Serial.c: 13:         SPBRG = x;
  6011  0519  0836               	movf	Serial_begin@x,w
  6012  051A  1683               	bsf	3,5	;RP0=1, select bank1
  6013  051B  1303               	bcf	3,6	;RP1=0, select bank1
  6014  051C  0099               	movwf	25	;volatile
  6015  051D                     l2687:
  6016                           
  6017                           ;F:/GitHub/Graduation-Project/Lib-test/Embedded-shs/libs/Serial.c: 14:         SYNC = 0;
  6018  051D  1218               	bcf	24,4	;volatile
  6019  051E                     l2689:
  6020                           
  6021                           ;F:/GitHub/Graduation-Project/Lib-test/Embedded-shs/libs/Serial.c: 15:         SPEN = 1;
  6022  051E  1283               	bcf	3,5	;RP0=0, select bank0
  6023  051F  1303               	bcf	3,6	;RP1=0, select bank0
  6024  0520  1798               	bsf	24,7	;volatile
  6025  0521                     l2691:
  6026                           
  6027                           ;F:/GitHub/Graduation-Project/Lib-test/Embedded-shs/libs/Serial.c: 16:         TRISC7 = 
      +                          1;
  6028  0521  1683               	bsf	3,5	;RP0=1, select bank1
  6029  0522  1303               	bcf	3,6	;RP1=0, select bank1
  6030  0523  1787               	bsf	7,7	;volatile
  6031  0524                     l2693:
  6032                           
  6033                           ;F:/GitHub/Graduation-Project/Lib-test/Embedded-shs/libs/Serial.c: 17:         TRISC6 = 
      +                          1;
  6034  0524  1707               	bsf	7,6	;volatile
  6035  0525                     l2695:
  6036                           
  6037                           ;F:/GitHub/Graduation-Project/Lib-test/Embedded-shs/libs/Serial.c: 18:         CREN = 1;
  6038  0525  1283               	bcf	3,5	;RP0=0, select bank0
  6039  0526  1303               	bcf	3,6	;RP1=0, select bank0
  6040  0527  1618               	bsf	24,4	;volatile
  6041  0528                     l2697:
  6042                           
  6043                           ;F:/GitHub/Graduation-Project/Lib-test/Embedded-shs/libs/Serial.c: 19:         TXEN = 1;
  6044  0528  1683               	bsf	3,5	;RP0=1, select bank1
  6045  0529  1303               	bcf	3,6	;RP1=0, select bank1
  6046  052A  1698               	bsf	24,5	;volatile
  6047  052B                     l660:
  6048  052B  0008               	return
  6049  052C                     __end_of_Serial_begin:
  6050                           
  6051                           	psect	text33
  6052  0697                     __ptext33:	
  6053 ;; *************** function ___aldiv *****************
  6054 ;; Defined at:
  6055 ;;		line 5 in file "C:\Program Files\Microchip\xc8\v2.35\pic\sources\c90\common\aldiv.c"
  6056 ;; Parameters:    Size  Location     Type
  6057 ;;  divisor         4    2[COMMON] long 
  6058 ;;  dividend        4    6[COMMON] long 
  6059 ;; Auto vars:     Size  Location     Type
  6060 ;;  quotient        4    2[BANK0 ] long 
  6061 ;;  sign            1    1[BANK0 ] unsigned char 
  6062 ;;  counter         1    0[BANK0 ] unsigned char 
  6063 ;; Return value:  Size  Location     Type
  6064 ;;                  4    2[COMMON] long 
  6065 ;; Registers used:
  6066 ;;		wreg, status,2, status,0
  6067 ;; Tracked objects:
  6068 ;;		On entry : 0/0
  6069 ;;		On exit  : 0/0
  6070 ;;		Unchanged: 0/0
  6071 ;; Data sizes:     COMMON   BANK0   BANK1   BANK3   BANK2
  6072 ;;      Params:         8       0       0       0       0
  6073 ;;      Locals:         0       6       0       0       0
  6074 ;;      Temps:          1       0       0       0       0
  6075 ;;      Totals:         9       6       0       0       0
  6076 ;;Total ram usage:       15 bytes
  6077 ;; Hardware stack levels used: 1
  6078 ;; Hardware stack levels required when called: 2
  6079 ;; This function calls:
  6080 ;;		Nothing
  6081 ;; This function is called by:
  6082 ;;		_Serial_begin
  6083 ;; This function uses a non-reentrant model
  6084 ;;
  6085                           
  6086  0697                     ___aldiv:	
  6087                           ;psect for function ___aldiv
  6088                           
  6089  0697                     l2613:	
  6090                           ;incstack = 0
  6091                           ; Regs used in ___aldiv: [wreg+status,2+status,0]
  6092                           
  6093  0697  1283               	bcf	3,5	;RP0=0, select bank0
  6094  0698  1303               	bcf	3,6	;RP1=0, select bank0
  6095  0699  01A1               	clrf	___aldiv@sign
  6096  069A                     l2615:
  6097  069A  1FF5               	btfss	___aldiv@divisor+3,7
  6098  069B  2E9D               	goto	u1671
  6099  069C  2E9E               	goto	u1670
  6100  069D                     u1671:
  6101  069D  2EAB               	goto	l796
  6102  069E                     u1670:
  6103  069E                     l2617:
  6104  069E  09F2               	comf	___aldiv@divisor,f
  6105  069F  09F3               	comf	___aldiv@divisor+1,f
  6106  06A0  09F4               	comf	___aldiv@divisor+2,f
  6107  06A1  09F5               	comf	___aldiv@divisor+3,f
  6108  06A2  0AF2               	incf	___aldiv@divisor,f
  6109  06A3  1903               	skipnz
  6110  06A4  0AF3               	incf	___aldiv@divisor+1,f
  6111  06A5  1903               	skipnz
  6112  06A6  0AF4               	incf	___aldiv@divisor+2,f
  6113  06A7  1903               	skipnz
  6114  06A8  0AF5               	incf	___aldiv@divisor+3,f
  6115  06A9  01A1               	clrf	___aldiv@sign
  6116  06AA  0AA1               	incf	___aldiv@sign,f
  6117  06AB                     l796:
  6118  06AB  1FF9               	btfss	___aldiv@dividend+3,7
  6119  06AC  2EAE               	goto	u1681
  6120  06AD  2EAF               	goto	u1680
  6121  06AE                     u1681:
  6122  06AE  2EBE               	goto	l2623
  6123  06AF                     u1680:
  6124  06AF                     l2619:
  6125  06AF  09F6               	comf	___aldiv@dividend,f
  6126  06B0  09F7               	comf	___aldiv@dividend+1,f
  6127  06B1  09F8               	comf	___aldiv@dividend+2,f
  6128  06B2  09F9               	comf	___aldiv@dividend+3,f
  6129  06B3  0AF6               	incf	___aldiv@dividend,f
  6130  06B4  1903               	skipnz
  6131  06B5  0AF7               	incf	___aldiv@dividend+1,f
  6132  06B6  1903               	skipnz
  6133  06B7  0AF8               	incf	___aldiv@dividend+2,f
  6134  06B8  1903               	skipnz
  6135  06B9  0AF9               	incf	___aldiv@dividend+3,f
  6136  06BA                     l2621:
  6137  06BA  3001               	movlw	1
  6138  06BB  00FA               	movwf	??___aldiv
  6139  06BC  087A               	movf	??___aldiv,w
  6140  06BD  06A1               	xorwf	___aldiv@sign,f
  6141  06BE                     l2623:
  6142  06BE  3000               	movlw	0
  6143  06BF  00A5               	movwf	___aldiv@quotient+3
  6144  06C0  3000               	movlw	0
  6145  06C1  00A4               	movwf	___aldiv@quotient+2
  6146  06C2  3000               	movlw	0
  6147  06C3  00A3               	movwf	___aldiv@quotient+1
  6148  06C4  3000               	movlw	0
  6149  06C5  00A2               	movwf	___aldiv@quotient
  6150  06C6                     l2625:
  6151  06C6  0875               	movf	___aldiv@divisor+3,w
  6152  06C7  0474               	iorwf	___aldiv@divisor+2,w
  6153  06C8  0473               	iorwf	___aldiv@divisor+1,w
  6154  06C9  0472               	iorwf	___aldiv@divisor,w
  6155  06CA  1903               	skipnz
  6156  06CB  2ECD               	goto	u1691
  6157  06CC  2ECE               	goto	u1690
  6158  06CD                     u1691:
  6159  06CD  2F1B               	goto	l2645
  6160  06CE                     u1690:
  6161  06CE                     l2627:
  6162  06CE  01A0               	clrf	___aldiv@counter
  6163  06CF  0AA0               	incf	___aldiv@counter,f
  6164  06D0  2EDE               	goto	l2631
  6165  06D1                     l2629:
  6166  06D1  3001               	movlw	1
  6167  06D2  00FA               	movwf	??___aldiv
  6168  06D3                     u1705:
  6169  06D3  1003               	clrc
  6170  06D4  0DF2               	rlf	___aldiv@divisor,f
  6171  06D5  0DF3               	rlf	___aldiv@divisor+1,f
  6172  06D6  0DF4               	rlf	___aldiv@divisor+2,f
  6173  06D7  0DF5               	rlf	___aldiv@divisor+3,f
  6174  06D8  0BFA               	decfsz	??___aldiv,f
  6175  06D9  2ED3               	goto	u1705
  6176  06DA  3001               	movlw	1
  6177  06DB  00FA               	movwf	??___aldiv
  6178  06DC  087A               	movf	??___aldiv,w
  6179  06DD  07A0               	addwf	___aldiv@counter,f
  6180  06DE                     l2631:
  6181  06DE  1FF5               	btfss	___aldiv@divisor+3,7
  6182  06DF  2EE1               	goto	u1711
  6183  06E0  2EE2               	goto	u1710
  6184  06E1                     u1711:
  6185  06E1  2ED1               	goto	l2629
  6186  06E2                     u1710:
  6187  06E2                     l2633:
  6188  06E2  3001               	movlw	1
  6189  06E3  00FA               	movwf	??___aldiv
  6190  06E4                     u1725:
  6191  06E4  1003               	clrc
  6192  06E5  0DA2               	rlf	___aldiv@quotient,f
  6193  06E6  0DA3               	rlf	___aldiv@quotient+1,f
  6194  06E7  0DA4               	rlf	___aldiv@quotient+2,f
  6195  06E8  0DA5               	rlf	___aldiv@quotient+3,f
  6196  06E9  0BFA               	decfsz	??___aldiv,f
  6197  06EA  2EE4               	goto	u1725
  6198  06EB                     l2635:
  6199  06EB  0875               	movf	___aldiv@divisor+3,w
  6200  06EC  0279               	subwf	___aldiv@dividend+3,w
  6201  06ED  1D03               	skipz
  6202  06EE  2EF9               	goto	u1735
  6203  06EF  0874               	movf	___aldiv@divisor+2,w
  6204  06F0  0278               	subwf	___aldiv@dividend+2,w
  6205  06F1  1D03               	skipz
  6206  06F2  2EF9               	goto	u1735
  6207  06F3  0873               	movf	___aldiv@divisor+1,w
  6208  06F4  0277               	subwf	___aldiv@dividend+1,w
  6209  06F5  1D03               	skipz
  6210  06F6  2EF9               	goto	u1735
  6211  06F7  0872               	movf	___aldiv@divisor,w
  6212  06F8  0276               	subwf	___aldiv@dividend,w
  6213  06F9                     u1735:
  6214  06F9  1C03               	skipc
  6215  06FA  2EFC               	goto	u1731
  6216  06FB  2EFD               	goto	u1730
  6217  06FC                     u1731:
  6218  06FC  2F0C               	goto	l2641
  6219  06FD                     u1730:
  6220  06FD                     l2637:
  6221  06FD  0872               	movf	___aldiv@divisor,w
  6222  06FE  02F6               	subwf	___aldiv@dividend,f
  6223  06FF  0873               	movf	___aldiv@divisor+1,w
  6224  0700  1C03               	skipc
  6225  0701  0F73               	incfsz	___aldiv@divisor+1,w
  6226  0702  02F7               	subwf	___aldiv@dividend+1,f
  6227  0703  0874               	movf	___aldiv@divisor+2,w
  6228  0704  1C03               	skipc
  6229  0705  0F74               	incfsz	___aldiv@divisor+2,w
  6230  0706  02F8               	subwf	___aldiv@dividend+2,f
  6231  0707  0875               	movf	___aldiv@divisor+3,w
  6232  0708  1C03               	skipc
  6233  0709  0F75               	incfsz	___aldiv@divisor+3,w
  6234  070A  02F9               	subwf	___aldiv@dividend+3,f
  6235  070B                     l2639:
  6236  070B  1422               	bsf	___aldiv@quotient,0
  6237  070C                     l2641:
  6238  070C  3001               	movlw	1
  6239  070D                     u1745:
  6240  070D  1003               	clrc
  6241  070E  0CF5               	rrf	___aldiv@divisor+3,f
  6242  070F  0CF4               	rrf	___aldiv@divisor+2,f
  6243  0710  0CF3               	rrf	___aldiv@divisor+1,f
  6244  0711  0CF2               	rrf	___aldiv@divisor,f
  6245  0712  3EFF               	addlw	-1
  6246  0713  1D03               	skipz
  6247  0714  2F0D               	goto	u1745
  6248  0715                     l2643:
  6249  0715  3001               	movlw	1
  6250  0716  02A0               	subwf	___aldiv@counter,f
  6251  0717  1D03               	btfss	3,2
  6252  0718  2F1A               	goto	u1751
  6253  0719  2F1B               	goto	u1750
  6254  071A                     u1751:
  6255  071A  2EE2               	goto	l2633
  6256  071B                     u1750:
  6257  071B                     l2645:
  6258  071B  0821               	movf	___aldiv@sign,w
  6259  071C  1903               	btfsc	3,2
  6260  071D  2F1F               	goto	u1761
  6261  071E  2F20               	goto	u1760
  6262  071F                     u1761:
  6263  071F  2F2B               	goto	l2649
  6264  0720                     u1760:
  6265  0720                     l2647:
  6266  0720  09A2               	comf	___aldiv@quotient,f
  6267  0721  09A3               	comf	___aldiv@quotient+1,f
  6268  0722  09A4               	comf	___aldiv@quotient+2,f
  6269  0723  09A5               	comf	___aldiv@quotient+3,f
  6270  0724  0AA2               	incf	___aldiv@quotient,f
  6271  0725  1903               	skipnz
  6272  0726  0AA3               	incf	___aldiv@quotient+1,f
  6273  0727  1903               	skipnz
  6274  0728  0AA4               	incf	___aldiv@quotient+2,f
  6275  0729  1903               	skipnz
  6276  072A  0AA5               	incf	___aldiv@quotient+3,f
  6277  072B                     l2649:
  6278  072B  0825               	movf	___aldiv@quotient+3,w
  6279  072C  00F5               	movwf	?___aldiv+3
  6280  072D  0824               	movf	___aldiv@quotient+2,w
  6281  072E  00F4               	movwf	?___aldiv+2
  6282  072F  0823               	movf	___aldiv@quotient+1,w
  6283  0730  00F3               	movwf	?___aldiv+1
  6284  0731  0822               	movf	___aldiv@quotient,w
  6285  0732  00F2               	movwf	?___aldiv
  6286  0733                     l806:
  6287  0733  0008               	return
  6288  0734                     __end_of___aldiv:
  6289                           
  6290                           	psect	text34
  6291  0A5B                     __ptext34:	
  6292 ;; *************** function _SPI_initialize *****************
  6293 ;; Defined at:
  6294 ;;		line 3 in file "F:/GitHub/Graduation-Project/Lib-test/Embedded-shs/libs/spi_master.c"
  6295 ;; Parameters:    Size  Location     Type
  6296 ;;		None
  6297 ;; Auto vars:     Size  Location     Type
  6298 ;;		None
  6299 ;; Return value:  Size  Location     Type
  6300 ;;                  1    wreg      void 
  6301 ;; Registers used:
  6302 ;;		wreg, status,2
  6303 ;; Tracked objects:
  6304 ;;		On entry : 0/0
  6305 ;;		On exit  : 0/0
  6306 ;;		Unchanged: 0/0
  6307 ;; Data sizes:     COMMON   BANK0   BANK1   BANK3   BANK2
  6308 ;;      Params:         0       0       0       0       0
  6309 ;;      Locals:         0       0       0       0       0
  6310 ;;      Temps:          0       0       0       0       0
  6311 ;;      Totals:         0       0       0       0       0
  6312 ;;Total ram usage:        0 bytes
  6313 ;; Hardware stack levels used: 1
  6314 ;; Hardware stack levels required when called: 2
  6315 ;; This function calls:
  6316 ;;		Nothing
  6317 ;; This function is called by:
  6318 ;;		_main
  6319 ;; This function uses a non-reentrant model
  6320 ;;
  6321                           
  6322  0A5B                     _SPI_initialize:	
  6323                           ;psect for function _SPI_initialize
  6324                           
  6325  0A5B                     l2703:	
  6326                           ;incstack = 0
  6327                           ; Regs used in _SPI_initialize: [wreg+status,2]
  6328                           
  6329                           
  6330                           ;F:/GitHub/Graduation-Project/Lib-test/Embedded-shs/libs/spi_master.c: 5:     SSPEN = 1;
  6331  0A5B  1283               	bcf	3,5	;RP0=0, select bank0
  6332  0A5C  1303               	bcf	3,6	;RP1=0, select bank0
  6333  0A5D  1694               	bsf	20,5	;volatile
  6334  0A5E                     l2705:
  6335                           
  6336                           ;F:/GitHub/Graduation-Project/Lib-test/Embedded-shs/libs/spi_master.c: 6:     SSPSTAT = 
      +                          0b01000000;
  6337  0A5E  3040               	movlw	64
  6338  0A5F  1683               	bsf	3,5	;RP0=1, select bank1
  6339  0A60  1303               	bcf	3,6	;RP1=0, select bank1
  6340  0A61  0094               	movwf	20	;volatile
  6341  0A62                     l2707:
  6342                           
  6343                           ;F:/GitHub/Graduation-Project/Lib-test/Embedded-shs/libs/spi_master.c: 7:     TRISC5 = 0
      +                          ;
  6344  0A62  1287               	bcf	7,5	;volatile
  6345  0A63                     l2709:
  6346                           
  6347                           ;F:/GitHub/Graduation-Project/Lib-test/Embedded-shs/libs/spi_master.c: 8:     TRISC4 = 1
      +                          ;
  6348  0A63  1607               	bsf	7,4	;volatile
  6349  0A64                     l2711:
  6350                           
  6351                           ;F:/GitHub/Graduation-Project/Lib-test/Embedded-shs/libs/spi_master.c: 9:     TRISC3 = 0
      +                          ;
  6352  0A64  1187               	bcf	7,3	;volatile
  6353  0A65                     l2713:
  6354                           
  6355                           ;F:/GitHub/Graduation-Project/Lib-test/Embedded-shs/libs/spi_master.c: 10:     SSPCON = 
      +                          (SSPCON & 0xf0) | 0b0010;
  6356  0A65  1283               	bcf	3,5	;RP0=0, select bank0
  6357  0A66  1303               	bcf	3,6	;RP1=0, select bank0
  6358  0A67  0814               	movf	20,w	;volatile
  6359  0A68  39F0               	andlw	240
  6360  0A69  3802               	iorlw	2
  6361  0A6A  0094               	movwf	20	;volatile
  6362  0A6B                     l551:
  6363  0A6B  0008               	return
  6364  0A6C                     __end_of_SPI_initialize:
  6365                           
  6366                           	psect	text35
  6367  0EFD                     __ptext35:	
  6368 ;; *************** function _Network_begin *****************
  6369 ;; Defined at:
  6370 ;;		line 138 in file "F:/GitHub/Graduation-Project/Lib-test/Embedded-shs/libs/internet.c"
  6371 ;; Parameters:    Size  Location     Type
  6372 ;;		None
  6373 ;; Auto vars:     Size  Location     Type
  6374 ;;		None
  6375 ;; Return value:  Size  Location     Type
  6376 ;;                  1    wreg      void 
  6377 ;; Registers used:
  6378 ;;		wreg, fsr0l, fsr0h, status,2, status,0, btemp+1, pclath, cstack
  6379 ;; Tracked objects:
  6380 ;;		On entry : 0/0
  6381 ;;		On exit  : 0/0
  6382 ;;		Unchanged: 0/0
  6383 ;; Data sizes:     COMMON   BANK0   BANK1   BANK3   BANK2
  6384 ;;      Params:         0       0       0       0       0
  6385 ;;      Locals:         0       0       0       0       0
  6386 ;;      Temps:          0       1       0       0       0
  6387 ;;      Totals:         0       1       0       0       0
  6388 ;;Total ram usage:        1 bytes
  6389 ;; Hardware stack levels used: 1
  6390 ;; Hardware stack levels required when called: 6
  6391 ;; This function calls:
  6392 ;;		_RF24_begin
  6393 ;;		_RF24_enableDynamicPayloads
  6394 ;;		_RF24_getPALevel
  6395 ;;		_RF24_openReadingPipe
  6396 ;;		_RF24_setAddressWidth
  6397 ;;		_RF24_setAutoAck
  6398 ;;		_RF24_setCRCLength
  6399 ;;		_RF24_setDataRate
  6400 ;;		_RF24_setPayloadSize
  6401 ;;		_RF24_startListening
  6402 ;; This function is called by:
  6403 ;;		_main
  6404 ;; This function uses a non-reentrant model
  6405 ;;
  6406                           
  6407  0EFD                     _Network_begin:	
  6408                           ;psect for function _Network_begin
  6409                           
  6410  0EFD                     l3291:	
  6411                           ;incstack = 0
  6412                           ; Regs used in _Network_begin: [wreg-fsr0h+status,2+status,0+btemp+1+pclath+cstack]
  6413                           
  6414                           
  6415                           ;F:/GitHub/Graduation-Project/Lib-test/Embedded-shs/libs/internet.c: 141:     RF24_begin
      +                          ();
  6416  0EFD  120A  118A  25F2  120A  158A  	fcall	_RF24_begin
  6417                           
  6418                           ;F:/GitHub/Graduation-Project/Lib-test/Embedded-shs/libs/internet.c: 142:     RF24_setAd
      +                          dressWidth(5);
  6419  0F02  3005               	movlw	5
  6420  0F03  120A  158A  221E  120A  158A  	fcall	_RF24_setAddressWidth
  6421                           
  6422                           ;F:/GitHub/Graduation-Project/Lib-test/Embedded-shs/libs/internet.c: 143:     RF24_enabl
      +                          eDynamicPayloads();
  6423  0F08  120A  158A  23DB  120A  158A  	fcall	_RF24_enableDynamicPayloads
  6424                           
  6425                           ;F:/GitHub/Graduation-Project/Lib-test/Embedded-shs/libs/internet.c: 144:     RF24_setDa
      +                          taRate(RF24_1MBPS);
  6426  0F0D  3000               	movlw	0
  6427  0F0E  120A  158A  24BF  120A  158A  	fcall	_RF24_setDataRate
  6428                           
  6429                           ;F:/GitHub/Graduation-Project/Lib-test/Embedded-shs/libs/internet.c: 145:     RF24_setCR
      +                          CLength(RF24_CRC_8);
  6430  0F13  3001               	movlw	1
  6431  0F14  120A  158A  239B  120A  158A  	fcall	_RF24_setCRCLength
  6432  0F19                     l3293:
  6433                           
  6434                           ;F:/GitHub/Graduation-Project/Lib-test/Embedded-shs/libs/internet.c: 146:     RF24_openR
      +                          eadingPipe(0, BASE_PIPE);
  6435  0F19  3030               	movlw	low (_BASE_PIPE| (0+32768))
  6436  0F1A  00F9               	movwf	RF24_openReadingPipe@address
  6437  0F1B  3081               	movlw	high (_BASE_PIPE| (0+32768))
  6438  0F1C  00FA               	movwf	RF24_openReadingPipe@address+1
  6439  0F1D  3000               	movlw	0
  6440  0F1E  120A  118A  20AC  120A  158A  	fcall	_RF24_openReadingPipe
  6441  0F23                     l3295:
  6442                           
  6443                           ;F:/GitHub/Graduation-Project/Lib-test/Embedded-shs/libs/internet.c: 147:     RF24_setAu
      +                          toAck(1);
  6444  0F23  3001               	movlw	1
  6445  0F24  120A  158A  22BE  120A  158A  	fcall	_RF24_setAutoAck
  6446  0F29                     l3297:
  6447                           
  6448                           ;F:/GitHub/Graduation-Project/Lib-test/Embedded-shs/libs/internet.c: 148:     RF24_getPA
      +                          Level(RF24_PA_MAX);
  6449  0F29  3003               	movlw	3
  6450  0F2A  1283               	bcf	3,5	;RP0=0, select bank0
  6451  0F2B  1303               	bcf	3,6	;RP1=0, select bank0
  6452  0F2C  00A6               	movwf	??_Network_begin
  6453  0F2D  0826               	movf	??_Network_begin,w
  6454  0F2E  00F6               	movwf	?_RF24_getPALevel
  6455  0F2F  120A  158A  21C1  120A  158A  	fcall	_RF24_getPALevel
  6456  0F34                     l3299:
  6457                           
  6458                           ;F:/GitHub/Graduation-Project/Lib-test/Embedded-shs/libs/internet.c: 149:     RF24_setPa
      +                          yloadSize(32);
  6459  0F34  3020               	movlw	32
  6460  0F35  120A  158A  2680  120A  158A  	fcall	_RF24_setPayloadSize
  6461  0F3A                     l3301:
  6462                           
  6463                           ;F:/GitHub/Graduation-Project/Lib-test/Embedded-shs/libs/internet.c: 150:     RF24_start
      +                          Listening();
  6464  0F3A  120A  158A  235F  120A  158A  	fcall	_RF24_startListening
  6465  0F3F                     l300:
  6466  0F3F  0008               	return
  6467  0F40                     __end_of_Network_begin:
  6468                           
  6469                           	psect	text36
  6470  0B5F                     __ptext36:	
  6471 ;; *************** function _RF24_startListening *****************
  6472 ;; Defined at:
  6473 ;;		line 139 in file "F:/GitHub/Graduation-Project/Lib-test/Embedded-shs/libs/rf24.c"
  6474 ;; Parameters:    Size  Location     Type
  6475 ;;		None
  6476 ;; Auto vars:     Size  Location     Type
  6477 ;;		None
  6478 ;; Return value:  Size  Location     Type
  6479 ;;                  1    wreg      void 
  6480 ;; Registers used:
  6481 ;;		wreg, status,2, status,0, pclath, cstack
  6482 ;; Tracked objects:
  6483 ;;		On entry : 0/0
  6484 ;;		On exit  : 0/0
  6485 ;;		Unchanged: 0/0
  6486 ;; Data sizes:     COMMON   BANK0   BANK1   BANK3   BANK2
  6487 ;;      Params:         0       0       0       0       0
  6488 ;;      Locals:         0       0       0       0       0
  6489 ;;      Temps:          1       0       0       0       0
  6490 ;;      Totals:         1       0       0       0       0
  6491 ;;Total ram usage:        1 bytes
  6492 ;; Hardware stack levels used: 1
  6493 ;; Hardware stack levels required when called: 4
  6494 ;; This function calls:
  6495 ;;		_RF24_read_register
  6496 ;;		_RF24_write_register
  6497 ;; This function is called by:
  6498 ;;		_internet_relay
  6499 ;;		_Network_begin
  6500 ;; This function uses a non-reentrant model
  6501 ;;
  6502                           
  6503  0B5F                     _RF24_startListening:	
  6504                           ;psect for function _RF24_startListening
  6505                           
  6506  0B5F                     l3049:	
  6507                           ;incstack = 0
  6508                           ; Regs used in _RF24_startListening: [wreg+status,2+status,0+pclath+cstack]
  6509                           
  6510                           
  6511                           ;F:/GitHub/Graduation-Project/Lib-test/Embedded-shs/libs/rf24.c: 141:     RF24_write_reg
      +                          ister(0x00, RF24_read_register(0x00) | (1 << (0)));
  6512  0B5F  3000               	movlw	0
  6513  0B60  120A  158A  2342  120A  158A  	fcall	_RF24_read_register
  6514  0B65  3801               	iorlw	1
  6515  0B66  00F9               	movwf	??_RF24_startListening
  6516  0B67  0879               	movf	??_RF24_startListening,w
  6517  0B68  00F6               	movwf	RF24_write_register@value
  6518  0B69  3000               	movlw	0
  6519  0B6A  120A  158A  22D7  120A  158A  	fcall	_RF24_write_register
  6520                           
  6521                           ;F:/GitHub/Graduation-Project/Lib-test/Embedded-shs/libs/rf24.c: 142:     RF24_write_reg
      +                          ister(0x07, (1 << (6)) | (1 << (5)) | (1 << (4)));
  6522  0B6F  3070               	movlw	112
  6523  0B70  00F9               	movwf	??_RF24_startListening
  6524  0B71  0879               	movf	??_RF24_startListening,w
  6525  0B72  00F6               	movwf	RF24_write_register@value
  6526  0B73  3007               	movlw	7
  6527  0B74  120A  158A  22D7  120A  158A  	fcall	_RF24_write_register
  6528  0B79                     l3051:
  6529                           
  6530                           ;F:/GitHub/Graduation-Project/Lib-test/Embedded-shs/libs/rf24.c: 143:     RD2 = 1;
  6531  0B79  1283               	bcf	3,5	;RP0=0, select bank0
  6532  0B7A  1303               	bcf	3,6	;RP1=0, select bank0
  6533  0B7B  1508               	bsf	8,2	;volatile
  6534  0B7C                     l399:
  6535  0B7C  0008               	return
  6536  0B7D                     __end_of_RF24_startListening:
  6537                           
  6538                           	psect	text37
  6539  0B9B                     __ptext37:	
  6540 ;; *************** function _RF24_setCRCLength *****************
  6541 ;; Defined at:
  6542 ;;		line 404 in file "F:/GitHub/Graduation-Project/Lib-test/Embedded-shs/libs/rf24.c"
  6543 ;; Parameters:    Size  Location     Type
  6544 ;;  length          1    wreg     enum E904
  6545 ;; Auto vars:     Size  Location     Type
  6546 ;;  length          1   10[COMMON] enum E904
  6547 ;; Return value:  Size  Location     Type
  6548 ;;                  1    wreg      void 
  6549 ;; Registers used:
  6550 ;;		wreg, status,2, status,0, pclath, cstack
  6551 ;; Tracked objects:
  6552 ;;		On entry : 0/0
  6553 ;;		On exit  : 0/0
  6554 ;;		Unchanged: 0/0
  6555 ;; Data sizes:     COMMON   BANK0   BANK1   BANK3   BANK2
  6556 ;;      Params:         0       0       0       0       0
  6557 ;;      Locals:         1       0       0       0       0
  6558 ;;      Temps:          1       0       0       0       0
  6559 ;;      Totals:         2       0       0       0       0
  6560 ;;Total ram usage:        2 bytes
  6561 ;; Hardware stack levels used: 1
  6562 ;; Hardware stack levels required when called: 4
  6563 ;; This function calls:
  6564 ;;		_RF24_write_register
  6565 ;; This function is called by:
  6566 ;;		_Network_begin
  6567 ;; This function uses a non-reentrant model
  6568 ;;
  6569                           
  6570  0B9B                     _RF24_setCRCLength:	
  6571                           ;psect for function _RF24_setCRCLength
  6572                           
  6573                           
  6574                           ;incstack = 0
  6575                           ; Regs used in _RF24_setCRCLength: [wreg+status,2+status,0+pclath+cstack]
  6576                           ;RF24_setCRCLength@length stored from wreg
  6577  0B9B  00FA               	movwf	RF24_setCRCLength@length
  6578  0B9C                     l3269:
  6579                           
  6580                           ;F:/GitHub/Graduation-Project/Lib-test/Embedded-shs/libs/rf24.c: 404: void RF24_setCRCLe
      +                          ngth(rf24_crclength_e length);F:/GitHub/Graduation-Project/Lib-test/Embedded-shs/libs/rf
      +                          24.c: 405: {;F:/GitHub/Graduation-Project/Lib-test/Embedded-shs/libs/rf24.c: 406:     RF
      +                          24_attr_config = RF24_attr_config & ~((1 << (2)) | (1 << (3)));
  6581  0B9C  087B               	movf	_RF24_attr_config,w
  6582  0B9D  39F3               	andlw	243
  6583  0B9E  00F9               	movwf	??_RF24_setCRCLength
  6584  0B9F  0879               	movf	??_RF24_setCRCLength,w
  6585  0BA0  00FB               	movwf	_RF24_attr_config
  6586  0BA1                     l3271:
  6587                           
  6588                           ;F:/GitHub/Graduation-Project/Lib-test/Embedded-shs/libs/rf24.c: 409:     if (length == 
      +                          RF24_CRC_DISABLED)
  6589  0BA1  087A               	movf	RF24_setCRCLength@length,w
  6590  0BA2  1D03               	btfss	3,2
  6591  0BA3  2BA5               	goto	u2361
  6592  0BA4  2BA6               	goto	u2360
  6593  0BA5                     u2361:
  6594  0BA5  2BA7               	goto	l3275
  6595  0BA6                     u2360:
  6596  0BA6  2BB0               	goto	l3279
  6597  0BA7                     l3275:
  6598  0BA7  037A               	decf	RF24_setCRCLength@length,w
  6599  0BA8  1D03               	btfss	3,2
  6600  0BA9  2BAB               	goto	u2371
  6601  0BAA  2BAC               	goto	u2370
  6602  0BAB                     u2371:
  6603  0BAB  2BAE               	goto	l490
  6604  0BAC                     u2370:
  6605  0BAC                     l3277:
  6606                           
  6607                           ;F:/GitHub/Graduation-Project/Lib-test/Embedded-shs/libs/rf24.c: 414:     {;F:/GitHub/Gr
      +                          aduation-Project/Lib-test/Embedded-shs/libs/rf24.c: 415:         RF24_attr_config |= (1 
      +                          << (3));
  6608  0BAC  15FB               	bsf	_RF24_attr_config,3
  6609                           
  6610                           ;F:/GitHub/Graduation-Project/Lib-test/Embedded-shs/libs/rf24.c: 416:     }
  6611  0BAD  2BB0               	goto	l3279
  6612  0BAE                     l490:	
  6613                           ;F:/GitHub/Graduation-Project/Lib-test/Embedded-shs/libs/rf24.c: 417:     else
  6614                           
  6615                           
  6616                           ;F:/GitHub/Graduation-Project/Lib-test/Embedded-shs/libs/rf24.c: 418:     {;F:/GitHub/Gr
      +                          aduation-Project/Lib-test/Embedded-shs/libs/rf24.c: 419:         RF24_attr_config |= (1 
      +                          << (3));
  6617  0BAE  15FB               	bsf	_RF24_attr_config,3
  6618                           
  6619                           ;F:/GitHub/Graduation-Project/Lib-test/Embedded-shs/libs/rf24.c: 420:         RF24_attr_
      +                          config |= (1 << (2));
  6620  0BAF  157B               	bsf	_RF24_attr_config,2
  6621  0BB0                     l3279:
  6622                           
  6623                           ;F:/GitHub/Graduation-Project/Lib-test/Embedded-shs/libs/rf24.c: 422:     RF24_write_reg
      +                          ister(0x00, RF24_attr_config);
  6624  0BB0  087B               	movf	_RF24_attr_config,w
  6625  0BB1  00F9               	movwf	??_RF24_setCRCLength
  6626  0BB2  0879               	movf	??_RF24_setCRCLength,w
  6627  0BB3  00F6               	movwf	RF24_write_register@value
  6628  0BB4  3000               	movlw	0
  6629  0BB5  120A  158A  22D7  120A  158A  	fcall	_RF24_write_register
  6630  0BBA                     l492:
  6631  0BBA  0008               	return
  6632  0BBB                     __end_of_RF24_setCRCLength:
  6633                           
  6634                           	psect	text38
  6635  0ABE                     __ptext38:	
  6636 ;; *************** function _RF24_setAutoAck *****************
  6637 ;; Defined at:
  6638 ;;		line 335 in file "F:/GitHub/Graduation-Project/Lib-test/Embedded-shs/libs/rf24.c"
  6639 ;; Parameters:    Size  Location     Type
  6640 ;;  enable          1    wreg     unsigned char 
  6641 ;; Auto vars:     Size  Location     Type
  6642 ;;  enable          1   10[COMMON] unsigned char 
  6643 ;; Return value:  Size  Location     Type
  6644 ;;                  1    wreg      void 
  6645 ;; Registers used:
  6646 ;;		wreg, status,2, status,0, pclath, cstack
  6647 ;; Tracked objects:
  6648 ;;		On entry : 0/0
  6649 ;;		On exit  : 0/0
  6650 ;;		Unchanged: 0/0
  6651 ;; Data sizes:     COMMON   BANK0   BANK1   BANK3   BANK2
  6652 ;;      Params:         0       0       0       0       0
  6653 ;;      Locals:         1       0       0       0       0
  6654 ;;      Temps:          1       0       0       0       0
  6655 ;;      Totals:         2       0       0       0       0
  6656 ;;Total ram usage:        2 bytes
  6657 ;; Hardware stack levels used: 1
  6658 ;; Hardware stack levels required when called: 4
  6659 ;; This function calls:
  6660 ;;		_RF24_write_register
  6661 ;; This function is called by:
  6662 ;;		_Network_begin
  6663 ;; This function uses a non-reentrant model
  6664 ;;
  6665                           
  6666  0ABE                     _RF24_setAutoAck:	
  6667                           ;psect for function _RF24_setAutoAck
  6668                           
  6669                           
  6670                           ;incstack = 0
  6671                           ; Regs used in _RF24_setAutoAck: [wreg+status,2+status,0+pclath+cstack]
  6672                           ;RF24_setAutoAck@enable stored from wreg
  6673  0ABE  00FA               	movwf	RF24_setAutoAck@enable
  6674  0ABF                     l3281:
  6675                           
  6676                           ;F:/GitHub/Graduation-Project/Lib-test/Embedded-shs/libs/rf24.c: 335: void RF24_setAutoA
      +                          ck(uint8_t enable);F:/GitHub/Graduation-Project/Lib-test/Embedded-shs/libs/rf24.c: 336: 
      +                          {;F:/GitHub/Graduation-Project/Lib-test/Embedded-shs/libs/rf24.c: 337:     if (enable)
  6677  0ABF  087A               	movf	RF24_setAutoAck@enable,w
  6678  0AC0  1903               	btfsc	3,2
  6679  0AC1  2AC3               	goto	u2381
  6680  0AC2  2AC4               	goto	u2380
  6681  0AC3                     u2381:
  6682  0AC3  2ACF               	goto	l3285
  6683  0AC4                     u2380:
  6684  0AC4                     l3283:
  6685                           
  6686                           ;F:/GitHub/Graduation-Project/Lib-test/Embedded-shs/libs/rf24.c: 338:     {;F:/GitHub/Gr
      +                          aduation-Project/Lib-test/Embedded-shs/libs/rf24.c: 339:         RF24_write_register(0x0
      +                          1, 0x3F);
  6687  0AC4  303F               	movlw	63
  6688  0AC5  00F9               	movwf	??_RF24_setAutoAck
  6689  0AC6  0879               	movf	??_RF24_setAutoAck,w
  6690  0AC7  00F6               	movwf	RF24_write_register@value
  6691  0AC8  3001               	movlw	1
  6692  0AC9  120A  158A  22D7  120A  158A  	fcall	_RF24_write_register
  6693                           
  6694                           ;F:/GitHub/Graduation-Project/Lib-test/Embedded-shs/libs/rf24.c: 340:     }
  6695  0ACE  2AD6               	goto	l467
  6696  0ACF                     l3285:
  6697                           
  6698                           ;F:/GitHub/Graduation-Project/Lib-test/Embedded-shs/libs/rf24.c: 342:     {;F:/GitHub/Gr
      +                          aduation-Project/Lib-test/Embedded-shs/libs/rf24.c: 343:         RF24_write_register(0x0
      +                          1, 0);
  6699  0ACF  01F6               	clrf	RF24_write_register@value
  6700  0AD0  3001               	movlw	1
  6701  0AD1  120A  158A  22D7  120A  158A  	fcall	_RF24_write_register
  6702  0AD6                     l467:
  6703  0AD6  0008               	return
  6704  0AD7                     __end_of_RF24_setAutoAck:
  6705                           
  6706                           	psect	text39
  6707  00AC                     __ptext39:	
  6708 ;; *************** function _RF24_openReadingPipe *****************
  6709 ;; Defined at:
  6710 ;;		line 305 in file "F:/GitHub/Graduation-Project/Lib-test/Embedded-shs/libs/rf24.c"
  6711 ;; Parameters:    Size  Location     Type
  6712 ;;  child           1    wreg     unsigned char 
  6713 ;;  address         2    9[COMMON] PTR unsigned char 
  6714 ;;		 -> BASE_PIPE(5), networkInfo(6), 
  6715 ;; Auto vars:     Size  Location     Type
  6716 ;;  child           1    2[BANK0 ] unsigned char 
  6717 ;; Return value:  Size  Location     Type
  6718 ;;                  1    wreg      void 
  6719 ;; Registers used:
  6720 ;;		wreg, fsr0l, fsr0h, status,2, status,0, btemp+1, pclath, cstack
  6721 ;; Tracked objects:
  6722 ;;		On entry : 0/0
  6723 ;;		On exit  : 0/0
  6724 ;;		Unchanged: 0/0
  6725 ;; Data sizes:     COMMON   BANK0   BANK1   BANK3   BANK2
  6726 ;;      Params:         2       0       0       0       0
  6727 ;;      Locals:         0       1       0       0       0
  6728 ;;      Temps:          0       2       0       0       0
  6729 ;;      Totals:         2       3       0       0       0
  6730 ;;Total ram usage:        5 bytes
  6731 ;; Hardware stack levels used: 1
  6732 ;; Hardware stack levels required when called: 4
  6733 ;; This function calls:
  6734 ;;		_RF24_read_register
  6735 ;;		_RF24_write_n_register
  6736 ;;		_RF24_write_register
  6737 ;; This function is called by:
  6738 ;;		_internet_setNetworkPipe
  6739 ;;		_internet_relay
  6740 ;;		_Network_begin
  6741 ;; This function uses a non-reentrant model
  6742 ;;
  6743                           
  6744  00AC                     _RF24_openReadingPipe:	
  6745                           ;psect for function _RF24_openReadingPipe
  6746                           
  6747                           
  6748                           ;incstack = 0
  6749 ;; using string table level
  6750                           ; Regs used in _RF24_openReadingPipe: [wreg-fsr0h+status,2+status,0+btemp+1+pclath+cstac
      +                          k]
  6751                           ;RF24_openReadingPipe@child stored from wreg
  6752  00AC  1283               	bcf	3,5	;RP0=0, select bank0
  6753  00AD  1303               	bcf	3,6	;RP1=0, select bank0
  6754  00AE  00A2               	movwf	RF24_openReadingPipe@child
  6755  00AF                     l3013:
  6756                           
  6757                           ;F:/GitHub/Graduation-Project/Lib-test/Embedded-shs/libs/rf24.c: 305: void RF24_openRead
      +                          ingPipe(uint8_t child, uint8_t *address);F:/GitHub/Graduation-Project/Lib-test/Embedded-
      +                          shs/libs/rf24.c: 306: {;F:/GitHub/Graduation-Project/Lib-test/Embedded-shs/libs/rf24.c: 
      +                          307:     if (child < 2)
  6758  00AF  3002               	movlw	2
  6759  00B0  0222               	subwf	RF24_openReadingPipe@child,w
  6760  00B1  1803               	skipnc
  6761  00B2  28B4               	goto	u2191
  6762  00B3  28B5               	goto	u2190
  6763  00B4                     u2191:
  6764  00B4  28C5               	goto	l3017
  6765  00B5                     u2190:
  6766  00B5                     l3015:
  6767                           
  6768                           ;F:/GitHub/Graduation-Project/Lib-test/Embedded-shs/libs/rf24.c: 308:     {;F:/GitHub/Gr
      +                          aduation-Project/Lib-test/Embedded-shs/libs/rf24.c: 309:         RF24_write_n_register(0
      +                          x0A + child, address, 5);
  6769  00B5  0879               	movf	RF24_openReadingPipe@address,w
  6770  00B6  00F3               	movwf	RF24_write_n_register@buffer
  6771  00B7  087A               	movf	RF24_openReadingPipe@address+1,w
  6772  00B8  00F4               	movwf	RF24_write_n_register@buffer+1
  6773  00B9  3005               	movlw	5
  6774  00BA  00A0               	movwf	??_RF24_openReadingPipe
  6775  00BB  0820               	movf	??_RF24_openReadingPipe,w
  6776  00BC  00F5               	movwf	RF24_write_n_register@length
  6777  00BD  0822               	movf	RF24_openReadingPipe@child,w
  6778  00BE  3E0A               	addlw	10
  6779  00BF  120A  158A  25D6  120A  118A  	fcall	_RF24_write_n_register
  6780                           
  6781                           ;F:/GitHub/Graduation-Project/Lib-test/Embedded-shs/libs/rf24.c: 310:     }
  6782  00C4  28D8               	goto	l3019
  6783  00C5                     l3017:
  6784                           
  6785                           ;F:/GitHub/Graduation-Project/Lib-test/Embedded-shs/libs/rf24.c: 312:     {;F:/GitHub/Gr
      +                          aduation-Project/Lib-test/Embedded-shs/libs/rf24.c: 313:         RF24_write_register(0x0
      +                          A + child, *address);
  6786  00C5  087A               	movf	RF24_openReadingPipe@address+1,w
  6787  00C6  00FF               	movwf	btemp+1
  6788  00C7  0879               	movf	RF24_openReadingPipe@address,w
  6789  00C8  0084               	movwf	4
  6790  00C9  120A  118A  2100  120A  118A  	fcall	stringtab
  6791  00CE  00A0               	movwf	??_RF24_openReadingPipe
  6792  00CF  0820               	movf	??_RF24_openReadingPipe,w
  6793  00D0  00F6               	movwf	RF24_write_register@value
  6794  00D1  0822               	movf	RF24_openReadingPipe@child,w
  6795  00D2  3E0A               	addlw	10
  6796  00D3  120A  158A  22D7  120A  118A  	fcall	_RF24_write_register
  6797  00D8                     l3019:
  6798                           
  6799                           ;F:/GitHub/Graduation-Project/Lib-test/Embedded-shs/libs/rf24.c: 315:     RF24_write_reg
      +                          ister(0x02, RF24_read_register(0x02) | (1 << (0 + child)));
  6800  00D8  3001               	movlw	1
  6801  00D9  1283               	bcf	3,5	;RP0=0, select bank0
  6802  00DA  1303               	bcf	3,6	;RP1=0, select bank0
  6803  00DB  00A0               	movwf	??_RF24_openReadingPipe
  6804  00DC  0A22               	incf	RF24_openReadingPipe@child,w
  6805  00DD  28E0               	goto	u2204
  6806  00DE                     u2205:
  6807  00DE  1003               	clrc
  6808  00DF  0DA0               	rlf	??_RF24_openReadingPipe,f
  6809  00E0                     u2204:
  6810  00E0  3EFF               	addlw	-1
  6811  00E1  1D03               	skipz
  6812  00E2  28DE               	goto	u2205
  6813  00E3  3002               	movlw	2
  6814  00E4  120A  158A  2342  120A  118A  	fcall	_RF24_read_register
  6815  00E9  1283               	bcf	3,5	;RP0=0, select bank0
  6816  00EA  1303               	bcf	3,6	;RP1=0, select bank0
  6817  00EB  0420               	iorwf	??_RF24_openReadingPipe,w
  6818  00EC  00A1               	movwf	??_RF24_openReadingPipe+1
  6819  00ED  0821               	movf	??_RF24_openReadingPipe+1,w
  6820  00EE  00F6               	movwf	RF24_write_register@value
  6821  00EF  3002               	movlw	2
  6822  00F0  120A  158A  22D7  120A  118A  	fcall	_RF24_write_register
  6823  00F5                     l453:
  6824  00F5  0008               	return
  6825  00F6                     __end_of_RF24_openReadingPipe:
  6826                           
  6827                           	psect	text40
  6828  0DD6                     __ptext40:	
  6829 ;; *************** function _RF24_write_n_register *****************
  6830 ;; Defined at:
  6831 ;;		line 29 in file "F:/GitHub/Graduation-Project/Lib-test/Embedded-shs/libs/rf24.c"
  6832 ;; Parameters:    Size  Location     Type
  6833 ;;  mnemonic_add    1    wreg     unsigned char 
  6834 ;;  buffer          2    3[COMMON] PTR unsigned char 
  6835 ;;		 -> BASE_PIPE(5), networkInfo(6), 
  6836 ;;  length          1    5[COMMON] unsigned char 
  6837 ;; Auto vars:     Size  Location     Type
  6838 ;;  mnemonic_add    1    7[COMMON] unsigned char 
  6839 ;; Return value:  Size  Location     Type
  6840 ;;                  1    wreg      void 
  6841 ;; Registers used:
  6842 ;;		wreg, fsr0l, fsr0h, status,2, status,0, btemp+1, pclath, cstack
  6843 ;; Tracked objects:
  6844 ;;		On entry : 0/0
  6845 ;;		On exit  : 0/0
  6846 ;;		Unchanged: 0/0
  6847 ;; Data sizes:     COMMON   BANK0   BANK1   BANK3   BANK2
  6848 ;;      Params:         3       0       0       0       0
  6849 ;;      Locals:         1       0       0       0       0
  6850 ;;      Temps:          1       0       0       0       0
  6851 ;;      Totals:         5       0       0       0       0
  6852 ;;Total ram usage:        5 bytes
  6853 ;; Hardware stack levels used: 1
  6854 ;; Hardware stack levels required when called: 3
  6855 ;; This function calls:
  6856 ;;		_SPI_exchangeByte
  6857 ;; This function is called by:
  6858 ;;		_RF24_openReadingPipe
  6859 ;;		_RF24_openWritingPipe
  6860 ;; This function uses a non-reentrant model
  6861 ;;
  6862                           
  6863  0DD6                     _RF24_write_n_register:	
  6864                           ;psect for function _RF24_write_n_register
  6865                           
  6866                           
  6867                           ;incstack = 0
  6868 ;; using string table level
  6869                           ; Regs used in _RF24_write_n_register: [wreg-fsr0h+status,2+status,0+btemp+1+pclath+csta
      +                          ck]
  6870                           ;RF24_write_n_register@mnemonic_addr stored from wreg
  6871  0DD6  00F7               	movwf	RF24_write_n_register@mnemonic_addr
  6872  0DD7                     l2937:
  6873                           
  6874                           ;F:/GitHub/Graduation-Project/Lib-test/Embedded-shs/libs/rf24.c: 29: void RF24_write_n_r
      +                          egister(uint8_t mnemonic_addr, uint8_t *buffer, uint8_t length);F:/GitHub/Graduation-Pro
      +                          ject/Lib-test/Embedded-shs/libs/rf24.c: 30: {;F:/GitHub/Graduation-Project/Lib-test/Embe
      +                          dded-shs/libs/rf24.c: 31:     RD3 = 0;
  6875  0DD7  1283               	bcf	3,5	;RP0=0, select bank0
  6876  0DD8  1303               	bcf	3,6	;RP1=0, select bank0
  6877  0DD9  1188               	bcf	8,3	;volatile
  6878  0DDA                     l2939:
  6879                           
  6880                           ;F:/GitHub/Graduation-Project/Lib-test/Embedded-shs/libs/rf24.c: 32:     RF24_attr_statu
      +                          s = SPI_exchangeByte(0x20 | mnemonic_addr);
  6881  0DDA  0877               	movf	RF24_write_n_register@mnemonic_addr,w
  6882  0DDB  3820               	iorlw	32
  6883  0DDC  120A  158A  21FA  120A  158A  	fcall	_SPI_exchangeByte
  6884  0DE1  00F6               	movwf	??_RF24_write_n_register
  6885  0DE2  0876               	movf	??_RF24_write_n_register,w
  6886  0DE3  1283               	bcf	3,5	;RP0=0, select bank0
  6887  0DE4  1303               	bcf	3,6	;RP1=0, select bank0
  6888  0DE5  00D5               	movwf	_RF24_attr_status
  6889                           
  6890                           ;F:/GitHub/Graduation-Project/Lib-test/Embedded-shs/libs/rf24.c: 33:     while (length)
  6891  0DE6  2DFF               	goto	l2947
  6892  0DE7                     l2941:
  6893                           
  6894                           ;F:/GitHub/Graduation-Project/Lib-test/Embedded-shs/libs/rf24.c: 34:     {;F:/GitHub/Gra
      +                          duation-Project/Lib-test/Embedded-shs/libs/rf24.c: 35:         SPI_exchangeByte(*buffer+
      +                          +);
  6895  0DE7  0874               	movf	RF24_write_n_register@buffer+1,w
  6896  0DE8  1283               	bcf	3,5	;RP0=0, select bank0
  6897  0DE9  1303               	bcf	3,6	;RP1=0, select bank0
  6898  0DEA  00FF               	movwf	btemp+1
  6899  0DEB  0873               	movf	RF24_write_n_register@buffer,w
  6900  0DEC  0084               	movwf	4
  6901  0DED  120A  118A  2100  120A  158A  	fcall	stringtab
  6902  0DF2  120A  158A  21FA  120A  158A  	fcall	_SPI_exchangeByte
  6903  0DF7                     l2943:
  6904  0DF7  3001               	movlw	1
  6905  0DF8  07F3               	addwf	RF24_write_n_register@buffer,f
  6906  0DF9  1803               	skipnc
  6907  0DFA  0AF4               	incf	RF24_write_n_register@buffer+1,f
  6908  0DFB  3000               	movlw	0
  6909  0DFC  07F4               	addwf	RF24_write_n_register@buffer+1,f
  6910  0DFD                     l2945:
  6911                           
  6912                           ;F:/GitHub/Graduation-Project/Lib-test/Embedded-shs/libs/rf24.c: 36:         length--;
  6913  0DFD  3001               	movlw	1
  6914  0DFE  02F5               	subwf	RF24_write_n_register@length,f
  6915  0DFF                     l2947:
  6916                           
  6917                           ;F:/GitHub/Graduation-Project/Lib-test/Embedded-shs/libs/rf24.c: 33:     while (length)
  6918  0DFF  0875               	movf	RF24_write_n_register@length,w
  6919  0E00  1D03               	btfss	3,2
  6920  0E01  2E03               	goto	u2131
  6921  0E02  2E04               	goto	u2130
  6922  0E03                     u2131:
  6923  0E03  2DE7               	goto	l2941
  6924  0E04                     u2130:
  6925  0E04                     l375:
  6926                           
  6927                           ;F:/GitHub/Graduation-Project/Lib-test/Embedded-shs/libs/rf24.c: 38:     RD3 = 1;
  6928  0E04  1283               	bcf	3,5	;RP0=0, select bank0
  6929  0E05  1303               	bcf	3,6	;RP1=0, select bank0
  6930  0E06  1588               	bsf	8,3	;volatile
  6931  0E07                     l376:
  6932  0E07  0008               	return
  6933  0E08                     __end_of_RF24_write_n_register:
  6934                           
  6935                           	psect	text41
  6936  09C1                     __ptext41:	
  6937 ;; *************** function _RF24_getPALevel *****************
  6938 ;; Defined at:
  6939 ;;		line 458 in file "F:/GitHub/Graduation-Project/Lib-test/Embedded-shs/libs/rf24.c"
  6940 ;; Parameters:    Size  Location     Type
  6941 ;;		None
  6942 ;; Auto vars:     Size  Location     Type
  6943 ;;		None
  6944 ;; Return value:  Size  Location     Type
  6945 ;;                  1    wreg      unsigned char 
  6946 ;; Registers used:
  6947 ;;		wreg, status,2, status,0, pclath, cstack
  6948 ;; Tracked objects:
  6949 ;;		On entry : 0/0
  6950 ;;		On exit  : 0/0
  6951 ;;		Unchanged: 0/0
  6952 ;; Data sizes:     COMMON   BANK0   BANK1   BANK3   BANK2
  6953 ;;      Params:         1       0       0       0       0
  6954 ;;      Locals:         0       0       0       0       0
  6955 ;;      Temps:          0       0       0       0       0
  6956 ;;      Totals:         1       0       0       0       0
  6957 ;;Total ram usage:        1 bytes
  6958 ;; Hardware stack levels used: 1
  6959 ;; Hardware stack levels required when called: 4
  6960 ;; This function calls:
  6961 ;;		_RF24_read_register
  6962 ;; This function is called by:
  6963 ;;		_Network_begin
  6964 ;; This function uses a non-reentrant model
  6965 ;;
  6966                           
  6967  09C1                     _RF24_getPALevel:	
  6968                           ;psect for function _RF24_getPALevel
  6969                           
  6970  09C1                     l3287:	
  6971                           ;incstack = 0
  6972                           ; Regs used in _RF24_getPALevel: [wreg+status,2+status,0+pclath+cstack]
  6973                           
  6974                           
  6975                           ;F:/GitHub/Graduation-Project/Lib-test/Embedded-shs/libs/rf24.c: 460:     return ((RF24_
      +                          read_register(0x06) & ((1 << (1)) | (1 << (2)))) >> 1);;	Return value of _RF24_getPALeve
      +                          l is never used
  6976  09C1  3006               	movlw	6
  6977  09C2  120A  158A  2342  120A  158A  	fcall	_RF24_read_register
  6978  09C7                     l519:
  6979  09C7  0008               	return
  6980  09C8                     __end_of_RF24_getPALevel:
  6981                           
  6982                           	psect	text42
  6983  0BDB                     __ptext42:	
  6984 ;; *************** function _RF24_enableDynamicPayloads *****************
  6985 ;; Defined at:
  6986 ;;		line 323 in file "F:/GitHub/Graduation-Project/Lib-test/Embedded-shs/libs/rf24.c"
  6987 ;; Parameters:    Size  Location     Type
  6988 ;;		None
  6989 ;; Auto vars:     Size  Location     Type
  6990 ;;		None
  6991 ;; Return value:  Size  Location     Type
  6992 ;;                  1    wreg      void 
  6993 ;; Registers used:
  6994 ;;		wreg, status,2, status,0, pclath, cstack
  6995 ;; Tracked objects:
  6996 ;;		On entry : 0/0
  6997 ;;		On exit  : 0/0
  6998 ;;		Unchanged: 0/0
  6999 ;; Data sizes:     COMMON   BANK0   BANK1   BANK3   BANK2
  7000 ;;      Params:         0       0       0       0       0
  7001 ;;      Locals:         0       0       0       0       0
  7002 ;;      Temps:          1       0       0       0       0
  7003 ;;      Totals:         1       0       0       0       0
  7004 ;;Total ram usage:        1 bytes
  7005 ;; Hardware stack levels used: 1
  7006 ;; Hardware stack levels required when called: 4
  7007 ;; This function calls:
  7008 ;;		_RF24_read_register
  7009 ;;		_RF24_write_register
  7010 ;; This function is called by:
  7011 ;;		_Network_begin
  7012 ;; This function uses a non-reentrant model
  7013 ;;
  7014                           
  7015  0BDB                     _RF24_enableDynamicPayloads:	
  7016                           ;psect for function _RF24_enableDynamicPayloads
  7017                           
  7018  0BDB                     l3267:	
  7019                           ;incstack = 0
  7020                           ; Regs used in _RF24_enableDynamicPayloads: [wreg+status,2+status,0+pclath+cstack]
  7021                           
  7022                           
  7023                           ;F:/GitHub/Graduation-Project/Lib-test/Embedded-shs/libs/rf24.c: 325:     RF24_write_reg
      +                          ister(0x1D, RF24_read_register(0x1D) | (1 << (2)));
  7024  0BDB  301D               	movlw	29
  7025  0BDC  120A  158A  2342  120A  158A  	fcall	_RF24_read_register
  7026  0BE1  3804               	iorlw	4
  7027  0BE2  00F9               	movwf	??_RF24_enableDynamicPayloads
  7028  0BE3  0879               	movf	??_RF24_enableDynamicPayloads,w
  7029  0BE4  00F6               	movwf	RF24_write_register@value
  7030  0BE5  301D               	movlw	29
  7031  0BE6  120A  158A  22D7  120A  158A  	fcall	_RF24_write_register
  7032                           
  7033                           ;F:/GitHub/Graduation-Project/Lib-test/Embedded-shs/libs/rf24.c: 326:     RF24_write_reg
      +                          ister(0x1C, RF24_read_register(0x1C) | (1 << (5)) | (1 << (4)) | (1 << (3)) | (1 << (2))
      +                           | (1 << (1)) | (1 << (0)));
  7034  0BEB  301C               	movlw	28
  7035  0BEC  120A  158A  2342  120A  158A  	fcall	_RF24_read_register
  7036  0BF1  383F               	iorlw	63
  7037  0BF2  00F9               	movwf	??_RF24_enableDynamicPayloads
  7038  0BF3  0879               	movf	??_RF24_enableDynamicPayloads,w
  7039  0BF4  00F6               	movwf	RF24_write_register@value
  7040  0BF5  301C               	movlw	28
  7041  0BF6  120A  158A  22D7  120A  158A  	fcall	_RF24_write_register
  7042  0BFB                     l459:
  7043  0BFB  0008               	return
  7044  0BFC                     __end_of_RF24_enableDynamicPayloads:
  7045                           
  7046                           	psect	text43
  7047  05F2                     __ptext43:	
  7048 ;; *************** function _RF24_begin *****************
  7049 ;; Defined at:
  7050 ;;		line 59 in file "F:/GitHub/Graduation-Project/Lib-test/Embedded-shs/libs/rf24.c"
  7051 ;; Parameters:    Size  Location     Type
  7052 ;;		None
  7053 ;; Auto vars:     Size  Location     Type
  7054 ;;		None
  7055 ;; Return value:  Size  Location     Type
  7056 ;;                  1    wreg      unsigned char 
  7057 ;; Registers used:
  7058 ;;		wreg, status,2, status,0, pclath, cstack
  7059 ;; Tracked objects:
  7060 ;;		On entry : 0/0
  7061 ;;		On exit  : 0/0
  7062 ;;		Unchanged: 0/0
  7063 ;; Data sizes:     COMMON   BANK0   BANK1   BANK3   BANK2
  7064 ;;      Params:         0       0       0       0       0
  7065 ;;      Locals:         0       0       0       0       0
  7066 ;;      Temps:          0       3       0       0       0
  7067 ;;      Totals:         0       3       0       0       0
  7068 ;;Total ram usage:        3 bytes
  7069 ;; Hardware stack levels used: 1
  7070 ;; Hardware stack levels required when called: 5
  7071 ;; This function calls:
  7072 ;;		_RF24_flush_rx
  7073 ;;		_RF24_flush_tx
  7074 ;;		_RF24_powerUp
  7075 ;;		_RF24_read_register
  7076 ;;		_RF24_setAddressWidth
  7077 ;;		_RF24_setChannel
  7078 ;;		_RF24_setDataRate
  7079 ;;		_RF24_setPALevel
  7080 ;;		_RF24_setPayloadSize
  7081 ;;		_RF24_setRetries
  7082 ;;		_RF24_write_register
  7083 ;; This function is called by:
  7084 ;;		_Network_begin
  7085 ;; This function uses a non-reentrant model
  7086 ;;
  7087                           
  7088  05F2                     _RF24_begin:	
  7089                           ;psect for function _RF24_begin
  7090                           
  7091  05F2                     l3229:	
  7092                           ;incstack = 0
  7093                           ; Regs used in _RF24_begin: [wreg+status,2+status,0+pclath+cstack]
  7094                           
  7095                           
  7096                           ;F:/GitHub/Graduation-Project/Lib-test/Embedded-shs/libs/rf24.c: 62:     TRISD2 = 0;
  7097  05F2  1683               	bsf	3,5	;RP0=1, select bank1
  7098  05F3  1303               	bcf	3,6	;RP1=0, select bank1
  7099  05F4  1108               	bcf	8,2	;volatile
  7100                           
  7101                           ;F:/GitHub/Graduation-Project/Lib-test/Embedded-shs/libs/rf24.c: 63:     TRISD3 = 0;
  7102  05F5  1188               	bcf	8,3	;volatile
  7103                           
  7104                           ;F:/GitHub/Graduation-Project/Lib-test/Embedded-shs/libs/rf24.c: 64:     RD2 = 0;
  7105  05F6  1283               	bcf	3,5	;RP0=0, select bank0
  7106  05F7  1303               	bcf	3,6	;RP1=0, select bank0
  7107  05F8  1108               	bcf	8,2	;volatile
  7108                           
  7109                           ;F:/GitHub/Graduation-Project/Lib-test/Embedded-shs/libs/rf24.c: 65:     RD3 = 1;
  7110  05F9  1588               	bsf	8,3	;volatile
  7111  05FA                     l3231:
  7112                           
  7113                           ;F:/GitHub/Graduation-Project/Lib-test/Embedded-shs/libs/rf24.c: 66:     _delay((unsigne
      +                          d long)((100)*(16000000/4000.0)));
  7114  05FA  3003               	movlw	3
  7115  05FB  1283               	bcf	3,5	;RP0=0, select bank0
  7116  05FC  1303               	bcf	3,6	;RP1=0, select bank0
  7117  05FD  00A5               	movwf	??_RF24_begin+2
  7118  05FE  3008               	movlw	8
  7119  05FF  00A4               	movwf	??_RF24_begin+1
  7120  0600  3076               	movlw	118
  7121  0601  00A3               	movwf	??_RF24_begin
  7122  0602                     u2497:
  7123  0602  0BA3               	decfsz	??_RF24_begin,f
  7124  0603  2E02               	goto	u2497
  7125  0604  0BA4               	decfsz	??_RF24_begin+1,f
  7126  0605  2E02               	goto	u2497
  7127  0606  0BA5               	decfsz	??_RF24_begin+2,f
  7128  0607  2E02               	goto	u2497
  7129  0608  0000               	nop
  7130                           
  7131                           ;F:/GitHub/Graduation-Project/Lib-test/Embedded-shs/libs/rf24.c: 76:     _delay((unsigne
      +                          d long)((5)*(16000000/4000.0)));
  7132  0609  301A               	movlw	26
  7133  060A  1283               	bcf	3,5	;RP0=0, select bank0
  7134  060B  1303               	bcf	3,6	;RP1=0, select bank0
  7135  060C  00A4               	movwf	??_RF24_begin+1
  7136  060D  30F7               	movlw	247
  7137  060E  00A3               	movwf	??_RF24_begin
  7138  060F                     u2507:
  7139  060F  0BA3               	decfsz	??_RF24_begin,f
  7140  0610  2E0F               	goto	u2507
  7141  0611  0BA4               	decfsz	??_RF24_begin+1,f
  7142  0612  2E0F               	goto	u2507
  7143  0613  2E14               	nop2
  7144  0614                     l3233:
  7145                           
  7146                           ;F:/GitHub/Graduation-Project/Lib-test/Embedded-shs/libs/rf24.c: 80:     RF24_setRetries
      +                          (5, 15);
  7147  0614  300F               	movlw	15
  7148  0615  1283               	bcf	3,5	;RP0=0, select bank0
  7149  0616  1303               	bcf	3,6	;RP1=0, select bank0
  7150  0617  00A3               	movwf	??_RF24_begin
  7151  0618  0823               	movf	??_RF24_begin,w
  7152  0619  00F9               	movwf	RF24_setRetries@count
  7153  061A  3005               	movlw	5
  7154  061B  120A  158A  2326  120A  118A  	fcall	_RF24_setRetries
  7155  0620                     l3235:
  7156                           
  7157                           ;F:/GitHub/Graduation-Project/Lib-test/Embedded-shs/libs/rf24.c: 85:     RF24_setPALevel
      +                          (RF24_PA_MAX);
  7158  0620  3003               	movlw	3
  7159  0621  120A  158A  2545  120A  118A  	fcall	_RF24_setPALevel
  7160  0626                     l3237:
  7161                           
  7162                           ;F:/GitHub/Graduation-Project/Lib-test/Embedded-shs/libs/rf24.c: 86:     RF24_setDataRat
      +                          e(RF24_1MBPS);
  7163  0626  3000               	movlw	0
  7164  0627  120A  158A  24BF  120A  118A  	fcall	_RF24_setDataRate
  7165  062C                     l3239:
  7166                           
  7167                           ;F:/GitHub/Graduation-Project/Lib-test/Embedded-shs/libs/rf24.c: 89:     RF24_write_regi
      +                          ster(0x1D, 0);
  7168  062C  01F6               	clrf	RF24_write_register@value
  7169  062D  301D               	movlw	29
  7170  062E  120A  158A  22D7  120A  118A  	fcall	_RF24_write_register
  7171  0633                     l3241:
  7172                           
  7173                           ;F:/GitHub/Graduation-Project/Lib-test/Embedded-shs/libs/rf24.c: 90:     RF24_write_regi
      +                          ster(0x1C, 0);
  7174  0633  01F6               	clrf	RF24_write_register@value
  7175  0634  301C               	movlw	28
  7176  0635  120A  158A  22D7  120A  118A  	fcall	_RF24_write_register
  7177  063A                     l3243:
  7178                           
  7179                           ;F:/GitHub/Graduation-Project/Lib-test/Embedded-shs/libs/rf24.c: 91:     RF24_write_regi
      +                          ster(0x01, 0x3F);
  7180  063A  303F               	movlw	63
  7181  063B  1283               	bcf	3,5	;RP0=0, select bank0
  7182  063C  1303               	bcf	3,6	;RP1=0, select bank0
  7183  063D  00A3               	movwf	??_RF24_begin
  7184  063E  0823               	movf	??_RF24_begin,w
  7185  063F  00F6               	movwf	RF24_write_register@value
  7186  0640  3001               	movlw	1
  7187  0641  120A  158A  22D7  120A  118A  	fcall	_RF24_write_register
  7188  0646                     l3245:
  7189                           
  7190                           ;F:/GitHub/Graduation-Project/Lib-test/Embedded-shs/libs/rf24.c: 92:     RF24_write_regi
      +                          ster(0x02, 3);
  7191  0646  3003               	movlw	3
  7192  0647  1283               	bcf	3,5	;RP0=0, select bank0
  7193  0648  1303               	bcf	3,6	;RP1=0, select bank0
  7194  0649  00A3               	movwf	??_RF24_begin
  7195  064A  0823               	movf	??_RF24_begin,w
  7196  064B  00F6               	movwf	RF24_write_register@value
  7197  064C  3002               	movlw	2
  7198  064D  120A  158A  22D7  120A  118A  	fcall	_RF24_write_register
  7199  0652                     l3247:
  7200                           
  7201                           ;F:/GitHub/Graduation-Project/Lib-test/Embedded-shs/libs/rf24.c: 93:     RF24_setPayload
      +                          Size(32);
  7202  0652  3020               	movlw	32
  7203  0653  120A  158A  2680  120A  118A  	fcall	_RF24_setPayloadSize
  7204  0658                     l3249:
  7205                           
  7206                           ;F:/GitHub/Graduation-Project/Lib-test/Embedded-shs/libs/rf24.c: 94:     RF24_setAddress
      +                          Width(5);
  7207  0658  3005               	movlw	5
  7208  0659  120A  158A  221E  120A  118A  	fcall	_RF24_setAddressWidth
  7209  065E                     l3251:
  7210                           
  7211                           ;F:/GitHub/Graduation-Project/Lib-test/Embedded-shs/libs/rf24.c: 99:     RF24_setChannel
      +                          (76);
  7212  065E  304C               	movlw	76
  7213  065F  120A  158A  2206  120A  118A  	fcall	_RF24_setChannel
  7214  0664                     l3253:
  7215                           
  7216                           ;F:/GitHub/Graduation-Project/Lib-test/Embedded-shs/libs/rf24.c: 103:     RF24_write_reg
      +                          ister(0x07, (1 << (6)) | (1 << (5)) | (1 << (4)));
  7217  0664  3070               	movlw	112
  7218  0665  1283               	bcf	3,5	;RP0=0, select bank0
  7219  0666  1303               	bcf	3,6	;RP1=0, select bank0
  7220  0667  00A3               	movwf	??_RF24_begin
  7221  0668  0823               	movf	??_RF24_begin,w
  7222  0669  00F6               	movwf	RF24_write_register@value
  7223  066A  3007               	movlw	7
  7224  066B  120A  158A  22D7  120A  118A  	fcall	_RF24_write_register
  7225  0670                     l3255:
  7226                           
  7227                           ;F:/GitHub/Graduation-Project/Lib-test/Embedded-shs/libs/rf24.c: 106:     RF24_flush_rx(
      +                          );
  7228  0670  120A  158A  21D8  120A  118A  	fcall	_RF24_flush_rx
  7229  0675                     l3257:
  7230                           
  7231                           ;F:/GitHub/Graduation-Project/Lib-test/Embedded-shs/libs/rf24.c: 107:     RF24_flush_tx(
      +                          );
  7232  0675  120A  158A  21E3  120A  118A  	fcall	_RF24_flush_tx
  7233  067A                     l3259:
  7234                           
  7235                           ;F:/GitHub/Graduation-Project/Lib-test/Embedded-shs/libs/rf24.c: 116:     RF24_write_reg
      +                          ister(0x00, ((1 << (3)) | (1 << (2))));
  7236  067A  300C               	movlw	12
  7237  067B  1283               	bcf	3,5	;RP0=0, select bank0
  7238  067C  1303               	bcf	3,6	;RP1=0, select bank0
  7239  067D  00A3               	movwf	??_RF24_begin
  7240  067E  0823               	movf	??_RF24_begin,w
  7241  067F  00F6               	movwf	RF24_write_register@value
  7242  0680  3000               	movlw	0
  7243  0681  120A  158A  22D7  120A  118A  	fcall	_RF24_write_register
  7244  0686                     l3261:
  7245                           
  7246                           ;F:/GitHub/Graduation-Project/Lib-test/Embedded-shs/libs/rf24.c: 117:     RF24_powerUp()
      +                          ;
  7247  0686  120A  158A  22F1  120A  118A  	fcall	_RF24_powerUp
  7248  068B                     l3263:
  7249                           
  7250                           ;F:/GitHub/Graduation-Project/Lib-test/Embedded-shs/libs/rf24.c: 118:     RF24_attr_conf
      +                          ig = RF24_read_register(0x00);
  7251  068B  3000               	movlw	0
  7252  068C  120A  158A  2342  120A  118A  	fcall	_RF24_read_register
  7253  0691  1283               	bcf	3,5	;RP0=0, select bank0
  7254  0692  1303               	bcf	3,6	;RP1=0, select bank0
  7255  0693  00A3               	movwf	??_RF24_begin
  7256  0694  0823               	movf	??_RF24_begin,w
  7257  0695  00FB               	movwf	_RF24_attr_config
  7258  0696                     l385:
  7259  0696  0008               	return
  7260  0697                     __end_of_RF24_begin:
  7261                           
  7262                           	psect	text44
  7263  0B26                     __ptext44:	
  7264 ;; *************** function _RF24_setRetries *****************
  7265 ;; Defined at:
  7266 ;;		line 462 in file "F:/GitHub/Graduation-Project/Lib-test/Embedded-shs/libs/rf24.c"
  7267 ;; Parameters:    Size  Location     Type
  7268 ;;  delay           1    wreg     unsigned char 
  7269 ;;  count           1    9[COMMON] unsigned char 
  7270 ;; Auto vars:     Size  Location     Type
  7271 ;;  delay           1   10[COMMON] unsigned char 
  7272 ;; Return value:  Size  Location     Type
  7273 ;;                  1    wreg      void 
  7274 ;; Registers used:
  7275 ;;		wreg, status,2, status,0, pclath, cstack
  7276 ;; Tracked objects:
  7277 ;;		On entry : 0/0
  7278 ;;		On exit  : 0/0
  7279 ;;		Unchanged: 0/0
  7280 ;; Data sizes:     COMMON   BANK0   BANK1   BANK3   BANK2
  7281 ;;      Params:         1       0       0       0       0
  7282 ;;      Locals:         1       0       0       0       0
  7283 ;;      Temps:          0       3       0       0       0
  7284 ;;      Totals:         2       3       0       0       0
  7285 ;;Total ram usage:        5 bytes
  7286 ;; Hardware stack levels used: 1
  7287 ;; Hardware stack levels required when called: 4
  7288 ;; This function calls:
  7289 ;;		_RF24_write_register
  7290 ;; This function is called by:
  7291 ;;		_RF24_begin
  7292 ;; This function uses a non-reentrant model
  7293 ;;
  7294                           
  7295  0B26                     _RF24_setRetries:	
  7296                           ;psect for function _RF24_setRetries
  7297                           
  7298                           
  7299                           ;incstack = 0
  7300                           ; Regs used in _RF24_setRetries: [wreg+status,2+status,0+pclath+cstack]
  7301                           ;RF24_setRetries@delay stored from wreg
  7302  0B26  00FA               	movwf	RF24_setRetries@delay
  7303  0B27                     l3145:
  7304                           
  7305                           ;F:/GitHub/Graduation-Project/Lib-test/Embedded-shs/libs/rf24.c: 462: void RF24_setRetri
      +                          es(uint8_t delay, uint8_t count);F:/GitHub/Graduation-Project/Lib-test/Embedded-shs/libs
      +                          /rf24.c: 463: {;F:/GitHub/Graduation-Project/Lib-test/Embedded-shs/libs/rf24.c: 464:    
      +                           RF24_write_register(0x04, ((delay & 0x0f) << 4) | (count & 0x0f));
  7306  0B27  300F               	movlw	15
  7307  0B28  0579               	andwf	RF24_setRetries@count,w
  7308  0B29  1283               	bcf	3,5	;RP0=0, select bank0
  7309  0B2A  1303               	bcf	3,6	;RP1=0, select bank0
  7310  0B2B  00A0               	movwf	??_RF24_setRetries
  7311  0B2C  087A               	movf	RF24_setRetries@delay,w
  7312  0B2D  390F               	andlw	15
  7313  0B2E  00A1               	movwf	??_RF24_setRetries+1
  7314  0B2F  3003               	movlw	3
  7315  0B30                     u2315:
  7316  0B30  1003               	clrc
  7317  0B31  0DA1               	rlf	??_RF24_setRetries+1,f
  7318  0B32  3EFF               	addlw	-1
  7319  0B33  1D03               	skipz
  7320  0B34  2B30               	goto	u2315
  7321  0B35  1003               	clrc
  7322  0B36  0D21               	rlf	??_RF24_setRetries+1,w
  7323  0B37  0420               	iorwf	??_RF24_setRetries,w
  7324  0B38  00A2               	movwf	??_RF24_setRetries+2
  7325  0B39  0822               	movf	??_RF24_setRetries+2,w
  7326  0B3A  00F6               	movwf	RF24_write_register@value
  7327  0B3B  3004               	movlw	4
  7328  0B3C  120A  158A  22D7  120A  158A  	fcall	_RF24_write_register
  7329  0B41                     l522:
  7330  0B41  0008               	return
  7331  0B42                     __end_of_RF24_setRetries:
  7332                           
  7333                           	psect	text45
  7334  0E80                     __ptext45:	
  7335 ;; *************** function _RF24_setPayloadSize *****************
  7336 ;; Defined at:
  7337 ;;		line 177 in file "F:/GitHub/Graduation-Project/Lib-test/Embedded-shs/libs/rf24.c"
  7338 ;; Parameters:    Size  Location     Type
  7339 ;;  size            1    wreg     unsigned char 
  7340 ;; Auto vars:     Size  Location     Type
  7341 ;;  size            1   10[COMMON] unsigned char 
  7342 ;; Return value:  Size  Location     Type
  7343 ;;                  1    wreg      void 
  7344 ;; Registers used:
  7345 ;;		wreg, status,2, status,0, pclath, cstack
  7346 ;; Tracked objects:
  7347 ;;		On entry : 0/0
  7348 ;;		On exit  : 0/0
  7349 ;;		Unchanged: 0/0
  7350 ;; Data sizes:     COMMON   BANK0   BANK1   BANK3   BANK2
  7351 ;;      Params:         0       0       0       0       0
  7352 ;;      Locals:         1       0       0       0       0
  7353 ;;      Temps:          1       0       0       0       0
  7354 ;;      Totals:         2       0       0       0       0
  7355 ;;Total ram usage:        2 bytes
  7356 ;; Hardware stack levels used: 1
  7357 ;; Hardware stack levels required when called: 4
  7358 ;; This function calls:
  7359 ;;		_RF24_write_register
  7360 ;; This function is called by:
  7361 ;;		_Network_begin
  7362 ;;		_RF24_begin
  7363 ;; This function uses a non-reentrant model
  7364 ;;
  7365                           
  7366  0E80                     _RF24_setPayloadSize:	
  7367                           ;psect for function _RF24_setPayloadSize
  7368                           
  7369                           
  7370                           ;incstack = 0
  7371                           ; Regs used in _RF24_setPayloadSize: [wreg+status,2+status,0+pclath+cstack]
  7372                           ;RF24_setPayloadSize@size stored from wreg
  7373  0E80  00FA               	movwf	RF24_setPayloadSize@size
  7374  0E81                     l3133:
  7375                           
  7376                           ;F:/GitHub/Graduation-Project/Lib-test/Embedded-shs/libs/rf24.c: 177: void RF24_setPaylo
      +                          adSize(uint8_t size);F:/GitHub/Graduation-Project/Lib-test/Embedded-shs/libs/rf24.c: 178
      +                          : {;F:/GitHub/Graduation-Project/Lib-test/Embedded-shs/libs/rf24.c: 179:     RF24_write_
      +                          register(0x11, size);
  7377  0E81  087A               	movf	RF24_setPayloadSize@size,w
  7378  0E82  00F9               	movwf	??_RF24_setPayloadSize
  7379  0E83  0879               	movf	??_RF24_setPayloadSize,w
  7380  0E84  00F6               	movwf	RF24_write_register@value
  7381  0E85  3011               	movlw	17
  7382  0E86  120A  158A  22D7  120A  158A  	fcall	_RF24_write_register
  7383                           
  7384                           ;F:/GitHub/Graduation-Project/Lib-test/Embedded-shs/libs/rf24.c: 180:     RF24_write_reg
      +                          ister(0x12, size);
  7385  0E8B  087A               	movf	RF24_setPayloadSize@size,w
  7386  0E8C  00F9               	movwf	??_RF24_setPayloadSize
  7387  0E8D  0879               	movf	??_RF24_setPayloadSize,w
  7388  0E8E  00F6               	movwf	RF24_write_register@value
  7389  0E8F  3012               	movlw	18
  7390  0E90  120A  158A  22D7  120A  158A  	fcall	_RF24_write_register
  7391                           
  7392                           ;F:/GitHub/Graduation-Project/Lib-test/Embedded-shs/libs/rf24.c: 181:     RF24_write_reg
      +                          ister(0x13, size);
  7393  0E95  087A               	movf	RF24_setPayloadSize@size,w
  7394  0E96  00F9               	movwf	??_RF24_setPayloadSize
  7395  0E97  0879               	movf	??_RF24_setPayloadSize,w
  7396  0E98  00F6               	movwf	RF24_write_register@value
  7397  0E99  3013               	movlw	19
  7398  0E9A  120A  158A  22D7  120A  158A  	fcall	_RF24_write_register
  7399                           
  7400                           ;F:/GitHub/Graduation-Project/Lib-test/Embedded-shs/libs/rf24.c: 182:     RF24_write_reg
      +                          ister(0x14, size);
  7401  0E9F  087A               	movf	RF24_setPayloadSize@size,w
  7402  0EA0  00F9               	movwf	??_RF24_setPayloadSize
  7403  0EA1  0879               	movf	??_RF24_setPayloadSize,w
  7404  0EA2  00F6               	movwf	RF24_write_register@value
  7405  0EA3  3014               	movlw	20
  7406  0EA4  120A  158A  22D7  120A  158A  	fcall	_RF24_write_register
  7407                           
  7408                           ;F:/GitHub/Graduation-Project/Lib-test/Embedded-shs/libs/rf24.c: 183:     RF24_write_reg
      +                          ister(0x15, size);
  7409  0EA9  087A               	movf	RF24_setPayloadSize@size,w
  7410  0EAA  00F9               	movwf	??_RF24_setPayloadSize
  7411  0EAB  0879               	movf	??_RF24_setPayloadSize,w
  7412  0EAC  00F6               	movwf	RF24_write_register@value
  7413  0EAD  3015               	movlw	21
  7414  0EAE  120A  158A  22D7  120A  158A  	fcall	_RF24_write_register
  7415                           
  7416                           ;F:/GitHub/Graduation-Project/Lib-test/Embedded-shs/libs/rf24.c: 184:     RF24_write_reg
      +                          ister(0x16, size);
  7417  0EB3  087A               	movf	RF24_setPayloadSize@size,w
  7418  0EB4  00F9               	movwf	??_RF24_setPayloadSize
  7419  0EB5  0879               	movf	??_RF24_setPayloadSize,w
  7420  0EB6  00F6               	movwf	RF24_write_register@value
  7421  0EB7  3016               	movlw	22
  7422  0EB8  120A  158A  22D7  120A  158A  	fcall	_RF24_write_register
  7423  0EBD                     l411:
  7424  0EBD  0008               	return
  7425  0EBE                     __end_of_RF24_setPayloadSize:
  7426                           
  7427                           	psect	text46
  7428  0D45                     __ptext46:	
  7429 ;; *************** function _RF24_setPALevel *****************
  7430 ;; Defined at:
  7431 ;;		line 122 in file "F:/GitHub/Graduation-Project/Lib-test/Embedded-shs/libs/rf24.c"
  7432 ;; Parameters:    Size  Location     Type
  7433 ;;  level           1    wreg     unsigned char 
  7434 ;; Auto vars:     Size  Location     Type
  7435 ;;  level           1    2[BANK0 ] unsigned char 
  7436 ;;  setup           1    0[BANK0 ] unsigned char 
  7437 ;; Return value:  Size  Location     Type
  7438 ;;                  1    wreg      void 
  7439 ;; Registers used:
  7440 ;;		wreg, status,2, status,0, pclath, cstack
  7441 ;; Tracked objects:
  7442 ;;		On entry : 0/0
  7443 ;;		On exit  : 0/0
  7444 ;;		Unchanged: 0/0
  7445 ;; Data sizes:     COMMON   BANK0   BANK1   BANK3   BANK2
  7446 ;;      Params:         0       0       0       0       0
  7447 ;;      Locals:         0       3       0       0       0
  7448 ;;      Temps:          2       0       0       0       0
  7449 ;;      Totals:         2       3       0       0       0
  7450 ;;Total ram usage:        5 bytes
  7451 ;; Hardware stack levels used: 1
  7452 ;; Hardware stack levels required when called: 4
  7453 ;; This function calls:
  7454 ;;		_RF24_read_register
  7455 ;;		_RF24_write_register
  7456 ;; This function is called by:
  7457 ;;		_RF24_begin
  7458 ;; This function uses a non-reentrant model
  7459 ;;
  7460                           
  7461  0D45                     _RF24_setPALevel:	
  7462                           ;psect for function _RF24_setPALevel
  7463                           
  7464                           
  7465                           ;incstack = 0
  7466                           ; Regs used in _RF24_setPALevel: [wreg+status,2+status,0+pclath+cstack]
  7467                           ;RF24_setPALevel@level stored from wreg
  7468  0D45  1283               	bcf	3,5	;RP0=0, select bank0
  7469  0D46  1303               	bcf	3,6	;RP1=0, select bank0
  7470  0D47  00A2               	movwf	RF24_setPALevel@level
  7471  0D48                     l3147:
  7472                           
  7473                           ;F:/GitHub/Graduation-Project/Lib-test/Embedded-shs/libs/rf24.c: 122: void RF24_setPALev
      +                          el(uint8_t level);F:/GitHub/Graduation-Project/Lib-test/Embedded-shs/libs/rf24.c: 123: {
      +                          ;F:/GitHub/Graduation-Project/Lib-test/Embedded-shs/libs/rf24.c: 124:     uint8_t setup 
      +                          = RF24_read_register(0x06) & 0xF8;
  7474  0D48  3006               	movlw	6
  7475  0D49  120A  158A  2342  120A  158A  	fcall	_RF24_read_register
  7476  0D4E  39F8               	andlw	248
  7477  0D4F  00F9               	movwf	??_RF24_setPALevel
  7478  0D50  0879               	movf	??_RF24_setPALevel,w
  7479  0D51  1283               	bcf	3,5	;RP0=0, select bank0
  7480  0D52  1303               	bcf	3,6	;RP1=0, select bank0
  7481  0D53  00A0               	movwf	RF24_setPALevel@setup
  7482  0D54                     l3149:
  7483                           
  7484                           ;F:/GitHub/Graduation-Project/Lib-test/Embedded-shs/libs/rf24.c: 125:     setup |= (leve
      +                          l > RF24_PA_MAX ? RF24_PA_MAX : level) << 1;
  7485  0D54  3004               	movlw	4
  7486  0D55  0222               	subwf	RF24_setPALevel@level,w
  7487  0D56  1803               	skipnc
  7488  0D57  2D59               	goto	u2321
  7489  0D58  2D5A               	goto	u2320
  7490  0D59                     u2321:
  7491  0D59  2D5F               	goto	l3153
  7492  0D5A                     u2320:
  7493  0D5A                     l3151:
  7494  0D5A  0822               	movf	RF24_setPALevel@level,w
  7495  0D5B  00F9               	movwf	??_RF24_setPALevel
  7496  0D5C  0879               	movf	??_RF24_setPALevel,w
  7497  0D5D  00A1               	movwf	_RF24_setPALevel$675
  7498  0D5E  2D63               	goto	l3155
  7499  0D5F                     l3153:
  7500  0D5F  3003               	movlw	3
  7501  0D60  00F9               	movwf	??_RF24_setPALevel
  7502  0D61  0879               	movf	??_RF24_setPALevel,w
  7503  0D62  00A1               	movwf	_RF24_setPALevel$675
  7504  0D63                     l3155:
  7505  0D63  0821               	movf	_RF24_setPALevel$675,w
  7506  0D64  00F9               	movwf	??_RF24_setPALevel
  7507  0D65  0779               	addwf	??_RF24_setPALevel,w
  7508  0D66  00FA               	movwf	??_RF24_setPALevel+1
  7509  0D67  087A               	movf	??_RF24_setPALevel+1,w
  7510  0D68  04A0               	iorwf	RF24_setPALevel@setup,f
  7511  0D69                     l3157:
  7512                           
  7513                           ;F:/GitHub/Graduation-Project/Lib-test/Embedded-shs/libs/rf24.c: 126:     RF24_write_reg
      +                          ister(0x06, setup);
  7514  0D69  0820               	movf	RF24_setPALevel@setup,w
  7515  0D6A  00F9               	movwf	??_RF24_setPALevel
  7516  0D6B  0879               	movf	??_RF24_setPALevel,w
  7517  0D6C  00F6               	movwf	RF24_write_register@value
  7518  0D6D  3006               	movlw	6
  7519  0D6E  120A  158A  22D7  120A  158A  	fcall	_RF24_write_register
  7520  0D73                     l392:
  7521  0D73  0008               	return
  7522  0D74                     __end_of_RF24_setPALevel:
  7523                           
  7524                           	psect	text47
  7525  0CBF                     __ptext47:	
  7526 ;; *************** function _RF24_setDataRate *****************
  7527 ;; Defined at:
  7528 ;;		line 363 in file "F:/GitHub/Graduation-Project/Lib-test/Embedded-shs/libs/rf24.c"
  7529 ;; Parameters:    Size  Location     Type
  7530 ;;  speed           1    wreg     enum E899
  7531 ;; Auto vars:     Size  Location     Type
  7532 ;;  speed           1    0[BANK0 ] enum E899
  7533 ;;  setup           1    1[BANK0 ] unsigned char 
  7534 ;; Return value:  Size  Location     Type
  7535 ;;                  1    wreg      void 
  7536 ;; Registers used:
  7537 ;;		wreg, status,2, status,0, pclath, cstack
  7538 ;; Tracked objects:
  7539 ;;		On entry : 0/0
  7540 ;;		On exit  : 0/0
  7541 ;;		Unchanged: 0/0
  7542 ;; Data sizes:     COMMON   BANK0   BANK1   BANK3   BANK2
  7543 ;;      Params:         0       0       0       0       0
  7544 ;;      Locals:         0       2       0       0       0
  7545 ;;      Temps:          1       0       0       0       0
  7546 ;;      Totals:         1       2       0       0       0
  7547 ;;Total ram usage:        3 bytes
  7548 ;; Hardware stack levels used: 1
  7549 ;; Hardware stack levels required when called: 4
  7550 ;; This function calls:
  7551 ;;		_RF24_read_register
  7552 ;;		_RF24_write_register
  7553 ;; This function is called by:
  7554 ;;		_Network_begin
  7555 ;;		_RF24_begin
  7556 ;; This function uses a non-reentrant model
  7557 ;;
  7558                           
  7559  0CBF                     _RF24_setDataRate:	
  7560                           ;psect for function _RF24_setDataRate
  7561                           
  7562                           
  7563                           ;incstack = 0
  7564                           ; Regs used in _RF24_setDataRate: [wreg+status,2+status,0+pclath+cstack]
  7565                           ;RF24_setDataRate@speed stored from wreg
  7566  0CBF  1283               	bcf	3,5	;RP0=0, select bank0
  7567  0CC0  1303               	bcf	3,6	;RP1=0, select bank0
  7568  0CC1  00A0               	movwf	RF24_setDataRate@speed
  7569  0CC2                     l3119:
  7570                           
  7571                           ;F:/GitHub/Graduation-Project/Lib-test/Embedded-shs/libs/rf24.c: 363: void RF24_setDataR
      +                          ate(rf24_datarate_e speed);F:/GitHub/Graduation-Project/Lib-test/Embedded-shs/libs/rf24.
      +                          c: 364: {;F:/GitHub/Graduation-Project/Lib-test/Embedded-shs/libs/rf24.c: 365:     uint8
      +                          _t setup = RF24_read_register(0x06);
  7572  0CC2  3006               	movlw	6
  7573  0CC3  120A  158A  2342  120A  158A  	fcall	_RF24_read_register
  7574  0CC8  00F9               	movwf	??_RF24_setDataRate
  7575  0CC9  0879               	movf	??_RF24_setDataRate,w
  7576  0CCA  1283               	bcf	3,5	;RP0=0, select bank0
  7577  0CCB  1303               	bcf	3,6	;RP1=0, select bank0
  7578  0CCC  00A1               	movwf	RF24_setDataRate@setup
  7579  0CCD                     l3121:
  7580                           
  7581                           ;F:/GitHub/Graduation-Project/Lib-test/Embedded-shs/libs/rf24.c: 367:     setup = setup 
      +                          & ~((1 << (5)) | (1 << (3)));
  7582  0CCD  0821               	movf	RF24_setDataRate@setup,w
  7583  0CCE  39D7               	andlw	215
  7584  0CCF  00F9               	movwf	??_RF24_setDataRate
  7585  0CD0  0879               	movf	??_RF24_setDataRate,w
  7586  0CD1  00A1               	movwf	RF24_setDataRate@setup
  7587  0CD2                     l3123:
  7588                           
  7589                           ;F:/GitHub/Graduation-Project/Lib-test/Embedded-shs/libs/rf24.c: 368:     if (speed == R
      +                          F24_250KBPS)
  7590  0CD2  3002               	movlw	2
  7591  0CD3  0620               	xorwf	RF24_setDataRate@speed,w
  7592  0CD4  1D03               	btfss	3,2
  7593  0CD5  2CD7               	goto	u2281
  7594  0CD6  2CD8               	goto	u2280
  7595  0CD7                     u2281:
  7596  0CD7  2CDA               	goto	l3127
  7597  0CD8                     u2280:
  7598  0CD8                     l3125:
  7599                           
  7600                           ;F:/GitHub/Graduation-Project/Lib-test/Embedded-shs/libs/rf24.c: 369:     {;F:/GitHub/Gr
      +                          aduation-Project/Lib-test/Embedded-shs/libs/rf24.c: 370:         setup |= (1 << (5));
  7601  0CD8  16A1               	bsf	RF24_setDataRate@setup,5
  7602                           
  7603                           ;F:/GitHub/Graduation-Project/Lib-test/Embedded-shs/libs/rf24.c: 371:     }
  7604  0CD9  2CE0               	goto	l3131
  7605  0CDA                     l3127:
  7606  0CDA  0320               	decf	RF24_setDataRate@speed,w
  7607  0CDB  1D03               	btfss	3,2
  7608  0CDC  2CDE               	goto	u2291
  7609  0CDD  2CDF               	goto	u2290
  7610  0CDE                     u2291:
  7611  0CDE  2CE0               	goto	l3131
  7612  0CDF                     u2290:
  7613  0CDF                     l3129:
  7614                           
  7615                           ;F:/GitHub/Graduation-Project/Lib-test/Embedded-shs/libs/rf24.c: 373:     {;F:/GitHub/Gr
      +                          aduation-Project/Lib-test/Embedded-shs/libs/rf24.c: 374:         setup |= (1 << (3));
  7616  0CDF  15A1               	bsf	RF24_setDataRate@setup,3
  7617  0CE0                     l3131:
  7618                           
  7619                           ;F:/GitHub/Graduation-Project/Lib-test/Embedded-shs/libs/rf24.c: 376:     RF24_write_reg
      +                          ister(0x06, setup);
  7620  0CE0  0821               	movf	RF24_setDataRate@setup,w
  7621  0CE1  00F9               	movwf	??_RF24_setDataRate
  7622  0CE2  0879               	movf	??_RF24_setDataRate,w
  7623  0CE3  00F6               	movwf	RF24_write_register@value
  7624  0CE4  3006               	movlw	6
  7625  0CE5  120A  158A  22D7  120A  158A  	fcall	_RF24_write_register
  7626  0CEA                     l478:
  7627  0CEA  0008               	return
  7628  0CEB                     __end_of_RF24_setDataRate:
  7629                           
  7630                           	psect	text48
  7631  0A06                     __ptext48:	
  7632 ;; *************** function _RF24_setChannel *****************
  7633 ;; Defined at:
  7634 ;;		line 442 in file "F:/GitHub/Graduation-Project/Lib-test/Embedded-shs/libs/rf24.c"
  7635 ;; Parameters:    Size  Location     Type
  7636 ;;  channel         1    wreg     unsigned char 
  7637 ;; Auto vars:     Size  Location     Type
  7638 ;;  channel         1   10[COMMON] unsigned char 
  7639 ;; Return value:  Size  Location     Type
  7640 ;;                  1    wreg      void 
  7641 ;; Registers used:
  7642 ;;		wreg, status,2, status,0, pclath, cstack
  7643 ;; Tracked objects:
  7644 ;;		On entry : 0/0
  7645 ;;		On exit  : 0/0
  7646 ;;		Unchanged: 0/0
  7647 ;; Data sizes:     COMMON   BANK0   BANK1   BANK3   BANK2
  7648 ;;      Params:         0       0       0       0       0
  7649 ;;      Locals:         1       0       0       0       0
  7650 ;;      Temps:          1       0       0       0       0
  7651 ;;      Totals:         2       0       0       0       0
  7652 ;;Total ram usage:        2 bytes
  7653 ;; Hardware stack levels used: 1
  7654 ;; Hardware stack levels required when called: 4
  7655 ;; This function calls:
  7656 ;;		_RF24_write_register
  7657 ;; This function is called by:
  7658 ;;		_internet_setChannel
  7659 ;;		_RF24_begin
  7660 ;; This function uses a non-reentrant model
  7661 ;;
  7662                           
  7663  0A06                     _RF24_setChannel:	
  7664                           ;psect for function _RF24_setChannel
  7665                           
  7666                           
  7667                           ;incstack = 0
  7668                           ; Regs used in _RF24_setChannel: [wreg+status,2+status,0+pclath+cstack]
  7669                           ;RF24_setChannel@channel stored from wreg
  7670  0A06  00FA               	movwf	RF24_setChannel@channel
  7671  0A07                     l3053:
  7672                           
  7673                           ;F:/GitHub/Graduation-Project/Lib-test/Embedded-shs/libs/rf24.c: 442: void RF24_setChann
      +                          el(uint8_t channel);F:/GitHub/Graduation-Project/Lib-test/Embedded-shs/libs/rf24.c: 443:
      +                           {;F:/GitHub/Graduation-Project/Lib-test/Embedded-shs/libs/rf24.c: 444:     RF24_write_r
      +                          egister(0x05, channel);
  7674  0A07  087A               	movf	RF24_setChannel@channel,w
  7675  0A08  00F9               	movwf	??_RF24_setChannel
  7676  0A09  0879               	movf	??_RF24_setChannel,w
  7677  0A0A  00F6               	movwf	RF24_write_register@value
  7678  0A0B  3005               	movlw	5
  7679  0A0C  120A  158A  22D7  120A  158A  	fcall	_RF24_write_register
  7680  0A11                     l507:
  7681  0A11  0008               	return
  7682  0A12                     __end_of_RF24_setChannel:
  7683                           
  7684                           	psect	text49
  7685  0A1E                     __ptext49:	
  7686 ;; *************** function _RF24_setAddressWidth *****************
  7687 ;; Defined at:
  7688 ;;		line 466 in file "F:/GitHub/Graduation-Project/Lib-test/Embedded-shs/libs/rf24.c"
  7689 ;; Parameters:    Size  Location     Type
  7690 ;;  w               1    wreg     unsigned char 
  7691 ;; Auto vars:     Size  Location     Type
  7692 ;;  w               1   10[COMMON] unsigned char 
  7693 ;; Return value:  Size  Location     Type
  7694 ;;                  1    wreg      void 
  7695 ;; Registers used:
  7696 ;;		wreg, status,2, status,0, pclath, cstack
  7697 ;; Tracked objects:
  7698 ;;		On entry : 0/0
  7699 ;;		On exit  : 0/0
  7700 ;;		Unchanged: 0/0
  7701 ;; Data sizes:     COMMON   BANK0   BANK1   BANK3   BANK2
  7702 ;;      Params:         0       0       0       0       0
  7703 ;;      Locals:         1       0       0       0       0
  7704 ;;      Temps:          1       0       0       0       0
  7705 ;;      Totals:         2       0       0       0       0
  7706 ;;Total ram usage:        2 bytes
  7707 ;; Hardware stack levels used: 1
  7708 ;; Hardware stack levels required when called: 4
  7709 ;; This function calls:
  7710 ;;		_RF24_write_register
  7711 ;; This function is called by:
  7712 ;;		_Network_begin
  7713 ;;		_RF24_begin
  7714 ;; This function uses a non-reentrant model
  7715 ;;
  7716                           
  7717  0A1E                     _RF24_setAddressWidth:	
  7718                           ;psect for function _RF24_setAddressWidth
  7719                           
  7720                           
  7721                           ;incstack = 0
  7722                           ; Regs used in _RF24_setAddressWidth: [wreg+status,2+status,0+pclath+cstack]
  7723                           ;RF24_setAddressWidth@w stored from wreg
  7724  0A1E  00FA               	movwf	RF24_setAddressWidth@w
  7725  0A1F                     l3117:
  7726                           
  7727                           ;F:/GitHub/Graduation-Project/Lib-test/Embedded-shs/libs/rf24.c: 466: void RF24_setAddre
      +                          ssWidth(uint8_t w);F:/GitHub/Graduation-Project/Lib-test/Embedded-shs/libs/rf24.c: 467: 
      +                          {;F:/GitHub/Graduation-Project/Lib-test/Embedded-shs/libs/rf24.c: 468:     RF24_write_re
      +                          gister(0x03, (w - 2) & 0b11);
  7728  0A1F  087A               	movf	RF24_setAddressWidth@w,w
  7729  0A20  3EFE               	addlw	254
  7730  0A21  3903               	andlw	3
  7731  0A22  00F9               	movwf	??_RF24_setAddressWidth
  7732  0A23  0879               	movf	??_RF24_setAddressWidth,w
  7733  0A24  00F6               	movwf	RF24_write_register@value
  7734  0A25  3003               	movlw	3
  7735  0A26  120A  158A  22D7  120A  158A  	fcall	_RF24_write_register
  7736  0A2B                     l525:
  7737  0A2B  0008               	return
  7738  0A2C                     __end_of_RF24_setAddressWidth:
  7739                           
  7740                           	psect	text50
  7741  0AF1                     __ptext50:	
  7742 ;; *************** function _RF24_powerUp *****************
  7743 ;; Defined at:
  7744 ;;		line 171 in file "F:/GitHub/Graduation-Project/Lib-test/Embedded-shs/libs/rf24.c"
  7745 ;; Parameters:    Size  Location     Type
  7746 ;;		None
  7747 ;; Auto vars:     Size  Location     Type
  7748 ;;		None
  7749 ;; Return value:  Size  Location     Type
  7750 ;;                  1    wreg      void 
  7751 ;; Registers used:
  7752 ;;		wreg, status,2, status,0, pclath, cstack
  7753 ;; Tracked objects:
  7754 ;;		On entry : 0/0
  7755 ;;		On exit  : 0/0
  7756 ;;		Unchanged: 0/0
  7757 ;; Data sizes:     COMMON   BANK0   BANK1   BANK3   BANK2
  7758 ;;      Params:         0       0       0       0       0
  7759 ;;      Locals:         0       0       0       0       0
  7760 ;;      Temps:          2       0       0       0       0
  7761 ;;      Totals:         2       0       0       0       0
  7762 ;;Total ram usage:        2 bytes
  7763 ;; Hardware stack levels used: 1
  7764 ;; Hardware stack levels required when called: 4
  7765 ;; This function calls:
  7766 ;;		_RF24_read_register
  7767 ;;		_RF24_write_register
  7768 ;; This function is called by:
  7769 ;;		_RF24_begin
  7770 ;; This function uses a non-reentrant model
  7771 ;;
  7772                           
  7773  0AF1                     _RF24_powerUp:	
  7774                           ;psect for function _RF24_powerUp
  7775                           
  7776  0AF1                     l3161:	
  7777                           ;incstack = 0
  7778                           ; Regs used in _RF24_powerUp: [wreg+status,2+status,0+pclath+cstack]
  7779                           
  7780                           
  7781                           ;F:/GitHub/Graduation-Project/Lib-test/Embedded-shs/libs/rf24.c: 173:     RF24_write_reg
      +                          ister(0x00, RF24_read_register(0x00) | (1 << (1)));
  7782  0AF1  3000               	movlw	0
  7783  0AF2  120A  158A  2342  120A  158A  	fcall	_RF24_read_register
  7784  0AF7  3802               	iorlw	2
  7785  0AF8  00F9               	movwf	??_RF24_powerUp
  7786  0AF9  0879               	movf	??_RF24_powerUp,w
  7787  0AFA  00F6               	movwf	RF24_write_register@value
  7788  0AFB  3000               	movlw	0
  7789  0AFC  120A  158A  22D7  120A  158A  	fcall	_RF24_write_register
  7790  0B01                     l3163:
  7791                           
  7792                           ;F:/GitHub/Graduation-Project/Lib-test/Embedded-shs/libs/rf24.c: 174:     _delay((unsign
      +                          ed long)((5)*(16000000/4000.0)));
  7793  0B01  301A               	movlw	26
  7794  0B02  00FA               	movwf	??_RF24_powerUp+1
  7795  0B03  30F8               	movlw	248
  7796  0B04  00F9               	movwf	??_RF24_powerUp
  7797  0B05                     u2517:
  7798  0B05  0BF9               	decfsz	??_RF24_powerUp,f
  7799  0B06  2B05               	goto	u2517
  7800  0B07  0BFA               	decfsz	??_RF24_powerUp+1,f
  7801  0B08  2B05               	goto	u2517
  7802  0B09  0000               	nop
  7803  0B0A                     l408:
  7804  0B0A  0008               	return
  7805  0B0B                     __end_of_RF24_powerUp:
  7806                           
  7807                           	psect	text51
  7808  0B42                     __ptext51:	
  7809 ;; *************** function _RF24_read_register *****************
  7810 ;; Defined at:
  7811 ;;		line 18 in file "F:/GitHub/Graduation-Project/Lib-test/Embedded-shs/libs/rf24.c"
  7812 ;; Parameters:    Size  Location     Type
  7813 ;;  mnemonic_add    1    wreg     unsigned char 
  7814 ;; Auto vars:     Size  Location     Type
  7815 ;;  mnemonic_add    1    4[COMMON] unsigned char 
  7816 ;;  result          1    5[COMMON] unsigned char 
  7817 ;; Return value:  Size  Location     Type
  7818 ;;                  1    wreg      unsigned char 
  7819 ;; Registers used:
  7820 ;;		wreg, pclath, cstack
  7821 ;; Tracked objects:
  7822 ;;		On entry : 0/0
  7823 ;;		On exit  : 0/0
  7824 ;;		Unchanged: 0/0
  7825 ;; Data sizes:     COMMON   BANK0   BANK1   BANK3   BANK2
  7826 ;;      Params:         0       0       0       0       0
  7827 ;;      Locals:         2       0       0       0       0
  7828 ;;      Temps:          1       0       0       0       0
  7829 ;;      Totals:         3       0       0       0       0
  7830 ;;Total ram usage:        3 bytes
  7831 ;; Hardware stack levels used: 1
  7832 ;; Hardware stack levels required when called: 3
  7833 ;; This function calls:
  7834 ;;		_SPI_exchangeByte
  7835 ;; This function is called by:
  7836 ;;		_RF24_begin
  7837 ;;		_RF24_setPALevel
  7838 ;;		_RF24_startListening
  7839 ;;		_RF24_stopListening
  7840 ;;		_RF24_powerUp
  7841 ;;		_RF24_getDynamicPayloadSize
  7842 ;;		_RF24_openReadingPipe
  7843 ;;		_RF24_enableDynamicPayloads
  7844 ;;		_RF24_setDataRate
  7845 ;;		_RF24_getPALevel
  7846 ;; This function uses a non-reentrant model
  7847 ;;
  7848                           
  7849  0B42                     _RF24_read_register:	
  7850                           ;psect for function _RF24_read_register
  7851                           
  7852                           
  7853                           ;incstack = 0
  7854                           ; Regs used in _RF24_read_register: [wreg+pclath+cstack]
  7855                           ;RF24_read_register@mnemonic_addr stored from wreg
  7856  0B42  00F4               	movwf	RF24_read_register@mnemonic_addr
  7857  0B43                     l2927:
  7858                           
  7859                           ;F:/GitHub/Graduation-Project/Lib-test/Embedded-shs/libs/rf24.c: 18: uint8_t RF24_read_r
      +                          egister(uint8_t mnemonic_addr);F:/GitHub/Graduation-Project/Lib-test/Embedded-shs/libs/r
      +                          f24.c: 19: {;F:/GitHub/Graduation-Project/Lib-test/Embedded-shs/libs/rf24.c: 20:     RD3
      +                           = 0;
  7860  0B43  1283               	bcf	3,5	;RP0=0, select bank0
  7861  0B44  1303               	bcf	3,6	;RP1=0, select bank0
  7862  0B45  1188               	bcf	8,3	;volatile
  7863  0B46                     l2929:
  7864                           
  7865                           ;F:/GitHub/Graduation-Project/Lib-test/Embedded-shs/libs/rf24.c: 21:     uint8_t result;
      +                          ;F:/GitHub/Graduation-Project/Lib-test/Embedded-shs/libs/rf24.c: 22:     RF24_attr_statu
      +                          s = SPI_exchangeByte(0x00 | mnemonic_addr);
  7866  0B46  0874               	movf	RF24_read_register@mnemonic_addr,w
  7867  0B47  120A  158A  21FA  120A  158A  	fcall	_SPI_exchangeByte
  7868  0B4C  00F3               	movwf	??_RF24_read_register
  7869  0B4D  0873               	movf	??_RF24_read_register,w
  7870  0B4E  1283               	bcf	3,5	;RP0=0, select bank0
  7871  0B4F  1303               	bcf	3,6	;RP1=0, select bank0
  7872  0B50  00D5               	movwf	_RF24_attr_status
  7873                           
  7874                           ;F:/GitHub/Graduation-Project/Lib-test/Embedded-shs/libs/rf24.c: 23:     result = SPI_ex
      +                          changeByte(0xFF);
  7875  0B51  30FF               	movlw	255
  7876  0B52  120A  158A  21FA  120A  158A  	fcall	_SPI_exchangeByte
  7877  0B57  00F3               	movwf	??_RF24_read_register
  7878  0B58  0873               	movf	??_RF24_read_register,w
  7879  0B59  00F5               	movwf	RF24_read_register@result
  7880  0B5A                     l2931:
  7881                           
  7882                           ;F:/GitHub/Graduation-Project/Lib-test/Embedded-shs/libs/rf24.c: 24:     RD3 = 1;
  7883  0B5A  1283               	bcf	3,5	;RP0=0, select bank0
  7884  0B5B  1303               	bcf	3,6	;RP1=0, select bank0
  7885  0B5C  1588               	bsf	8,3	;volatile
  7886  0B5D                     l2933:
  7887                           
  7888                           ;F:/GitHub/Graduation-Project/Lib-test/Embedded-shs/libs/rf24.c: 26:     return result;
  7889  0B5D  0875               	movf	RF24_read_register@result,w
  7890  0B5E                     l370:
  7891  0B5E  0008               	return
  7892  0B5F                     __end_of_RF24_read_register:
  7893                           
  7894                           	psect	text52
  7895  09E3                     __ptext52:	
  7896 ;; *************** function _RF24_flush_tx *****************
  7897 ;; Defined at:
  7898 ;;		line 430 in file "F:/GitHub/Graduation-Project/Lib-test/Embedded-shs/libs/rf24.c"
  7899 ;; Parameters:    Size  Location     Type
  7900 ;;		None
  7901 ;; Auto vars:     Size  Location     Type
  7902 ;;		None
  7903 ;; Return value:  Size  Location     Type
  7904 ;;                  1    wreg      void 
  7905 ;; Registers used:
  7906 ;;		wreg, status,2, status,0, pclath, cstack
  7907 ;; Tracked objects:
  7908 ;;		On entry : 0/0
  7909 ;;		On exit  : 0/0
  7910 ;;		Unchanged: 0/0
  7911 ;; Data sizes:     COMMON   BANK0   BANK1   BANK3   BANK2
  7912 ;;      Params:         0       0       0       0       0
  7913 ;;      Locals:         0       0       0       0       0
  7914 ;;      Temps:          1       0       0       0       0
  7915 ;;      Totals:         1       0       0       0       0
  7916 ;;Total ram usage:        1 bytes
  7917 ;; Hardware stack levels used: 1
  7918 ;; Hardware stack levels required when called: 4
  7919 ;; This function calls:
  7920 ;;		_RF24_write_register
  7921 ;; This function is called by:
  7922 ;;		_RF24_begin
  7923 ;;		_RF24_write
  7924 ;; This function uses a non-reentrant model
  7925 ;;
  7926                           
  7927  09E3                     _RF24_flush_tx:	
  7928                           ;psect for function _RF24_flush_tx
  7929                           
  7930  09E3                     l2959:	
  7931                           ;incstack = 0
  7932 ;; hardware stack exceeded
  7933                           ; Regs used in _RF24_flush_tx: [wreg+status,2+status,0+pclath+cstack]
  7934                           
  7935                           
  7936                           ;F:/GitHub/Graduation-Project/Lib-test/Embedded-shs/libs/rf24.c: 432:     RF24_write_reg
      +                          ister(0xE1, 0xFF);
  7937  09E3  30FF               	movlw	255
  7938  09E4  00F9               	movwf	??_RF24_flush_tx
  7939  09E5  0879               	movf	??_RF24_flush_tx,w
  7940  09E6  00F6               	movwf	RF24_write_register@value
  7941  09E7  30E1               	movlw	225
  7942  09E8  120A  158A  22D7  120A  158A  	fcall	_RF24_write_register
  7943  09ED                     l498:
  7944  09ED  0008               	return
  7945  09EE                     __end_of_RF24_flush_tx:
  7946                           
  7947                           	psect	text53
  7948  09D8                     __ptext53:	
  7949 ;; *************** function _RF24_flush_rx *****************
  7950 ;; Defined at:
  7951 ;;		line 434 in file "F:/GitHub/Graduation-Project/Lib-test/Embedded-shs/libs/rf24.c"
  7952 ;; Parameters:    Size  Location     Type
  7953 ;;		None
  7954 ;; Auto vars:     Size  Location     Type
  7955 ;;		None
  7956 ;; Return value:  Size  Location     Type
  7957 ;;                  1    wreg      void 
  7958 ;; Registers used:
  7959 ;;		wreg, status,2, status,0, pclath, cstack
  7960 ;; Tracked objects:
  7961 ;;		On entry : 0/0
  7962 ;;		On exit  : 0/0
  7963 ;;		Unchanged: 0/0
  7964 ;; Data sizes:     COMMON   BANK0   BANK1   BANK3   BANK2
  7965 ;;      Params:         0       0       0       0       0
  7966 ;;      Locals:         0       0       0       0       0
  7967 ;;      Temps:          1       0       0       0       0
  7968 ;;      Totals:         1       0       0       0       0
  7969 ;;Total ram usage:        1 bytes
  7970 ;; Hardware stack levels used: 1
  7971 ;; Hardware stack levels required when called: 4
  7972 ;; This function calls:
  7973 ;;		_RF24_write_register
  7974 ;; This function is called by:
  7975 ;;		_RF24_begin
  7976 ;;		_RF24_getDynamicPayloadSize
  7977 ;; This function uses a non-reentrant model
  7978 ;;
  7979                           
  7980  09D8                     _RF24_flush_rx:	
  7981                           ;psect for function _RF24_flush_rx
  7982                           
  7983  09D8                     l3159:	
  7984                           ;incstack = 0
  7985                           ; Regs used in _RF24_flush_rx: [wreg+status,2+status,0+pclath+cstack]
  7986                           
  7987                           
  7988                           ;F:/GitHub/Graduation-Project/Lib-test/Embedded-shs/libs/rf24.c: 436:     RF24_write_reg
      +                          ister(0xE2, 0xFF);
  7989  09D8  30FF               	movlw	255
  7990  09D9  00F9               	movwf	??_RF24_flush_rx
  7991  09DA  0879               	movf	??_RF24_flush_rx,w
  7992  09DB  00F6               	movwf	RF24_write_register@value
  7993  09DC  30E2               	movlw	226
  7994  09DD  120A  158A  22D7  120A  158A  	fcall	_RF24_write_register
  7995  09E2                     l501:
  7996  09E2  0008               	return
  7997  09E3                     __end_of_RF24_flush_rx:
  7998                           
  7999                           	psect	text54
  8000  0AD7                     __ptext54:	
  8001 ;; *************** function _RF24_write_register *****************
  8002 ;; Defined at:
  8003 ;;		line 42 in file "F:/GitHub/Graduation-Project/Lib-test/Embedded-shs/libs/rf24.c"
  8004 ;; Parameters:    Size  Location     Type
  8005 ;;  mnemonic_add    1    wreg     unsigned char 
  8006 ;;  value           1    6[COMMON] unsigned char 
  8007 ;; Auto vars:     Size  Location     Type
  8008 ;;  mnemonic_add    1    8[COMMON] unsigned char 
  8009 ;; Return value:  Size  Location     Type
  8010 ;;                  1    wreg      void 
  8011 ;; Registers used:
  8012 ;;		wreg, status,2, status,0, pclath, cstack
  8013 ;; Tracked objects:
  8014 ;;		On entry : 0/0
  8015 ;;		On exit  : 0/0
  8016 ;;		Unchanged: 0/0
  8017 ;; Data sizes:     COMMON   BANK0   BANK1   BANK3   BANK2
  8018 ;;      Params:         1       0       0       0       0
  8019 ;;      Locals:         1       0       0       0       0
  8020 ;;      Temps:          1       0       0       0       0
  8021 ;;      Totals:         3       0       0       0       0
  8022 ;;Total ram usage:        3 bytes
  8023 ;; Hardware stack levels used: 1
  8024 ;; Hardware stack levels required when called: 3
  8025 ;; This function calls:
  8026 ;;		_SPI_exchangeByte
  8027 ;; This function is called by:
  8028 ;;		_RF24_begin
  8029 ;;		_RF24_setPALevel
  8030 ;;		_RF24_startListening
  8031 ;;		_RF24_stopListening
  8032 ;;		_RF24_powerUp
  8033 ;;		_RF24_setPayloadSize
  8034 ;;		_RF24_write
  8035 ;;		_RF24_read
  8036 ;;		_RF24_openReadingPipe
  8037 ;;		_RF24_enableDynamicPayloads
  8038 ;;		_RF24_setAutoAck
  8039 ;;		_RF24_setDataRate
  8040 ;;		_RF24_setCRCLength
  8041 ;;		_RF24_flush_tx
  8042 ;;		_RF24_flush_rx
  8043 ;;		_RF24_setChannel
  8044 ;;		_RF24_setRetries
  8045 ;;		_RF24_setAddressWidth
  8046 ;; This function uses a non-reentrant model
  8047 ;;
  8048                           
  8049  0AD7                     _RF24_write_register:	
  8050                           ;psect for function _RF24_write_register
  8051                           
  8052                           
  8053                           ;incstack = 0
  8054                           ; Regs used in _RF24_write_register: [wreg+status,2+status,0+pclath+cstack]
  8055                           ;RF24_write_register@mnemonic_addr stored from wreg
  8056  0AD7  00F8               	movwf	RF24_write_register@mnemonic_addr
  8057  0AD8                     l2857:
  8058                           
  8059                           ;F:/GitHub/Graduation-Project/Lib-test/Embedded-shs/libs/rf24.c: 42: void RF24_write_reg
      +                          ister(uint8_t mnemonic_addr, uint8_t value);F:/GitHub/Graduation-Project/Lib-test/Embedd
      +                          ed-shs/libs/rf24.c: 43: {;F:/GitHub/Graduation-Project/Lib-test/Embedded-shs/libs/rf24.c
      +                          : 45:     RD3 = 0;
  8060  0AD8  1283               	bcf	3,5	;RP0=0, select bank0
  8061  0AD9  1303               	bcf	3,6	;RP1=0, select bank0
  8062  0ADA  1188               	bcf	8,3	;volatile
  8063  0ADB                     l2859:
  8064                           
  8065                           ;F:/GitHub/Graduation-Project/Lib-test/Embedded-shs/libs/rf24.c: 46:     RF24_attr_statu
      +                          s = SPI_exchangeByte(0x20 | mnemonic_addr);
  8066  0ADB  0878               	movf	RF24_write_register@mnemonic_addr,w
  8067  0ADC  3820               	iorlw	32
  8068  0ADD  120A  158A  21FA  120A  158A  	fcall	_SPI_exchangeByte
  8069  0AE2  00F7               	movwf	??_RF24_write_register
  8070  0AE3  0877               	movf	??_RF24_write_register,w
  8071  0AE4  1283               	bcf	3,5	;RP0=0, select bank0
  8072  0AE5  1303               	bcf	3,6	;RP1=0, select bank0
  8073  0AE6  00D5               	movwf	_RF24_attr_status
  8074  0AE7                     l2861:
  8075                           
  8076                           ;F:/GitHub/Graduation-Project/Lib-test/Embedded-shs/libs/rf24.c: 47:     SPI_exchangeByt
      +                          e(value);
  8077  0AE7  0876               	movf	RF24_write_register@value,w
  8078  0AE8  120A  158A  21FA  120A  158A  	fcall	_SPI_exchangeByte
  8079  0AED                     l2863:
  8080                           
  8081                           ;F:/GitHub/Graduation-Project/Lib-test/Embedded-shs/libs/rf24.c: 48:     RD3 = 1;
  8082  0AED  1283               	bcf	3,5	;RP0=0, select bank0
  8083  0AEE  1303               	bcf	3,6	;RP1=0, select bank0
  8084  0AEF  1588               	bsf	8,3	;volatile
  8085  0AF0                     l379:
  8086  0AF0  0008               	return
  8087  0AF1                     __end_of_RF24_write_register:
  8088                           
  8089                           	psect	text55
  8090  09FA                     __ptext55:	
  8091 ;; *************** function _SPI_exchangeByte *****************
  8092 ;; Defined at:
  8093 ;;		line 13 in file "F:/GitHub/Graduation-Project/Lib-test/Embedded-shs/libs/spi_master.c"
  8094 ;; Parameters:    Size  Location     Type
  8095 ;;  byte            1    wreg     unsigned char 
  8096 ;; Auto vars:     Size  Location     Type
  8097 ;;  byte            1    2[COMMON] unsigned char 
  8098 ;; Return value:  Size  Location     Type
  8099 ;;                  1    wreg      unsigned char 
  8100 ;; Registers used:
  8101 ;;		wreg
  8102 ;; Tracked objects:
  8103 ;;		On entry : 0/0
  8104 ;;		On exit  : 0/0
  8105 ;;		Unchanged: 0/0
  8106 ;; Data sizes:     COMMON   BANK0   BANK1   BANK3   BANK2
  8107 ;;      Params:         0       0       0       0       0
  8108 ;;      Locals:         1       0       0       0       0
  8109 ;;      Temps:          0       0       0       0       0
  8110 ;;      Totals:         1       0       0       0       0
  8111 ;;Total ram usage:        1 bytes
  8112 ;; Hardware stack levels used: 1
  8113 ;; Hardware stack levels required when called: 2
  8114 ;; This function calls:
  8115 ;;		Nothing
  8116 ;; This function is called by:
  8117 ;;		_RF24_read_n_register
  8118 ;;		_RF24_read_register
  8119 ;;		_RF24_write_n_register
  8120 ;;		_RF24_write_register
  8121 ;;		_RF24_get_status
  8122 ;;		_RF24_write
  8123 ;; This function uses a non-reentrant model
  8124 ;;
  8125                           
  8126  09FA                     _SPI_exchangeByte:	
  8127                           ;psect for function _SPI_exchangeByte
  8128                           
  8129                           
  8130                           ;incstack = 0
  8131                           ; Regs used in _SPI_exchangeByte: [wreg]
  8132                           ;SPI_exchangeByte@byte stored from wreg
  8133  09FA  00F2               	movwf	SPI_exchangeByte@byte
  8134  09FB                     l2851:
  8135                           
  8136                           ;F:/GitHub/Graduation-Project/Lib-test/Embedded-shs/libs/spi_master.c: 13: uint8_t SPI_e
      +                          xchangeByte(uint8_t byte);F:/GitHub/Graduation-Project/Lib-test/Embedded-shs/libs/spi_ma
      +                          ster.c: 14: {;F:/GitHub/Graduation-Project/Lib-test/Embedded-shs/libs/spi_master.c: 16: 
      +                              SSPBUF = byte;
  8137  09FB  0872               	movf	SPI_exchangeByte@byte,w
  8138  09FC  1283               	bcf	3,5	;RP0=0, select bank0
  8139  09FD  1303               	bcf	3,6	;RP1=0, select bank0
  8140  09FE  0093               	movwf	19	;volatile
  8141  09FF                     l554:	
  8142                           ;F:/GitHub/Graduation-Project/Lib-test/Embedded-shs/libs/spi_master.c: 19:         ;
  8143                           
  8144                           
  8145                           ;F:/GitHub/Graduation-Project/Lib-test/Embedded-shs/libs/spi_master.c: 18:     while (SS
      +                          PIF == 0)
  8146  09FF  1D8C               	btfss	12,3	;volatile
  8147  0A00  2A02               	goto	u1991
  8148  0A01  2A03               	goto	u1990
  8149  0A02                     u1991:
  8150  0A02  29FF               	goto	l554
  8151  0A03                     u1990:
  8152  0A03                     l556:
  8153                           
  8154                           ;F:/GitHub/Graduation-Project/Lib-test/Embedded-shs/libs/spi_master.c: 20:     SSPIF = 0
      +                          ;
  8155  0A03  118C               	bcf	12,3	;volatile
  8156  0A04                     l2853:
  8157                           
  8158                           ;F:/GitHub/Graduation-Project/Lib-test/Embedded-shs/libs/spi_master.c: 21:     return SS
      +                          PBUF;
  8159  0A04  0813               	movf	19,w	;volatile
  8160  0A05                     l557:
  8161  0A05  0008               	return
  8162  0A06                     __end_of_SPI_exchangeByte:
  8163                           
  8164                           	psect	text56
  8165  09EE                     __ptext56:	
  8166 ;; *************** function _ISR *****************
  8167 ;; Defined at:
  8168 ;;		line 178 in file "F:/GitHub/Graduation-Project/Lib-test/Embedded-shs/app/src/main.c"
  8169 ;; Parameters:    Size  Location     Type
  8170 ;;		None
  8171 ;; Auto vars:     Size  Location     Type
  8172 ;;		None
  8173 ;; Return value:  Size  Location     Type
  8174 ;;                  1    wreg      void 
  8175 ;; Registers used:
  8176 ;;		wreg, status,2, status,0, pclath, cstack
  8177 ;; Tracked objects:
  8178 ;;		On entry : 0/0
  8179 ;;		On exit  : 0/0
  8180 ;;		Unchanged: 0/0
  8181 ;; Data sizes:     COMMON   BANK0   BANK1   BANK3   BANK2
  8182 ;;      Params:         0       0       0       0       0
  8183 ;;      Locals:         0       0       0       0       0
  8184 ;;      Temps:          2       0       0       0       0
  8185 ;;      Totals:         2       0       0       0       0
  8186 ;;Total ram usage:        2 bytes
  8187 ;; Hardware stack levels used: 1
  8188 ;; Hardware stack levels required when called: 1
  8189 ;; This function calls:
  8190 ;;		_timeISR
  8191 ;; This function is called by:
  8192 ;;		Interrupt level 1
  8193 ;; This function uses a non-reentrant model
  8194 ;;
  8195                           
  8196  09EE                     _ISR:	
  8197                           ;psect for function _ISR
  8198                           
  8199  09EE                     i1l2829:
  8200                           
  8201                           ;F:/GitHub/Graduation-Project/Lib-test/Embedded-shs/app/src/main.c: 180:     timeISR();
  8202  09EE  120A  158A  2292  120A  158A  	fcall	_timeISR
  8203  09F3                     i1l100:
  8204  09F3  0871               	movf	??_ISR+1,w
  8205  09F4  008A               	movwf	10
  8206  09F5  0E70               	swapf	??_ISR,w
  8207  09F6  0083               	movwf	3
  8208  09F7  0EFE               	swapf	btemp,f
  8209  09F8  0E7E               	swapf	btemp,w
  8210  09F9  0009               	retfie
  8211  09FA                     __end_of_ISR:
  8212                           
  8213                           	psect	intentry
  8214  0004                     __pintentry:	
  8215                           ;incstack = 0
  8216 ;; hardware stack exceeded
  8217                           ; Regs used in _ISR: [wreg+status,2+status,0+pclath+cstack]
  8218                           
  8219  0004                     interrupt_function:
  8220  007E                     saved_w	set	btemp
  8221  0004  00FE               	movwf	btemp
  8222  0005  0E03               	swapf	3,w
  8223  0006  00F0               	movwf	??_ISR
  8224  0007  080A               	movf	10,w
  8225  0008  00F1               	movwf	??_ISR+1
  8226  0009  120A  158A  29EE   	ljmp	_ISR
  8227                           
  8228                           	psect	text57
  8229  0A92                     __ptext57:	
  8230 ;; *************** function _timeISR *****************
  8231 ;; Defined at:
  8232 ;;		line 35 in file "F:/GitHub/Graduation-Project/Lib-test/Embedded-shs/libs/time.c"
  8233 ;; Parameters:    Size  Location     Type
  8234 ;;		None
  8235 ;; Auto vars:     Size  Location     Type
  8236 ;;		None
  8237 ;; Return value:  Size  Location     Type
  8238 ;;                  1    wreg      void 
  8239 ;; Registers used:
  8240 ;;		wreg
  8241 ;; Tracked objects:
  8242 ;;		On entry : 0/0
  8243 ;;		On exit  : 0/0
  8244 ;;		Unchanged: 0/0
  8245 ;; Data sizes:     COMMON   BANK0   BANK1   BANK3   BANK2
  8246 ;;      Params:         0       0       0       0       0
  8247 ;;      Locals:         0       0       0       0       0
  8248 ;;      Temps:          0       0       0       0       0
  8249 ;;      Totals:         0       0       0       0       0
  8250 ;;Total ram usage:        0 bytes
  8251 ;; Hardware stack levels used: 1
  8252 ;; This function calls:
  8253 ;;		Nothing
  8254 ;; This function is called by:
  8255 ;;		_ISR
  8256 ;; This function uses a non-reentrant model
  8257 ;;
  8258                           
  8259  0A92                     _timeISR:	
  8260                           ;psect for function _timeISR
  8261                           
  8262  0A92                     i1l2763:	
  8263                           ;incstack = 0
  8264 ;; hardware stack exceeded
  8265                           ; Regs used in _timeISR: [wreg]
  8266                           
  8267                           
  8268                           ;F:/GitHub/Graduation-Project/Lib-test/Embedded-shs/libs/time.c: 37:     if (TMR1IF)
  8269  0A92  1283               	bcf	3,5	;RP0=0, select bank0
  8270  0A93  1303               	bcf	3,6	;RP1=0, select bank0
  8271  0A94  1C0C               	btfss	12,0	;volatile
  8272  0A95  2A97               	goto	u193_21
  8273  0A96  2A98               	goto	u193_20
  8274  0A97                     u193_21:
  8275  0A97  2AA7               	goto	i1l594
  8276  0A98                     u193_20:
  8277  0A98                     i1l2765:
  8278                           
  8279                           ;F:/GitHub/Graduation-Project/Lib-test/Embedded-shs/libs/time.c: 38:     {;F:/GitHub/Gra
      +                          duation-Project/Lib-test/Embedded-shs/libs/time.c: 39:         _microsMSB += 0x10000;
  8280  0A98  3000               	movlw	0
  8281  0A99  07C9               	addwf	__microsMSB,f
  8282  0A9A  3000               	movlw	0
  8283  0A9B  1803               	skipnc
  8284  0A9C  3001               	movlw	1
  8285  0A9D  07CA               	addwf	__microsMSB+1,f
  8286  0A9E  3001               	movlw	1
  8287  0A9F  1803               	skipnc
  8288  0AA0  3002               	movlw	2
  8289  0AA1  07CB               	addwf	__microsMSB+2,f
  8290  0AA2  3000               	movlw	0
  8291  0AA3  1803               	skipnc
  8292  0AA4  3001               	movlw	1
  8293  0AA5  07CC               	addwf	__microsMSB+3,f
  8294  0AA6                     i1l2767:
  8295                           
  8296                           ;F:/GitHub/Graduation-Project/Lib-test/Embedded-shs/libs/time.c: 40:         TMR1IF = 0;
  8297  0AA6  100C               	bcf	12,0	;volatile
  8298  0AA7                     i1l594:
  8299  0AA7  0008               	return
  8300  0AA8                     __end_of_timeISR:
  8301  007E                     btemp	set	126	;btemp
  8302  007E                     wtemp0	set	126
  8303                           
  8304                           	psect	config
  8305                           
  8306                           ;Config register CONFIG @ 0x2007
  8307                           ;	Oscillator Selection bits
  8308                           ;	FOSC = HS, HS oscillator
  8309                           ;	Watchdog Timer Enable bit
  8310                           ;	WDTE = OFF, WDT disabled
  8311                           ;	Power-up Timer Enable bit
  8312                           ;	PWRTE = OFF, PWRT disabled
  8313                           ;	Brown-out Reset Enable bit
  8314                           ;	BOREN = ON, BOR enabled
  8315                           ;	Low-Voltage (Single-Supply) In-Circuit Serial Programming Enable bit
  8316                           ;	LVP = OFF, RB3 is digital I/O, HV on MCLR must be used for programming
  8317                           ;	Data EEPROM Memory Code Protection bit
  8318                           ;	CPD = OFF, Data EEPROM code protection off
  8319                           ;	Flash Program Memory Write Enable bits
  8320                           ;	WRT = OFF, Write protection off; all program memory may be written to by EECON control
  8321                           ;	In-Circuit Debugger Mode bit
  8322                           ;	DEBUG = 0x1, unprogrammed default
  8323                           ;	Flash Program Memory Code Protection bit
  8324                           ;	CP = OFF, Code protection off
  8325  2007                     	org	8199
  8326  2007  3F7A               	dw	16250

Data Sizes:
    Strings     298
    Constant    35
    Data        5
    BSS         96
    Persistent  0
    Stack       0

Auto Spaces:
    Space          Size  Autos    Used
    COMMON           14     11      12
    BANK0            80     36      67
    BANK1            80      0      69
    BANK3            96      0       0
    BANK2            96      0       0

Pointer List with Targets:

    memcpy@d1	PTR void  size(1) Largest target is 32
		 -> networkInfo(BANK0[6]), buffer_tx(BANK1[32]), 

    memcpy@d	PTR unsigned char  size(1) Largest target is 32
		 -> networkInfo(BANK0[6]), buffer_tx(BANK1[32]), 

    memcpy@s1	PTR const void  size(1) Largest target is 6
		 -> networkInfo(BANK0[6]), network_pipe(BANK1[5]), prop(BANK0[2]), 

    memcpy@s	PTR const unsigned char  size(1) Largest target is 6
		 -> networkInfo(BANK0[6]), network_pipe(BANK1[5]), prop(BANK0[2]), 

    _$_logline_str@string	PTR unsigned char  size(2) Largest target is 52
		 -> STR_27(CODE[23]), STR_26(CODE[3]), STR_25(CODE[6]), STR_24(CODE[6]), 
		 -> STR_23(CODE[6]), STR_22(CODE[6]), STR_21(CODE[6]), STR_20(CODE[6]), 
		 -> STR_19(CODE[11]), STR_18(CODE[7]), STR_17(CODE[9]), STR_16(CODE[6]), 
		 -> STR_15(CODE[11]), STR_14(CODE[9]), STR_13(CODE[10]), STR_12(CODE[6]), 
		 -> STR_11(CODE[7]), STR_10(CODE[23]), STR_9(CODE[10]), buffer_rx(BANK1[32]), 
		 -> STR_8(CODE[6]), STR_7(CODE[3]), STR_6(CODE[7]), STR_5(CODE[15]), 
		 -> STR_4(CODE[13]), STR_3(CODE[19]), buffer_tx(BANK1[32]), STR_2(CODE[15]), 
		 -> STR_1(CODE[52]), 

    transport_udp_rx@payload	PTR unsigned char  size(1) Largest target is 32
		 -> buffer_rx(BANK1[32]), 

    transport_udp_rx@packetHeader	PTR struct UDPPacket size(1) Largest target is 32
		 -> buffer_rx(BANK1[32]), 

    transport_udp_tx@payload	PTR unsigned char  size(1) Largest target is 32
		 -> buffer_tx(BANK1[32]), 

    transport_udp_tx@packetHeader	PTR struct UDPPacket size(1) Largest target is 32
		 -> buffer_tx(BANK1[32]), 

    RF24_openWritingPipe@address	PTR unsigned char  size(1) Largest target is 6
		 -> networkInfo(BANK0[6]), 

    RF24_openReadingPipe@address	PTR unsigned char  size(2) Largest target is 6
		 -> BASE_PIPE(CODE[5]), networkInfo(BANK0[6]), 

    RF24_read@buf	PTR void  size(1) Largest target is 32
		 -> buffer_rx(BANK1[32]), 

    RF24_write@buf	PTR void  size(1) Largest target is 32
		 -> buffer_rx(BANK1[32]), buffer_tx(BANK1[32]), 

    RF24_write_n_register@buffer	PTR unsigned char  size(2) Largest target is 6
		 -> BASE_PIPE(CODE[5]), networkInfo(BANK0[6]), 

    RF24_read_n_register@buf	PTR unsigned char  size(1) Largest target is 32
		 -> RF24_printDetails@buffer(COMMON[5]), buffer_rx(BANK1[32]), 

    sp__internet_getRecievingBuffer	PTR unsigned char  size(1) Largest target is 32
		 -> buffer_rx(BANK1[32]), 

    sp__internet_getTransmissionBuffer	PTR unsigned char  size(1) Largest target is 32
		 -> buffer_tx(BANK1[32]), 

    internet_relay@payload	PTR unsigned char  size(1) Largest target is 32
		 -> buffer_rx(BANK1[32]), buffer_tx(BANK1[32]), 

    internet_relay@packetHeader	PTR struct Packet size(1) Largest target is 32
		 -> buffer_rx(BANK1[32]), buffer_tx(BANK1[32]), 

    internet_rx@payload	PTR unsigned char  size(1) Largest target is 32
		 -> buffer_rx(BANK1[32]), 

    internet_rx@packetHeader	PTR struct Packet size(1) Largest target is 32
		 -> buffer_rx(BANK1[32]), 

    internet_tx@payload	PTR unsigned char  size(1) Largest target is 32
		 -> buffer_tx(BANK1[32]), 

    internet_tx@packetHeader	PTR struct Packet size(1) Largest target is 32
		 -> buffer_tx(BANK1[32]), 

    internet_setNetworkPipe@pipe	PTR unsigned char  size(1) Largest target is 6
		 -> networkInfo(BANK0[6]), network_pipe(BANK1[5]), 

    sp__memcpy	PTR void  size(1) Largest target is 32
		 -> networkInfo(BANK0[6]), buffer_tx(BANK1[32]), 

    transport_udp_process@ppnt	PTR struct . size(1) Largest target is 32
		 -> buffer_rx.object(UNKNOWN), buffer_rx(BANK1[32]), 

    transport_udp_process@payload	PTR unsigned char  size(1) Largest target is 32
		 -> buffer_rx(BANK1[32]), 

    transport_udp_process@packet	PTR const struct . size(1) Largest target is 32
		 -> buffer_rx(BANK1[32]), 

    main@packet	const PTR struct . size(1) Largest target is 32
		 -> buffer_tx(BANK1[32]), 

    checkButton@btn	PTR struct . size(1) Largest target is 5
		 -> btn1(BANK0[5]), 


Critical Paths under _main in COMMON

    _main->_checkButton
    _wait_init->_timerInit
    _internet_setChannel->_RF24_setChannel
    _internet_setNetworkPipe->_RF24_openReadingPipe
    _internet_process->_RF24_getDynamicPayloadSize
    _internet_process->_RF24_read
    __$_logline_int->___awdiv
    __$_logline_int->___awmod
    ___awmod->___lbdiv
    _internet_relay->_RF24_openReadingPipe
    _internet_relay->_RF24_write
    __$_logline_str->_Serial_write
    _RF24_write->_RF24_flush_tx
    _RF24_stopListening->_RF24_write_register
    _RF24_openWritingPipe->_RF24_write_n_register
    _RF24_read->_RF24_write_register
    _RF24_read_n_register->_SPI_exchangeByte
    _RF24_getDynamicPayloadSize->_RF24_flush_rx
    _RF24_available->_RF24_get_status
    _RF24_get_status->_SPI_exchangeByte
    _checkButton->_micros
    _Serial_begin->___aldiv
    _Network_begin->_RF24_openReadingPipe
    _Network_begin->_RF24_setAddressWidth
    _Network_begin->_RF24_setAutoAck
    _Network_begin->_RF24_setCRCLength
    _Network_begin->_RF24_setPayloadSize
    _RF24_startListening->_RF24_write_register
    _RF24_setCRCLength->_RF24_write_register
    _RF24_setAutoAck->_RF24_write_register
    _RF24_openReadingPipe->_RF24_write_register
    _RF24_write_n_register->_SPI_exchangeByte
    _RF24_getPALevel->_RF24_read_register
    _RF24_enableDynamicPayloads->_RF24_write_register
    _RF24_begin->_RF24_powerUp
    _RF24_begin->_RF24_setAddressWidth
    _RF24_begin->_RF24_setChannel
    _RF24_begin->_RF24_setPALevel
    _RF24_begin->_RF24_setPayloadSize
    _RF24_begin->_RF24_setRetries
    _RF24_setRetries->_RF24_write_register
    _RF24_setPayloadSize->_RF24_write_register
    _RF24_setPALevel->_RF24_write_register
    _RF24_setDataRate->_RF24_write_register
    _RF24_setChannel->_RF24_write_register
    _RF24_setAddressWidth->_RF24_write_register
    _RF24_powerUp->_RF24_write_register
    _RF24_read_register->_SPI_exchangeByte
    _RF24_flush_tx->_RF24_write_register
    _RF24_flush_rx->_RF24_write_register
    _RF24_write_register->_RF24_read_register

Critical Paths under _ISR in COMMON

    None.

Critical Paths under _main in BANK0

    _main->_internet_process
    _transport_udp_tx->_internet_tx
    _internet_tx->_internet_relay
    _internet_setAddress->_internet_setNetworkPipe
    _internet_setNetworkPipe->_RF24_openReadingPipe
    _internet_process->_internet_rx
    _internet_rx->_transport_udp_rx
    _transport_udp_rx->_transport_udp_process
    _transport_udp_process->__$_logline_int
    __$_logline_int->___awmod
    _internet_relay->_RF24_openReadingPipe
    _Serial_begin->___aldiv
    _Network_begin->_RF24_begin
    _RF24_begin->_RF24_setPALevel
    _RF24_begin->_RF24_setRetries

Critical Paths under _ISR in BANK0

    None.

Critical Paths under _main in BANK1

    None.

Critical Paths under _ISR in BANK1

    None.

Critical Paths under _main in BANK3

    None.

Critical Paths under _ISR in BANK3

    None.

Critical Paths under _main in BANK2

    None.

Critical Paths under _ISR in BANK2

    None.

Call Graph Tables:

 ---------------------------------------------------------------------------------
 (Depth) Function   	        Calls       Base Space   Used Autos Params    Refs
 ---------------------------------------------------------------------------------
 (0) _main                                                 5     5      0  148415
                                             31 BANK0      5     5      0
                      _Network_begin
                     _SPI_initialize
                       _Serial_begin
                       _Serial_write
                     __$_logline_str
                        _checkButton
                   _internet_process
                _internet_setAddress
                _internet_setChannel
            _internet_setNetworkPipe
                             _micros
                   _transport_udp_tx
                          _wait_init
 ---------------------------------------------------------------------------------
 (1) _wait_init                                            1     1      0     114
                                              5 COMMON     1     1      0
                          _timerInit
 ---------------------------------------------------------------------------------
 (2) _timerInit                                            3     3      0      92
                                              2 COMMON     3     3      0
 ---------------------------------------------------------------------------------
 (1) _transport_udp_tx                                     7     3      4   24653
                                             12 BANK0      7     3      4
                        _internet_tx
 ---------------------------------------------------------------------------------
 (2) _internet_tx                                          4     3      1   23894
                                              8 BANK0      4     3      1
                     _internet_relay
 ---------------------------------------------------------------------------------
 (1) _internet_setChannel                                  1     1      0    3615
                                              0 BANK0      1     1      0
                    _RF24_setChannel
 ---------------------------------------------------------------------------------
 (1) _internet_setAddress                                  3     3      0    6019
                                              5 BANK0      3     3      0
             _internet_calculateMask
            _internet_setNetworkPipe
 ---------------------------------------------------------------------------------
 (1) _internet_setNetworkPipe                              2     2      0    5888
                                              3 BANK0      2     2      0
               _RF24_openReadingPipe
                             _memcpy
 ---------------------------------------------------------------------------------
 (1) _internet_process                                     2     2      0   37608
                                             29 BANK0      2     2      0
                     _RF24_available
         _RF24_getDynamicPayloadSize
                          _RF24_read
                        _internet_rx
 ---------------------------------------------------------------------------------
 (2) _internet_rx                                          5     4      1   29246
                                             24 BANK0      5     4      1
                     _internet_relay
                   _transport_udp_rx
 ---------------------------------------------------------------------------------
 (3) _transport_udp_rx                                     5     4      1    5290
                                             19 BANK0      5     4      1
              _transport_udp_process
 ---------------------------------------------------------------------------------
 (4) _transport_udp_process                                7     5      2    4987
                                             12 BANK0      7     5      2
                       _Serial_write
                     __$_logline_int
                     __$_logline_str
                             _memcpy
 ---------------------------------------------------------------------------------
 (2) _memcpy                                               8     5      3     740
                                              2 COMMON     8     5      3
 ---------------------------------------------------------------------------------
 (5) __$_logline_int                                       9     9      0    1591
                                              3 BANK0      9     9      0
                       _Serial_write
                            ___awdiv
                            ___awmod
                            ___lbdiv
 ---------------------------------------------------------------------------------
 (6) ___lbdiv                                              5     4      1     238
                                              2 COMMON     5     4      1
 ---------------------------------------------------------------------------------
 (6) ___awmod                                              7     3      4     613
                                              7 COMMON     4     0      4
                                              0 BANK0      3     3      0
                            ___lbdiv (ARG)
 ---------------------------------------------------------------------------------
 (6) ___awdiv                                              9     5      4     452
                                              2 COMMON     9     5      4
 ---------------------------------------------------------------------------------
 (3) _internet_relay                                       6     5      1   23560
                                              3 BANK0      5     4      1
               _RF24_openReadingPipe
               _RF24_openWritingPipe
                _RF24_startListening
                 _RF24_stopListening
                         _RF24_write
                       _Serial_write
                     __$_logline_str
             _internet_calculateMask
                  _internet_hasChild
 ---------------------------------------------------------------------------------
 (4) _internet_hasChild                                    2     2      0      22
                                              2 COMMON     2     2      0
 ---------------------------------------------------------------------------------
 (4) _internet_calculateMask                               2     2      0      69
                                              2 COMMON     2     2      0
 ---------------------------------------------------------------------------------
 (4) __$_logline_str                                       4     2      2    1984
                                              3 COMMON     4     2      2
                       _Serial_write
 ---------------------------------------------------------------------------------
 (5) _Serial_write                                         1     1      0      22
                                              2 COMMON     1     1      0
 ---------------------------------------------------------------------------------
 (4) _RF24_write                                           3     2      1    7761
                                             10 COMMON     1     1      0
                                              0 BANK0      2     1      1
                      _RF24_flush_tx
                    _RF24_get_status
                _RF24_write_register
                   _SPI_exchangeByte
 ---------------------------------------------------------------------------------
 (4) _RF24_stopListening                                   1     1      0    3649
                                              9 COMMON     1     1      0
                 _RF24_read_register
                _RF24_write_register
 ---------------------------------------------------------------------------------
 (4) _RF24_openWritingPipe                                 2     2      0     629
                                              8 COMMON     2     2      0
              _RF24_write_n_register
 ---------------------------------------------------------------------------------
 (2) _RF24_read                                            4     3      1    4518
                                              9 COMMON     2     1      1
                                              0 BANK0      2     2      0
               _RF24_read_n_register
                _RF24_write_register
 ---------------------------------------------------------------------------------
 (3) _RF24_read_n_register                                 4     2      2     727
                                              3 COMMON     4     2      2
                   _SPI_exchangeByte
 ---------------------------------------------------------------------------------
 (2) _RF24_getDynamicPayloadSize                           3     3      0    3714
                                             10 COMMON     1     1      0
                                              0 BANK0      2     2      0
                      _RF24_flush_rx
                 _RF24_read_register
 ---------------------------------------------------------------------------------
 (2) _RF24_available                                       3     3      0      65
                                              4 COMMON     3     3      0
                    _RF24_get_status
 ---------------------------------------------------------------------------------
 (5) _RF24_get_status                                      1     1      0      31
                                              3 COMMON     1     1      0
                   _SPI_exchangeByte
 ---------------------------------------------------------------------------------
 (1) _checkButton                                          8     7      1     310
                                             10 COMMON     1     0      1
                                              0 BANK0      7     7      0
                             _micros
 ---------------------------------------------------------------------------------
 (1) _micros                                               8     4      4       0
                                              2 COMMON     8     4      4
 ---------------------------------------------------------------------------------
 (1) _Serial_begin                                        18    14      4     836
                                              6 BANK0     18    14      4
                            ___aldiv
 ---------------------------------------------------------------------------------
 (2) ___aldiv                                             15     7      8     604
                                              2 COMMON     9     1      8
                                              0 BANK0      6     6      0
 ---------------------------------------------------------------------------------
 (1) _SPI_initialize                                       0     0      0       0
 ---------------------------------------------------------------------------------
 (1) _Network_begin                                        1     1      0   67332
                                              6 BANK0      1     1      0
                         _RF24_begin
         _RF24_enableDynamicPayloads
                    _RF24_getPALevel
               _RF24_openReadingPipe
               _RF24_setAddressWidth
                    _RF24_setAutoAck
                  _RF24_setCRCLength
                   _RF24_setDataRate
                _RF24_setPayloadSize
                _RF24_startListening
 ---------------------------------------------------------------------------------
 (4) _RF24_startListening                                  1     1      0    3649
                                              9 COMMON     1     1      0
                 _RF24_read_register
                _RF24_write_register
 ---------------------------------------------------------------------------------
 (2) _RF24_setCRCLength                                    2     2      0    3615
                                              9 COMMON     2     2      0
                _RF24_write_register
 ---------------------------------------------------------------------------------
 (2) _RF24_setAutoAck                                      2     2      0    3584
                                              9 COMMON     2     2      0
                _RF24_write_register
 ---------------------------------------------------------------------------------
 (4) _RF24_openReadingPipe                                 5     3      2    5045
                                              9 COMMON     2     0      2
                                              0 BANK0      3     3      0
                 _RF24_read_register
              _RF24_write_n_register
                _RF24_write_register
 ---------------------------------------------------------------------------------
 (5) _RF24_write_n_register                                5     2      3     490
                                              3 COMMON     5     2      3
                   _SPI_exchangeByte
 ---------------------------------------------------------------------------------
 (2) _RF24_getPALevel                                      1     0      1      96
                                              6 COMMON     1     0      1
                 _RF24_read_register
 ---------------------------------------------------------------------------------
 (2) _RF24_enableDynamicPayloads                           1     1      0    3649
                                              9 COMMON     1     1      0
                 _RF24_read_register
                _RF24_write_register
 ---------------------------------------------------------------------------------
 (2) _RF24_begin                                           3     3      0   36586
                                              3 BANK0      3     3      0
                      _RF24_flush_rx
                      _RF24_flush_tx
                       _RF24_powerUp
                 _RF24_read_register
               _RF24_setAddressWidth
                    _RF24_setChannel
                   _RF24_setDataRate
                    _RF24_setPALevel
                _RF24_setPayloadSize
                    _RF24_setRetries
                _RF24_write_register
 ---------------------------------------------------------------------------------
 (3) _RF24_setRetries                                      5     4      1    3705
                                              9 COMMON     2     1      1
                                              0 BANK0      3     3      0
                _RF24_write_register
 ---------------------------------------------------------------------------------
 (2) _RF24_setPayloadSize                                  2     2      0    3739
                                              9 COMMON     2     2      0
                _RF24_write_register
 ---------------------------------------------------------------------------------
 (3) _RF24_setPALevel                                      5     5      0    3785
                                              9 COMMON     2     2      0
                                              0 BANK0      3     3      0
                 _RF24_read_register
                _RF24_write_register
 ---------------------------------------------------------------------------------
 (2) _RF24_setDataRate                                     3     3      0    3785
                                              9 COMMON     1     1      0
                                              0 BANK0      2     2      0
                 _RF24_read_register
                _RF24_write_register
 ---------------------------------------------------------------------------------
 (2) _RF24_setChannel                                      2     2      0    3584
                                              9 COMMON     2     2      0
                _RF24_write_register
 ---------------------------------------------------------------------------------
 (2) _RF24_setAddressWidth                                 2     2      0    3584
                                              9 COMMON     2     2      0
                _RF24_write_register
 ---------------------------------------------------------------------------------
 (3) _RF24_powerUp                                         2     2      0    3649
                                              9 COMMON     2     2      0
                 _RF24_read_register
                _RF24_write_register
 ---------------------------------------------------------------------------------
 (5) _RF24_read_register                                   3     3      0      96
                                              3 COMMON     3     3      0
                   _SPI_exchangeByte
 ---------------------------------------------------------------------------------
 (5) _RF24_flush_tx                                        1     1      0    3553
                                              9 COMMON     1     1      0
                _RF24_write_register
 ---------------------------------------------------------------------------------
 (3) _RF24_flush_rx                                        1     1      0    3553
                                              9 COMMON     1     1      0
                _RF24_write_register
 ---------------------------------------------------------------------------------
 (5) _RF24_write_register                                  3     2      1    3553
                                              6 COMMON     3     2      1
                 _RF24_read_register (ARG)
                   _SPI_exchangeByte
 ---------------------------------------------------------------------------------
 (5) _SPI_exchangeByte                                     1     1      0      31
                                              2 COMMON     1     1      0
 ---------------------------------------------------------------------------------
 Estimated maximum stack depth 6
 ---------------------------------------------------------------------------------
 (Depth) Function   	        Calls       Base Space   Used Autos Params    Refs
 ---------------------------------------------------------------------------------
 (8) _ISR                                                  2     2      0       0
                                              0 COMMON     2     2      0
                            _timeISR
 ---------------------------------------------------------------------------------
 (9) _timeISR                                              0     0      0       0
 ---------------------------------------------------------------------------------
 Estimated maximum stack depth 9
 ---------------------------------------------------------------------------------

 Call Graph Graphs:

 _main (ROOT)
   _Network_begin
     _RF24_begin
       _RF24_flush_rx
         _RF24_write_register
           _RF24_read_register (ARG)
             _SPI_exchangeByte
           _SPI_exchangeByte (ARG)
       _RF24_flush_tx
         _RF24_write_register
       _RF24_powerUp
         _RF24_read_register
         _RF24_write_register
       _RF24_read_register
       _RF24_setAddressWidth
         _RF24_write_register
       _RF24_setChannel
         _RF24_write_register
       _RF24_setDataRate
         _RF24_read_register
         _RF24_write_register
       _RF24_setPALevel
         _RF24_read_register
         _RF24_write_register
       _RF24_setPayloadSize
         _RF24_write_register
       _RF24_setRetries
         _RF24_write_register
       _RF24_write_register
     _RF24_enableDynamicPayloads
       _RF24_read_register
       _RF24_write_register
     _RF24_getPALevel
       _RF24_read_register
     _RF24_openReadingPipe
       _RF24_read_register
       _RF24_write_n_register
         _SPI_exchangeByte
       _RF24_write_register
     _RF24_setAddressWidth
     _RF24_setAutoAck
       _RF24_write_register
     _RF24_setCRCLength
       _RF24_write_register
     _RF24_setDataRate
     _RF24_setPayloadSize
     _RF24_startListening
       _RF24_read_register
       _RF24_write_register
   _SPI_initialize
   _Serial_begin
     ___aldiv
   _Serial_write
   __$_logline_str
     _Serial_write
   _checkButton
     _micros
   _internet_process
     _RF24_available
       _RF24_get_status
         _SPI_exchangeByte
     _RF24_getDynamicPayloadSize
       _RF24_flush_rx
       _RF24_read_register
     _RF24_read
       _RF24_read_n_register
         _SPI_exchangeByte
       _RF24_write_register
     _internet_rx
       _internet_relay
         _RF24_openReadingPipe
         _RF24_openWritingPipe
           _RF24_write_n_register
         _RF24_startListening
         _RF24_stopListening
           _RF24_read_register
           _RF24_write_register
         _RF24_write
           _RF24_flush_tx
           _RF24_get_status
           _RF24_write_register
           _SPI_exchangeByte
         _Serial_write
         __$_logline_str
         _internet_calculateMask
         _internet_hasChild
       _transport_udp_rx
         _transport_udp_process
           _Serial_write
           __$_logline_int
             _Serial_write
             ___awdiv
             ___awmod
               ___lbdiv (ARG)
             ___lbdiv
           __$_logline_str
           _memcpy
   _internet_setAddress
     _internet_calculateMask
     _internet_setNetworkPipe
       _RF24_openReadingPipe
       _memcpy
   _internet_setChannel
     _RF24_setChannel
   _internet_setNetworkPipe
   _micros
   _transport_udp_tx
     _internet_tx
       _internet_relay
   _wait_init
     _timerInit

 _ISR (ROOT)
   _timeISR

 Address spaces:
Name               Size   Autos  Total    Cost      Usage
BANK3               60      0       0       9        0.0%
BITBANK3            60      0       0       8        0.0%
SFR3                 0      0       0       4        0.0%
BITSFR3              0      0       0       4        0.0%
BANK2               60      0       0      11        0.0%
BITBANK2            60      0       0      10        0.0%
SFR2                 0      0       0       5        0.0%
BITSFR2              0      0       0       5        0.0%
BANK1               50      0      45       7       86.2%
BITBANK1            50      0       0       6        0.0%
SFR1                 0      0       0       2        0.0%
BITSFR1              0      0       0       2        0.0%
BANK0               50     24      43       5       83.8%
BITBANK0            50      0       0       4        0.0%
SFR0                 0      0       0       1        0.0%
BITSFR0              0      0       0       1        0.0%
COMMON               E      B       C       1       85.7%
BITCOMMON            E      0       0       0        0.0%
CODE                 0      0       0       0        0.0%
DATA                 0      0      94      12        0.0%
ABS                  0      0      94       3        0.0%
NULL                 0      0       0       0        0.0%
STACK                0      0       0       2        0.0%
EEDATA             100      0       0       0        0.0%


Microchip Technology PIC Macro Assembler V2.35 build 20211206165544 
Symbol Table                                                                                   Fri Mar 18 16:05:42 2022

              transport_udp_tx@size 002C          internet_calculateMask@mask 0073  
                       ?_RF24_write 0020                       ?_RF24_powerUp 0070  
                                 pc 0002               ??_RF24_setPayloadSize 0079  
                                l72 07AF                                  l94 05F1  
           transport_udp_tx@payload 0031                        ___awdiv@sign 0078  
                RF24_available@pipe 0076                                  fsr 0004  
       RF24_write_n_register@buffer 0073                _RF24_openWritingPipe 0A3B  
       RF24_write_n_register@length 0075                    _SPI_exchangeByte 09FA  
                               l300 0F3F                                 l402 0C6A  
                               l411 0EBD                                 l501 09E2  
                               l261 0D16                                 l422 07E2  
                               l271 0E7F                                 l255 00FF  
                               l408 0B0A                                 l424 07FA  
                               l264 0C1D                                 l441 0C42  
                               l513 0A4A                                 l281 044E  
                               l370 0B5E                                 l522 0B41  
                               l507 0A11                                 l419 07D6  
                               l291 0A3A                                 l267 0BDA  
                               l612 0B25                                 l525 0A2B  
                               l453 00F5                                 l445 0ABD  
                               l701 0FB3                                 l382 0A7C  
                               l366 0CBB                                 l294 0E42  
                               l519 09C7                                 l375 0E04  
                               l551 0A6B                                 l367 0CBE  
                               l392 0D73                                 l376 0E07  
                               l448 0B9A                                 l704 0FFF  
                               l385 0696                                 l297 0A5A  
                               l609 0DD5                                 l554 09FF  
                               l490 0BAE                                 l379 0AF0  
                               l459 0BFB                                 l467 0AD6  
                               l619 09CF                                 l556 0A03  
                               l492 0BBA                                 l660 052B  
                               l557 0A05                                 l478 0CEA  
                               l806 0733                                 l590 0A91  
                               l399 0B7C                                 l672 0A13  
                               l498 09ED                                 l586 0ED4  
                               l675 0A1D                                 l691 0DA4  
                               l587 0EFC                                 l937 0C93  
                               l697 0FBC                                 l796 06AB  
                               l884 00AB                                 l897 0F9A  
                               _GIE 005F                                 _RD0 0040  
                               _RD1 0041                                 _RD2 0042  
                               _RD3 0043                                 _ISR 09EE  
          internet_hasChild@address 0073                                 fsr0 0004  
                               indf 0000                        ___awmod@sign 0022  
                   ?__$_logline_int 0070                     ?__$_logline_str 0073  
             RF24_setAddressWidth@w 007A                     ?_internet_relay 0023  
                              ?_ISR 0070                                l2101 0097  
                              l2103 009D                                l2105 00A2  
                              l3001 05C6                                l2107 00A7  
                              l3003 05D1                                l3013 00AF  
                              l3021 0A3C                                l3101 0419  
                              l3005 05D5                                l1182 0D36  
                              l3015 00B5                                l3023 0C43  
                              l3031 07B4                                l2055 0A13  
                              l2311 0A39                                l2303 0A2D  
                              l3103 0422                                l3111 0449  
                              l2071 004A                                l2151 0C6D  
                              l3007 05DD                                l3121 0CCD  
                              l3017 00C5                                l3025 0C46  
                              l3041 07E5                                l3033 07C0  
                              l2057 0A19                                l2305 0A2F  
                              l3105 042D                                l2081 005E  
                              l2073 004F                                l2161 0C7F  
                              l2153 0C72                                l1185 0D44  
                              l3009 05E3                                l3113 0B0E  
                              l3131 0CE0                                l3123 0CD2  
                              l3019 00D8                                l3051 0B79  
                              l3211 0AB4                                l3027 0C66  
                              l3043 07EF                                l3035 07C9  
                              l2307 0A31                                l2315 0A4C  
                              l3107 0433                                l2091 0074  
                              l2083 0060                                l2075 0051  
                              l2067 0045                                l2163 0C87  
                              l2155 0C75                                l2171 0C92  
                              l3115 0B12                                l3203 0E6A  
                              l3117 0A1F                                l3053 0A07  
                              l3125 0CD8                                l3133 0E81  
                              l3301 0F3A                                l3213 0ABA  
                              l3141 0CB0                                l3045 07F5  
                              l3037 07CF                                l3029 07B3  
                              l2181 0D8D                                l2309 0A33  
                              l3109 043F                                l3061 036E  
                              l2093 0078                                l2085 0066  
                              l2077 0055                                l2069 0046  
                              l2165 0C89                                l2157 0C77  
                              l2149 0C6C                                l3221 0BBE  
                              l3127 0CDA                                l3119 0CC2  
                              l3151 0D5A                                l3231 05FA  
                              l3143 0CB4                                l3135 0C95  
                              l3039 07D8                                l2183 0D9D  
                              l2175 0D74                                l3071 03A2  
                              l3063 037D                                l3055 0364  
                              l2095 0089                                l2087 0069  
                              l2079 005A                                l2167 0C8A  
                              l2159 0C7B                                l3311 0E1F  
                              l3303 00F9                                l3223 0BC2  
                              l3161 0AF1                                l3129 0CDF  
                              l3153 0D5F                                l3145 0B27  
                              l3241 0633                                l3233 0614  
                              l3049 0B5F                                l3217 0ABC  
                              l3209 0AA8                                l3137 0C98  
                              l2177 0D79                                l3073 03AC  
                              l3081 03CE                                l3065 0383  
                              l3057 0368                                l2097 008F  
                              l2089 0070                                l2169 0C8C  
                              l3321 0CF6                                l3313 0E2D  
                              l3305 0E0B                                l3225 0BC9  
                              l2601 0ECB                                l3163 0B01  
                              l3155 0D63                                l3147 0D48  
                              l3251 065E                                l3243 063A  
                              l3235 0620                                l3171 0C1E  
                              l3139 0CA4                                l2179 0D87  
                              l3091 03F3                                l3083 03D2  
                              l3075 03B2                                l3067 0392  
                              l2099 0090                                l3323 0D00  
                              l3315 0E3C                                l3307 0E0F  
                              l3227 0BD0                                l3331 0DB1  
                              l2611 0EFA                                l2603 0ED0  
                              l3157 0D69                                l3149 0D54  
                              l3261 0686                                l3253 0664  
                              l3245 0646                                l3237 0626  
                              l3229 05F2                                l2621 06BA  
                              l2613 0697                                l3173 0C29  
                              l3085 03DC                                l3077 03B7  
                              l3069 039E                                l3093 03FE  
                              l3325 0D0C                                l3317 0CEB  
                              l3165 0BFF                                l3309 0E1A  
                              l3333 0DB8                                l2605 0EDD  
                              l2701 09C9                                l3341 0263  
                              l3159 09D8                                l3263 068B  
                              l3255 0670                                l3247 0652  
                              l3239 062C                                l3271 0BA1  
                              l2711 0A64                                l2703 0A5B  
                              l2631 06DE                                l2623 06BE  
                              l2615 069A                                l2463 0A7D  
                              l3175 0C2F                                l3183 0C41  
                              l3095 0404                                l3087 03E2  
                              l3079 03C3                                l3191 0E46  
                              l3319 0CEC                                l3167 0C0D  
                              l3335 0DC0                                l3327 0DA8  
                              l2607 0EEF                                l3351 027B  
                              l3343 0264                                l3257 0675  
                              l3249 0658                                l3281 0ABF  
                              l2713 0A65                                l2705 0A5E  
                              l2641 070C                                l2633 06E2  
                              l2625 06C6                                l2617 069E  
                              l3177 0C34                                l3097 040E  
                              l3089 03E7                                l3193 0E4A  
                              l3169 0C13                                l3337 0DCB  
                              l3329 0DAC                                l2609 0EF9  
                              l3361 0297                                l3353 0280  
                              l3345 0265                                l3259 067A  
                              l3267 0BDB                                l3283 0AC4  
                              l3275 0BA7                                l3291 0EFD  
                              l2707 0A62                                l2643 0715  
                              l2635 06EB                                l2627 06CE  
                              l2619 06AF                                l3179 0C3F  
                              l3187 0B7E                                l3099 0414  
                              l3419 0E74                                l3195 0E54  
                              l3371 02E7                                l3363 02A0  
                              l3355 0285                                l3347 0266  
                              l3339 025F                                l3285 0ACF  
                              l3277 0BAC                                l3269 0B9C  
                              l3293 0F19                                l2709 0A63  
                              l2637 06FD                                l2629 06D1  
                              l2645 071B                                l2661 076D  
                              l2653 0737                                l3189 0B8E  
                              l3381 031A                                l3373 02F1  
                              l3365 02A6                                l3357 028B  
                              l3349 0275                                l3287 09C1  
                              l3279 0BB0                                l3295 0F23  
                              l2647 0720                                l2639 070B  
                              l2671 07AE                                l2663 076F  
                              l2655 0738                                l2911 0FB8  
                              l2903 0F9E                                l3199 0E5F  
                              l3391 0330                                l3383 0320  
                              l3375 02FB                                l3367 02AB  
                              l3359 0291                                l3297 0F29  
                              l2649 072B                                l2681 050C  
                              l2665 0773                                l2657 0741  
                              l2913 0FC0                                l2905 0FA4  
                              l2921 0D21                                l2593 0EBF  
                              l3393 0338                                l3385 0323  
                              l3377 030C                                l3369 02BA  
              internet_process@size 003E                                l2851 09FB  
                              l2931 0B5A                                l3299 0F34  
                              l2691 0521                                l2683 050F  
                              l2675 044F                                l2667 0778  
                              l2659 0746                                l2915 0FE2  
                              l2907 0FAA                                l2923 0D28  
                              l2595 0EC3                                l3387 0326  
                              l3379 0311                                l3395 034E  
                              l2853 0A04                                l2861 0AE7  
                              l2933 0B5D                                l2941 0DE7  
                              l2693 0524                                l2685 0519  
                              l2677 04AA                                l2669 07A7  
                              l2917 0FFA                                l2909 0FAF  
                              l2925 0D2C                                l2597 0EC5  
                              l3397 0357                                l3389 032E  
                              l2863 0AED                                l2927 0B43  
                              l2943 0DF7                                l2695 0525  
                              l2687 051D                                l2679 04B3  
                              l2951 0A6F                                l2871 0F4C  
                              l2919 0D18                                l2599 0EC9  
                              l2857 0AD8                                l2929 0B46  
                              l2945 0DFD                                l2937 0DD7  
                              l2697 0528                                l2689 051E  
                              l2953 0A7A                                l2881 0F60  
                              l2873 0F4E                                l2865 0F40  
                              l2961 052F                                l2859 0ADB  
                              l2947 0DFF                                l2939 0DDA  
                              l2955 0A7B                                l2891 0F7F  
                              l2883 0F67                                l2875 0F52  
                              l2867 0F43                                l2971 0553  
                              l2963 0538                                l2949 0A6C  
                              l2893 0F86                                l2885 0F6B  
                              l2877 0F57                                l2869 0F47  
                              l2981 0576                                l2973 055C  
                              l2965 053E                                l2959 09E3  
                              l2887 0F6F                                l2879 0F5D  
                              l2895 0F8C                                l2991 059B  
                              l2983 057B                                l2975 0564  
                              l2967 0544                                l2897 0F91  
                              l2889 0F79                                l2993 05A4  
                              l2985 0584                                l2969 054D  
                              l2899 0F96                                l2995 05AA  
                              l2987 058A                                l2979 056E  
                              l2997 05B5                                l2989 0595  
                              l2999 05BB                                STR_1 0135  
                              STR_2 01B9                                STR_3 0197  
                              STR_4 01C8                                STR_5 01AA  
                              STR_6 021F                                STR_7 025C  
                              STR_8 0256                                STR_9 01F5  
                              _BRGH 04C2                                _CREN 00C4  
                              u1010 0A19                                u1011 0A18  
                              u1100 009D                                u1020 004A  
                              u1101 009C                                u1021 0049  
                              u1110 00A2                                u1030 0055  
                              u1111 00A1                                u1031 0054  
                              u1040 0066                                u2000 0F47  
                              u1041 0065                                u2001 0F46  
                              u2010 0F52                                u1210 0C72  
                              u2011 0F51                                u1211 0C71  
                              u1060 0078                                u2020 0F5D  
                              u1220 0C7F                                u2100 0FAA  
                              u1061 0077                                u2021 0F5C  
                              u1221 0C7E                                u2101 0FA9  
                              u1230 0C87                                u2110 0FFF  
                              u1055 006A                                u1231 0C86  
                              u2111 0FFE                                u1400 0A59  
                              u1080 0089                                u2040 0F6F  
                              u1240 0C92                                u2120 0D44  
                              u1401 0A57                                u1081 0088  
                              u2041 0F6E                                u1241 0C91  
                              u2121 0D43                                u2130 0E04  
                              u2210 07D6                                u1250 0D9D  
                              u1410 0A5A                                u2050 0F79  
                              u2131 0E03                                u2211 07D5  
                              u1251 0D9C                                u1075 0079  
                              u2051 0F78                                u2035 0F61  
                              u2204 00E0                                u2300 0CBB  
                              u2220 07E2                                u1260 0DA4  
                              u2140 0564                                u2205 00DE  
                              u2301 0CBA                                u2221 07E1  
                              u1261 0DA3                                u1085 0085  
                              u2141 0563                                u2230 07F5  
                              u2070 0F8C                                u2150 056D  
                              u2231 07F4                                u1095 0091  
                              u2071 0F8B                                u2055 0F75  
                              u2151 056C                                u2320 0D5A  
                              u2240 036D                                u2080 0F91  
                              u2160 0576                                u1600 0ED0  
                              u2321 0D59                                u2241 036C  
                              u2081 0F90                                u2065 0F80  
                              u2161 0575                                u1601 0ECF  
                              u2330 0C2F                                u2250 0383  
                              u2090 0FA4                                u2170 05DC  
                              u2410 0D16                                u1610 0ED4  
                              u2315 0B30                                u2331 0C2E  
                              u2251 0382                                u2091 0FA3  
                              u2171 05DB                                u2411 0D15  
                              u1611 0ED3                                u2260 0392  
                              u2180 05E3                                u2340 0E54  
                              u2261 0391                                u2181 05E2  
                              u2341 0E53                                u2405 0E30  
                              u2421 02C9                                u2190 00B5  
                              u1710 06E2                                u2350 0ABA  
                              u1390 0A39                                u2270 039E  
                              u1630 0EEC                                u2430 02E7  
                              u2422 02CA                                u2191 00B4  
                              u1711 06E1                                u2351 0AB9  
                              u1391 0A38                                u2271 039D  
                              u1631 0EE8                                u2431 02E6  
                              u2423 02CF                                u2280 0CD8  
                              u2360 0BA6                                u1800 0778  
                              u2440 02F8                                u2424 02D0  
                              u2281 0CD7                                u2361 0BA5  
                              u1705 06D3                                u1801 0777  
                              u1625 0EE0                                u2441 02F4  
                              u2433 02E3                                u2425 02D5  
                              u2290 0CDF                                u2370 0BAC  
                              u1730 06FD                                u1810 078E  
                              u1650 0EF6                                u2426 02D6  
                              u2291 0CDE                                u2507 060F  
                              u2371 0BAB                                u1731 06FC  
                              u1811 078F                                u1651 0EF2  
                              u2380 0AC4                                u1820 045F  
                              u1812 0794                                u1644 0EEF  
                              u2460 0311                                u2517 0B05  
                              u2381 0AC3                                u1725 06E4  
                              u1813 0795                                u2461 0310  
                              u1750 071B                                u1670 069E  
                              u1830 0478                                u2454 02FB  
                              u1751 071A                                u1735 06F9  
                              u1671 069D                                u1760 0720  
                              u1680 06AF                                u1664 0EF9  
                              u1761 071F                                u1745 070D  
                              u1681 06AE                                u1841 048A  
                              u1825 045A                                u1690 06CE  
                              u1850 04B3                                u1842 048B  
                              u1770 0741                                u1691 06CD  
                              u1851 04B2                                u1843 0490  
                              u1835 0473                                u1771 0740  
                              u2395 0E22                                u1860 04C1  
                              u1844 0491                                u1780 0746  
                              u1845 0496                                u1781 0745  
                              u2477 0C68                                u1870 04DA  
                              u1846 0497                                u1790 076D  
                              u1791 076C                                u2487 0C3A  
                              u2497 0602                                u1881 04EC  
                              u1865 04BC                                u1890 0519  
                              u1882 04ED                                u1891 0518  
                              u1883 04F2                                u1875 04D5  
                              u1795 0769                                _PEIE 005E  
                              u1884 04F3                                u1885 04F8  
                              u1990 0A03                                u1886 04F9  
                              u1991 0A02                                _TMR1 000E  
                              _SPEN 00C7                                _TRMT 04C1  
                              _TXEN 04C5                                _SYNC 04C4  
                              _btn1 005C     RF24_read_register@mnemonic_addr 0074  
      __end_of_RF24_setAddressWidth 0A2C                                _main 025F  
                              _node 0044                                _prop 0061  
                              btemp 007E         ?_RF24_enableDynamicPayloads 0070  
                      RF24_read@buf 007A                        RF24_read@len 0079  
                              start 000C                 _internet_setAddress 0E08  
               _internet_setChannel 00F6          transport_udp_process@count 002F  
                    ??_RF24_powerUp 0079                               ??_ISR 0070  
             ?_RF24_openWritingPipe 0070                     __end_of___aldiv 0734  
                             ?_main 0070                     __end_of___awdiv 00AC  
                   __end_of___lbdiv 0C94                               STR_10 0180  
                             STR_11 0211                               STR_12 024A  
                             STR_20 0226                               STR_21 022C  
                             STR_13 01EB                               STR_22 0232  
                             STR_14 0208                               STR_23 0238  
                             STR_15 01D5                               STR_16 0250  
                             STR_24 023E                               STR_25 0244  
                             STR_17 01FF                               STR_18 0218  
                             STR_19 01E0                               STR_27 0169  
                   __end_of___awmod 0F9B                     ___awdiv@divisor 0072  
                             i1l100 09F3                               i1l594 0AA7  
                   ___awdiv@counter 0077       __end_of_transport_udp_process 05F2  
                             _SPBRG 0099                ?_internet_setAddress 0070  
                             _TRISB 0086                               _SSPEN 00A5  
                             _SSPIF 0063                               _TXREG 0019  
              ?_internet_setChannel 0070             RF24_read_n_register@buf 0073  
                             _nRBPU 040F             RF24_read_n_register@len 0074  
      ??_RF24_getDynamicPayloadSize 0020              ?_RF24_write_n_register 0073  
                 __end_of_BASE_PIPE 0135                     __end_of_timeISR 0AA8  
                             pclath 000A                     ??_RF24_flush_rx 0079  
                   ??_RF24_flush_tx 0079                               status 0003  
                             wtemp0 007E                     ___lbdiv@divisor 0072  
          __end_of_transport_udp_rx 0B26            __end_of_transport_udp_tx 0DD6  
                   ___lbdiv@counter 0075                        ?_internet_rx 0038  
                      ?_internet_tx 0028                     __initialization 000F  
                      __end_of_main 0361         transport_udp_tx@destination 002D  
                 ?_internet_process 0070                  ??_internet_process 003D  
        internet_relay@packetHeader 0026                              ??_main 003F  
         RF24_openReadingPipe@child 0022                   __end_of_RF24_read 0B9B  
             ??_internet_setAddress 0025               ??_internet_setChannel 007B  
                    _BROADCAST_PIPE 0122                    ___awdiv@dividend 0074  
                            i1l2763 0A92                              i1l2765 0A98  
                            i1l2829 09EE                              i1l2767 0AA6  
                            u193_20 0A98                              u193_21 0A97  
                            _TMR1IE 0460                              _TMR1IF 0060  
                            _TMR1CS 0081                              _TMR1ON 0080  
     internet_calculateMask@address 0072                              _TRISD0 0440  
                            _TRISD1 0441                              _TRISC3 043B  
                            _TRISD2 0442                              _TRISC4 043C  
                            _TRISD3 0443                              _TRISC5 043D  
                            _TRISC6 043E                              _TRISC7 043F  
                            _SSPCON 0014                              _SSPBUF 0013  
                     RF24_write@buf 0021                       RF24_write@len 0020  
                timerInit@prescaler 0074             RF24_setCRCLength@length 007A  
                  ??_RF24_available 0074                           ??___aldiv 007A  
                         ??___awdiv 0076                           ??___lbdiv 0073  
                         ??___awmod 0020              ??_RF24_openWritingPipe 0078  
              SPI_exchangeByte@byte 0072                              _memcpy 0D17  
                            _micros 0A7D                    ___awdiv@quotient 0079  
                   ___awmod@divisor 0077                     ___awmod@counter 0021  
              _RF24_setAddressWidth 0A1E              __end_of_BROADCAST_PIPE 0127  
                            saved_w 007E                           ??_timeISR 0070  
                 _internet_hasChild 0A4B                __end_of_RF24_powerUp 0B0B  
                  ___lbdiv@dividend 0074                  ?_internet_hasChild 0070  
        __end_of_RF24_stopListening 0C6B             __end_of__initialization 0041  
             RF24_setDataRate@speed 0020               RF24_setDataRate@setup 0021  
          __end_of_SPI_exchangeByte 0A06         __end_of_RF24_startListening 0B7D  
          ??_internet_calculateMask 0072               RF24_setAutoAck@enable 007A  
                      ??_RF24_begin 0023                 ??_internet_hasChild 0072  
                      ??_RF24_write 007A                      __pcstackCOMMON 0070  
RF24_write_n_register@mnemonic_addr 0077                        __pidataBANK1 07FB  
   transport_udp_tx@destinationPort 002F                      _SPI_initialize 0A5B  
                  ??__$_logline_int 0023                    ??__$_logline_str 0075  
                  ___lbdiv@quotient 0076                    ??_internet_relay 0024  
             ?_RF24_setAddressWidth 0070             _internet_setNetworkPipe 0BFC  
         __end_of_internet_hasChild 0A5B  __end_of_RF24_getDynamicPayloadSize 0C43  
        _RF24_getDynamicPayloadSize 0C1E                  __end_of_RF24_begin 0697  
                __end_of_RF24_write 07FB                          __pbssBANK0 0044  
                        __pbssBANK1 00A0                       ?_Serial_begin 0026  
                        __microsMSB 0049             internet_tx@packetHeader 002A  
                     ?_Serial_write 0070         __end_of_RF24_setPayloadSize 0EBE  
                        __pmaintext 025F              __end_of_SPI_initialize 0A6C  
                __end_of_LOGLINE_OK 012F                          __pintentry 0004  
                           ?_memcpy 0072                             ?_micros 0072  
              __end_of_LOGLINE_FAIL 012C                             _T1CKPS0 0084  
                           _T1CKPS1 0085                RF24_setPALevel@level 0022  
                           _T1OSCEN 0083                RF24_setPALevel@setup 0020  
           ??_RF24_write_n_register 0076                   ??_RF24_getPALevel 0077  
                  _RF24_attr_config 007B                             _SSPSTAT 0094  
                        __stringtab 0100                      ??_Serial_begin 002A  
                  _RF24_attr_status 0055                      ??_Serial_write 0072  
                         _BASE_PIPE 0130                   ?_transport_udp_rx 0033  
                 ?_transport_udp_tx 002C                  ??_transport_udp_rx 0034  
                ??_transport_udp_tx 0030                     ?_SPI_initialize 0070  
                           ___aldiv 0697                       Serial_begin@x 0036  
                           ___awdiv 0045                             ___lbdiv 0C6B  
                           ___awmod 0F40           ??_internet_setNetworkPipe 0023  
        __end_of_RF24_read_register 0B5F              ??_RF24_setAddressWidth 0079  
                     ??_checkButton 0020                             __ptext1 09C8  
                           __ptext2 0EBE                             __ptext3 0DA5  
                           __ptext4 0BBB                             __ptext5 00F6  
                           __ptext6 0E08                             __ptext7 0BFC  
                           __ptext8 0CEB                             __ptext9 0E43  
                 ??_RF24_get_status 0073        transport_udp_tx@packetHeader 0032  
                  ___awmod@dividend 0079                    ___aldiv@dividend 0076  
                    checkButton@btn 0026                             _timeISR 0A92  
                         _RF24_read 0B7D               _transport_udp_process 052C  
               _RF24_setPALevel$675 0021                             clrloop0 09D1  
                __$_logline_int$871 0026                  __$_logline_int$872 0028  
              end_of_initialization 0041                RF24_setRetries@delay 007A  
              RF24_setRetries@count 0079        transport_udp_process@payload 0030  
                           memcpy@d 0077                             memcpy@n 0073  
                           memcpy@s 0078               __end_of_RF24_flush_rx 09E3  
             __end_of_RF24_flush_tx 09EE                    _RF24_setDataRate 0CBF  
  RF24_getDynamicPayloadSize@result 007A                   __end_of_wait_init 09D0  
                 __end_of_timerInit 0EFD                       _Network_begin 0EFD  
                  ___aldiv@quotient 0022                   ??_RF24_setPALevel 0079  
                      _RF24_powerUp 0AF1         __end_of_internet_setAddress 0E43  
                      __pstringtext 0100         __end_of_internet_setChannel 0100  
                 ??_RF24_setChannel 0079                    Serial_write@data 0072  
                 ??_RF24_setAutoAck 0079              _internet_calculateMask 0A2C  
                        ?_RF24_read 0079                 __end_of_checkButton 07B0  
                 ??_RF24_setRetries 0020                 _RF24_write_register 0AD7  
   __end_of_internet_setNetworkPipe 0C1E                          main@packet 012F  
                 ?_SPI_exchangeByte 0070                      ?_Network_begin 0070  
                ??_SPI_exchangeByte 0072                ?_RF24_write_register 0076  
                _RF24_stopListening 0C43                __end_of_Serial_begin 052C  
                    __end_of_memcpy 0D45                      __end_of_micros 0A92  
        internet_setChannel@channel 0020                __end_of_Serial_write 0A1E  
               ?_RF24_stopListening 0070              ?_transport_udp_process 002C  
               start_initialization 000F   RF24_read_n_register@mnemonic_addr 0076  
                       __end_of_ISR 09FA                 wait_init@megaHertez 0075  
       ?_RF24_getDynamicPayloadSize 0070                checkButton@isPressed 0025  
          RF24_write_register@value 0076                        _LOGLINE_FAIL 0127  
      __end_of_RF24_openReadingPipe 00F6                ??_RF24_stopListening 0079  
      ??_RF24_enableDynamicPayloads 0079               ??_RF24_write_register 0077  
       RF24_openReadingPipe@address 0079                         __pdataBANK1 00E0  
      __end_of_RF24_read_n_register 0CBF                    __$_logline_int@t 002B  
                  __$_logline_int@v 002A                            ??_memcpy 0075  
                          ??_micros 0076                     _RF24_getPALevel 09C1  
                       _checkButton 0734    RF24_write_register@mnemonic_addr 0078  
                       __pbssCOMMON 007B                           ___latbits 0002  
                     __pcstackBANK0 0020                         ??_RF24_read 0020  
     __end_of_RF24_write_n_register 0E08                    _internet_process 0CEB  
                   ??_Network_begin 0026                    ??_SPI_initialize 0072  
                     ??_internet_rx 0039                       ??_internet_tx 0029  
                   _RF24_get_status 0A6C                            ?___aldiv 0072  
                          ?___awdiv 0072                            ?___lbdiv 0072  
                          ?___awmod 0077                           _buffer_rx 00A0  
                         _buffer_tx 00C0            __end_of_RF24_setDataRate 0CEB  
          RF24_read_register@result 0075               internet_relay@dstMask 0025  
                          ?_timeISR 0070               internet_relay@payload 0027  
                _RF24_read_register 0B42                  internet_relay@size 0023  
                   internet_rx@size 0038                     _RF24_setPALevel 0D45  
                   ___aldiv@divisor 0072                     internet_tx@size 0028  
                 interrupt_function 0004                  internet_rx@payload 003C  
                   ___aldiv@counter 0020         transport_udp_process@packet 0031  
               ?_RF24_read_register 0070                           clear_ram0 09D0  
             __$_logline_str@string 0073                     _RF24_setChannel 0A06  
           __end_of_RF24_getPALevel 09C8                  internet_tx@payload 002B  
                   _RF24_setAutoAck 0ABE                           _wait_init 09C8  
         transport_udp_process@ppnt 0032           transport_udp_process@port 002D  
         transport_udp_process@size 002C                           _timerInit 0EBE  
               __end_of_internet_rx 0E80                 __end_of_internet_tx 0BDB  
           ?_internet_calculateMask 0070                     _RF24_setRetries 0B26  
                       __stringbase 0112                           _startTime 004D  
              _RF24_openReadingPipe 00AC                ??_RF24_read_register 0073  
            RF24_setChannel@channel 007A         internet_setNetworkPipe@pipe 0024  
           internet_rx@packetHeader 003B         RF24_openWritingPipe@address 0079  
              _RF24_read_n_register 0C94             __end_of_RF24_get_status 0A7D  
                      _Serial_begin 044F             RF24_setPayloadSize@size 007A  
__end_of_RF24_enableDynamicPayloads 0BFC          _RF24_enableDynamicPayloads 0BDB  
                      _Serial_write 0A12                 checkButton@pinState 007A  
          ?_internet_setNetworkPipe 0070                           memcpy@tmp 0076  
        internet_setAddress@address 0027                          ?_wait_init 0070  
  __end_of_LOGLINE_CONVERSION_TABLE 0122                          ?_timerInit 0070  
    __end_of_internet_calculateMask 0A3B                        _network_pipe 00E0  
                 _RF24_setCRCLength 0B9B             ??_transport_udp_process 002E  
                __end_of__stringtab 0112               ?_RF24_openReadingPipe 0079  
                    _RF24_available 0AA8                  ?_RF24_setCRCLength 0070  
           __end_of_RF24_setPALevel 0D74                            __ptext10 0B0B  
                          __ptext11 052C                            __ptext20 0D74  
                          __ptext12 0D17                            __ptext21 0A12  
                          __ptext13 0F9B                            __ptext30 0734  
                          __ptext22 07B0                            __ptext14 0C6B  
                          __ptext31 0A7D                            __ptext23 0C43  
                          __ptext15 0F40                            __ptext40 0DD6  
                          __ptext32 044F                            __ptext24 0A3B  
                          __ptext16 0045                            __ptext41 09C1  
                          __ptext33 0697                            __ptext25 0B7D  
                          __ptext17 0361                            __ptext50 0AF1  
                          __ptext42 0BDB                            __ptext34 0A5B  
                          __ptext26 0C94                            __ptext18 0A4B  
                          __ptext51 0B42                            __ptext43 05F2  
                          __ptext35 0EFD                            __ptext27 0C1E  
                          __ptext19 0A2C                            __ptext52 09E3  
                          __ptext44 0B26                            __ptext36 0B5F  
                          __ptext28 0AA8                            __ptext53 09D8  
                          __ptext45 0E80                            __ptext37 0B9B  
                          __ptext29 0A6C                            __ptext54 0AD7  
                          __ptext46 0D45                            __ptext38 0ABE  
                          __ptext55 09FA                            __ptext47 0CBF  
                          __ptext39 00AC                            __ptext56 09EE  
                          __ptext48 0A06                            __ptext57 0A92  
                          __ptext49 0A1E                 ??_RF24_setCRCLength 0079  
               _RF24_startListening 0B5F             __end_of_RF24_setChannel 0A12  
      __end_of_RF24_openWritingPipe 0A4B               ?_RF24_read_n_register 0073  
           __end_of_RF24_setAutoAck 0AD7                __$_logline_str@limit 0076  
                        _RF24_begin 05F2                         _internet_rx 0E43  
                       _internet_tx 0BBB             __end_of_RF24_setRetries 0B42  
                  ?_RF24_getPALevel 0076                          _RF24_write 07B0  
          __end_of_internet_process 0D17                ?_RF24_startListening 0070  
         __end_of_RF24_setCRCLength 0BBB                     _checkButton$149 0024  
                          main@var1 0043                            _stopTime 0051  
            __end_of_RF24_available 0ABE                        ?_checkButton 007A  
      transport_udp_rx@packetHeader 0036                    _transport_udp_rx 0B0B  
                  _transport_udp_tx 0DA5                          _LOGLINE_OK 012C  
                          memcpy@d1 0079                            memcpy@s1 0072  
                    __$_logline_int 0F9B                      __$_logline_str 0D74  
                       _networkInfo 0056                      _internet_relay 0361  
              Serial_begin@baudrate 0026                            intlevel1 0000  
               _RF24_setPayloadSize 0E80                    ?_RF24_get_status 0070  
       __end_of_RF24_write_register 0AF1                       _RF24_flush_rx 09D8  
                     _RF24_flush_tx 09E3                           stringcode 010A  
                       ??_wait_init 0075               ??_RF24_startListening 0079  
                       ??_timerInit 0072          transport_udp_tx@sourcePort 002E  
              ?_RF24_setPayloadSize 0070              ??_RF24_openReadingPipe 0020  
                   ?_RF24_available 0070            _LOGLINE_CONVERSION_TABLE 0112  
                 ?_RF24_setDataRate 0070              __end_of__$_logline_int 1000  
            __end_of__$_logline_str 0DA5                  __end_ofmain@packet 0130  
                          stringtab 0100                        ___aldiv@sign 0021  
                ??_RF24_setDataRate 0079              __end_of_internet_relay 044F  
                  ?_RF24_setPALevel 0070                        timerInit@mhz 0073  
            ??_RF24_read_n_register 0075                    ?_RF24_setChannel 0070  
             _RF24_write_n_register 0DD6                    ?_RF24_setAutoAck 0070  
                    ?_RF24_flush_rx 0070                      ?_RF24_flush_tx 0070  
             __end_of_Network_begin 0F40             transport_udp_rx@payload 0037  
                       ?_RF24_begin 0070                transport_udp_rx@size 0033  
                  ?_RF24_setRetries 0079  
